Archive member included because of file (symbol)

Car_State1/Car_State1.a(Car_State.o)
                              Car_State0/Car_State_instances.o (Car_State_U)
Disconnections1/Disconnections1.a(Disconnections.o)
                              Disconnections0/Disconnections_instances.o (Disconnections_DW)
Ellipse1/Ellipse1.a(Ellipse.o)
                              Ellipse0/Ellipse_instances.o (Ellipse_B)
Inverters_Action1/Inverters_Action1.a(Inverters_Action.o)
                              Inverters_Action0/Inverters_Action_instances.o (Inverters_Action_U)
Inverters_Action1/Inverters_Action1.a(Inverters_Action_data.o)
                              Inverters_Action0/Inverters_Action_instances.o (Inverters_Action_ConstB)
Inverters_Data1/Inverters_Data1.a(Inverters_Data.o)
                              Inverters_Data0/Inverters_Data_instances.o (Inverters_Data_DW)
Power_Control1/Power_Control1.a(Power_Control.o)
                              Power_Control0/Power_Control_instances.o (Power_Control_DW)
Sensors1/Sensors1.a(Sensors.o)
                              Sensors0/Sensors_instances.o (Sensors_U)
Sensors1/Sensors1.a(Sensors_data.o)
                              Sensors0/Sensors_instances.o (Sensors_ConstB)
Synchronism1/Synchronism1.a(Synchronism.o)
                              Synchronism0/Synchronism_instances.o (Synchronism_DW)
VDC1/VDC1.a(VDC.o)            VDC0/VDC_instances.o (VDC_DW)
SoC1/SoC1.a(SoC.o)            SoC0/SoC_instances.o (SoC_B)
SoC1/SoC1.a(SoC_data.o)       SoC0/SoC_instances.o (SoC_ConstB)
matlabsharedR2023b/matlabsharedR2023b.a(const_params.o)
                              SoC1/SoC1.a(SoC.o) (rtCP_pooled_25mX6Qlkdd1u)
matlabsharedR2023b/matlabsharedR2023b.a(look1_binlxpw.o)
                              Inverters_Data1/Inverters_Data1.a(Inverters_Data.o) (look1_binlxpw)
matlabsharedR2023b/matlabsharedR2023b.a(look2_binlxpw.o)
                              SoC1/SoC1.a(SoC.o) (look2_binlxpw)
matlabsharedR2023b/matlabsharedR2023b.a(rt_nonfinite.o)
                              Inverters_Action1/Inverters_Action1.a(Inverters_Action.o) (rtIsInf)
matlabsharedR2023b/matlabsharedR2023b.a(rtgetinf.o)
                              matlabsharedR2023b/matlabsharedR2023b.a(rt_nonfinite.o) (rtGetInf)
matlabsharedR2023b/matlabsharedR2023b.a(rtgetnan.o)
                              matlabsharedR2023b/matlabsharedR2023b.a(rt_nonfinite.o) (rtGetNaN)
OSC/TaskISRArchive.a(etasConfigTask.o)
                              OSC/osekdefs.o (osek_task_e_etasConfigTask)
OSC/TaskISRArchive.a(Sync_25ms.o)
                              OSC/osekdefs.o (osek_task_e_Sync_25ms)
OSC/TaskISRArchive.a(Timer_1000ms.o)
                              OSC/osekdefs.o (osek_task_e_Timer_1000ms)
OSC/TaskISRArchive.a(Timer_100ms.o)
                              OSC/osekdefs.o (osek_task_e_Timer_100ms)
OSC/TaskISRArchive.a(Timer_25ms.o)
                              OSC/osekdefs.o (osek_task_e_Timer_25ms)
OSC/TaskISRArchive.a(Timer_Inv.o)
                              OSC/osekdefs.o (osek_task_e_Timer_Inv)
OSC/TaskISRArchive.a(SWT_CAN1_AP_BMS_SDC.o)
                              OSC/osekdefs.o (osek_task_e_SWT_CAN1_AP_BMS_SDC)
OSC/TaskISRArchive.a(SWT_CAN1_AP_CurrentSensor.o)
                              OSC/osekdefs.o (osek_task_e_SWT_CAN1_AP_CurrentSensor)
OSC/TaskISRArchive.a(SWT_CAN1_AP_BMS_Voltages.o)
                              OSC/osekdefs.o (osek_task_e_SWT_CAN1_AP_BMS_Voltages)
OSC/TaskISRArchive.a(SWT_CAN1_AP_BMS_ChargerParameters.o)
                              OSC/osekdefs.o (osek_task_e_SWT_CAN1_AP_BMS_ChargerParameters)
OSC/TaskISRArchive.a(SWT_CAN1_AP_BMS_Temperatures.o)
                              OSC/osekdefs.o (osek_task_e_SWT_CAN1_AP_BMS_Temperatures)
OSC/TaskISRArchive.a(SWT_CAN1_AP_Inverter_R_Tx.o)
                              OSC/osekdefs.o (osek_task_e_SWT_CAN1_AP_Inverter_R_Tx)
OSC/TaskISRArchive.a(SWT_CAN1_AP_Inverter_L_Tx.o)
                              OSC/osekdefs.o (osek_task_e_SWT_CAN1_AP_Inverter_L_Tx)
OSC/TaskISRArchive.a(SWT_CAN1_AP_DASH_Mode.o)
                              OSC/osekdefs.o (osek_task_e_SWT_CAN1_AP_DASH_Mode)
OSC/TaskISRArchive.a(SWT_CAN1_NM_BMS_Keep_Alive.o)
                              OSC/osekdefs.o (osek_task_e_SWT_CAN1_NM_BMS_Keep_Alive)
OSC/TaskISRArchive.a(SWT_CAN1_AP_BMS_AIRs_State.o)
                              OSC/osekdefs.o (osek_task_e_SWT_CAN1_AP_BMS_AIRs_State)
OSC/TaskISRArchive.a(SWT_CAN1_NM_DASH_Keep_Alive.o)
                              OSC/osekdefs.o (osek_task_e_SWT_CAN1_NM_DASH_Keep_Alive)
OSC/TaskISRArchive.a(SWT_CAN1_AP_DASH_PrechargeRequest.o)
                              OSC/osekdefs.o (osek_task_e_SWT_CAN1_AP_DASH_PrechargeRequest)
OSC/TaskISRArchive.a(SWT_CAN1_AP_DASH_EnableDrive.o)
                              OSC/osekdefs.o (osek_task_e_SWT_CAN1_AP_DASH_EnableDrive)
OSC/TaskISRArchive.a(SWT_CAN2_AP_ELLIPSE_AUTO.o)
                              OSC/osekdefs.o (osek_task_e_SWT_CAN2_AP_ELLIPSE_AUTO)
OSC/TaskISRArchive.a(SWT_CAN2_AP_ELLIPSE_GPS_VEL.o)
                              OSC/osekdefs.o (osek_task_e_SWT_CAN2_AP_ELLIPSE_GPS_VEL)
OSC/TaskISRArchive.a(SWT_CAN2_MEAS_RECU_SDC.o)
                              OSC/osekdefs.o (osek_task_e_SWT_CAN2_MEAS_RECU_SDC)
OSC/TaskISRArchive.a(SWT_CAN2_AP_ELLIPSE_EKF_POS.o)
                              OSC/osekdefs.o (osek_task_e_SWT_CAN2_AP_ELLIPSE_EKF_POS)
OSC/TaskISRArchive.a(SWT_CAN2_AP_ELLIPSE_IMU_ACCEL.o)
                              OSC/osekdefs.o (osek_task_e_SWT_CAN2_AP_ELLIPSE_IMU_ACCEL)
OSC/TaskISRArchive.a(SWT_CAN2_AP_ELLIPSE_EKF_EULER.o)
                              OSC/osekdefs.o (osek_task_e_SWT_CAN2_AP_ELLIPSE_EKF_EULER)
OSC/TaskISRArchive.a(SWT_CAN2_AP_ELLIPSE_EKF_VEL.o)
                              OSC/osekdefs.o (osek_task_e_SWT_CAN2_AP_ELLIPSE_EKF_VEL)
OSC/TaskISRArchive.a(SWT_CAN2_NM_ELLIPSE_Status.o)
                              OSC/osekdefs.o (osek_task_e_SWT_CAN2_NM_ELLIPSE_Status)
OSC/TaskISRArchive.a(SWT_CAN2_AP_ELLIPSE_IMU_GYRO.o)
                              OSC/osekdefs.o (osek_task_e_SWT_CAN2_AP_ELLIPSE_IMU_GYRO)
OSC/TaskISRArchive.a(SWT_CAN2_AP_ELLIPSE_VEL_Valid.o)
                              OSC/osekdefs.o (osek_task_e_SWT_CAN2_AP_ELLIPSE_VEL_Valid)
OSC/TaskISRArchive.a(SWT_CAN2_AP_RECU_Data.o)
                              OSC/osekdefs.o (osek_task_e_SWT_CAN2_AP_RECU_Data)
OSC/TaskISRArchive.a(SWT_CAN2_NM_FECU_Keep_Alive.o)
                              OSC/osekdefs.o (osek_task_e_SWT_CAN2_NM_FECU_Keep_Alive)
OSC/TaskISRArchive.a(SWT_CAN2_NM_RECU_Keep_Alive.o)
                              OSC/osekdefs.o (osek_task_e_SWT_CAN2_NM_RECU_Keep_Alive)
OSC/TaskISRArchive.a(SWT_CAN2_AP_FECU_Data2.o)
                              OSC/osekdefs.o (osek_task_e_SWT_CAN2_AP_FECU_Data2)
OSC/TaskISRArchive.a(SWT_CAN2_AP_FECU_Data1.o)
                              OSC/osekdefs.o (osek_task_e_SWT_CAN2_AP_FECU_Data1)
OSC/TaskISRArchive.a(ISR_CAN1.o)
                              OSC/osekdefs.o (osek_isr_e_ISR_CAN1)
OSC/TaskISRArchive.a(ISR_CAN2.o)
                              OSC/osekdefs.o (osek_isr_e_ISR_CAN2)
C:/ETAS/Compiler/INTECRIO5.0/QNXCompiler-V6.5\host\win32\x86/usr/lib/gcc/powerpc-unknown-nto-qnx6.5.0/4.4.2/spe/libgcc.a(_fixunsdfdi.o)
                              ROOT_instances.o (__fixunsdfdi)
C:/ETAS/Compiler/INTECRIO5.0/QNXCompiler-V6.5\host\win32\x86/usr/lib/gcc/powerpc-unknown-nto-qnx6.5.0/4.4.2/spe/libgcc.a(_floatundidf.o)
                              ROOT_instances.o (__floatundidf)
C:\Program Files (x86)\ETAS\INTECRIO5.0\Target\Etarget\ES910\libes910.a(i_rtautil.o)
                              ROOT_instances.o (os_dT)
C:\Program Files (x86)\ETAS\INTECRIO5.0\Target\Etarget\ES910\libes910.a(t_driverThreads.o)
                              OSC/DriverThreads.o (etasSetNumberOfDriverThreads)
C:\Program Files (x86)\ETAS\INTECRIO5.0\Target\Etarget\ES910\libes910.a(t_idle.o)
                              C:\Program Files (x86)\ETAS\INTECRIO5.0\Target\Etarget\ES910\libes910.a(i_rtautil.o) (signalShutdownHookTermination)
C:\Program Files (x86)\ETAS\INTECRIO5.0\Target\Etarget\ES910\libes910.a(t_l1com.o)
                              C:\Program Files (x86)\ETAS\INTECRIO5.0\Target\Etarget\ES910\libes910.a(i_rtautil.o) (l1SetBusyState)
C:\Program Files (x86)\ETAS\INTECRIO5.0\Target\Etarget\ES910\libes910.a(t_main.o)
                              C:/ETAS/Compiler/INTECRIO5.0/QNXCompiler-V6.5\target\qnx6/ppcbe-spe/lib/crt1.o (main)
C:\Program Files (x86)\ETAS\INTECRIO5.0\Target\Etarget\ES910\libes910.a(t_mlog.o)
                              C:\Program Files (x86)\ETAS\INTECRIO5.0\Target\Etarget\ES910\libes910.a(i_rtautil.o) (getDrvLogChan)
C:\Program Files (x86)\ETAS\INTECRIO5.0\Target\Etarget\ES910\libes910.a(t_qnxtargetutil.o)
                              C:\Program Files (x86)\ETAS\INTECRIO5.0\Target\Etarget\ES910\libes910.a(t_main.o) (qnxSetBootFromFlash)
C:\Program Files (x86)\ETAS\INTECRIO5.0\Target\Etarget\ES910\libes910.a(t_targetutil.o)
                              ROOT_instances.o (GetSystemTimeLow)
C:\Program Files (x86)\ETAS\INTECRIO5.0\Target\Etarget\ES910\libes910.a(t_watchdog.o)
                              C:\Program Files (x86)\ETAS\INTECRIO5.0\Target\Etarget\ES910\libes910.a(t_main.o) (wdSetApplicationName)
C:\Program Files (x86)\ETAS\INTECRIO5.0\Target\Etarget\ES910\libes910.a(p_chario.o)
                              C:\Program Files (x86)\ETAS\INTECRIO5.0\Target\Etarget\ES910\libes910.a(t_main.o) (IOLogOn)
C:\Program Files (x86)\ETAS\INTECRIO5.0\Target\Etarget\ES910\libes910.a(t_hwTimeSync.o)
                              C:\Program Files (x86)\ETAS\INTECRIO5.0\Target\Etarget\ES910\libes910.a(t_main.o) (es9xxTimeSyncInit)
C:\Program Files (x86)\ETAS\INTECRIO5.0\Target\Etarget\ES910\libes910.a(t_led.o)
                              C:\Program Files (x86)\ETAS\INTECRIO5.0\Target\Etarget\ES910\libes910.a(t_main.o) (ledsOff)
C:\Program Files (x86)\ETAS\INTECRIO5.0\Target\Etarget\ES910\libtarget.a(a_dacqui.o)
                              C:\Program Files (x86)\ETAS\INTECRIO5.0\Target\Etarget\ES910\libes910.a(i_rtautil.o) (getLogSimulationTime)
C:\Program Files (x86)\ETAS\INTECRIO5.0\Target\Etarget\ES910\libtarget.a(a_l1pro.o)
                              C:\Program Files (x86)\ETAS\INTECRIO5.0\Target\Etarget\ES910\libes910.a(t_l1com.o) (forwardToProcess)
C:\Program Files (x86)\ETAS\INTECRIO5.0\Target\Etarget\ES910\libtarget.a(a_primit.o)
                              C:\Program Files (x86)\ETAS\INTECRIO5.0\Target\Etarget\ES910\libtarget.a(a_dacqui.o) (getBasicType)
C:\Program Files (x86)\ETAS\INTECRIO5.0\Target\Etarget\ES910\libtarget.a(a_sysver.o)
                              C:\Program Files (x86)\ETAS\INTECRIO5.0\Target\Etarget\ES910\libes910.a(t_l1com.o) (getSystemLibCid)
C:\Program Files (x86)\ETAS\INTECRIO5.0\Target\Etarget\ES910\libtarget.a(a_targma.o)
                              C:\Program Files (x86)\ETAS\INTECRIO5.0\Target\Etarget\ES910\libes910.a(t_main.o) (setTargetL1BufferSize)
C:\Program Files (x86)\ETAS\INTECRIO5.0\Target\Etarget\ES910\libtarget.a(i_cpyfnc.o)
                              CBC/CopyFunctionTable.o (copyPlainToFloat)
C:\Program Files (x86)\ETAS\INTECRIO5.0\Target\Etarget\ES910\libtarget.a(i_mapfnc.o)
                              ETC/MappingFunctionTable.o (var2BufGenFrameMotorolaReal32)
C:\Program Files (x86)\ETAS\INTECRIO5.0\Target\Etarget\ES910\libtarget.a(i_osman.o)
                              OSC/osc_dyn.o (etasInitOsProcess)
C:\Program Files (x86)\ETAS\INTECRIO5.0\Target\Etarget\ES910\libtarget.a(i_rtioma.o)
                              C:\Program Files (x86)\ETAS\INTECRIO5.0\Target\Etarget\ES910\libes910.a(t_main.o) (rtioSetLogPort)
C:\Program Files (x86)\ETAS\INTECRIO5.0\Target\Etarget\ES910\libtarget.a(i_salone.o)
                              C:\Program Files (x86)\ETAS\INTECRIO5.0\Target\Etarget\ES910\libtarget.a(i_osman.o) (playbackConfigL1Records)
C:\Program Files (x86)\ETAS\INTECRIO5.0\Target\Etarget\ES910\libtarget.a(t_croman.o)
                              C:\Program Files (x86)\ETAS\INTECRIO5.0\Target\Etarget\ES910\libes910.a(t_main.o) (crossbarSetLogPort)
C:\Program Files (x86)\ETAS\INTECRIO5.0\Target\Etarget\ES910\libtarget.a(t_crosll.o)
                              C:\Program Files (x86)\ETAS\INTECRIO5.0\Target\Etarget\ES910\libtarget.a(t_croman.o) (internalDeleteCopyAction)
C:\Program Files (x86)\ETAS\INTECRIO5.0\Target\Etarget\ES910\libtarget.a(t_nvram.o)
                              C:\Program Files (x86)\ETAS\INTECRIO5.0\Target\Etarget\ES910\libes910.a(t_idle.o) (nvramUpdateMemoryBackground)
C:\Program Files (x86)\ETAS\INTECRIO5.0\Target\Etarget\ES910\libtarget.a(t_objlis.o)
                              C:\Program Files (x86)\ETAS\INTECRIO5.0\Target\Etarget\ES910\libtarget.a(t_nvram.o) (createObjList)
C:\Program Files (x86)\ETAS\INTECRIO5.0\Target\Etarget\ES910\libtarget.a(t_rtcros.o)
                              C:\Program Files (x86)\ETAS\INTECRIO5.0\Target\Etarget\ES910\libes910.a(t_main.o) (rtcrosSetLogPort)
C:\Program Files (x86)\ETAS\INTECRIO5.0\Target\Etarget\ES910\libtarget.a(t_sgman.o)
                              OSC/TaskISRArchive.a(etasConfigTask.o) (sgHook)
C:\Program Files (x86)\ETAS\INTECRIO5.0\Target\Etarget\ES910\libtarget.a(y_primit.o)
                              SoC0/SoC_instances.o (initInstance_matrixWrapper)
C:\Program Files (x86)\ETAS\INTECRIO5.0\Target\Etarget\ES910\libtarget.a(a1b_dacq.o)
                              C:\Program Files (x86)\ETAS\INTECRIO5.0\Target\Etarget\ES910\libtarget.a(a_dacqui.o) (storeA1bDataForGroup)
C:\Program Files (x86)\ETAS\INTECRIO5.0\Target\Etarget\ES910\libtarget.a(a_contai.o)
                              C:\Program Files (x86)\ETAS\INTECRIO5.0\Target\Etarget\ES910\libtarget.a(i_rtioma.o) (dListRewindHead)
C:\Program Files (x86)\ETAS\INTECRIO5.0\Target\Etarget\ES910\libtarget.a(i_transf.o)
                              C:\Program Files (x86)\ETAS\INTECRIO5.0\Target\Etarget\ES910\libtarget.a(t_crosll.o) (crossbarTransferFuncTable)
C:\Program Files (x86)\ETAS\INTECRIO5.0\Target\Etarget\ES910\libtarget.a(t_sglow.o)
                              C:\Program Files (x86)\ETAS\INTECRIO5.0\Target\Etarget\ES910\libtarget.a(t_sgman.o) (getChannelNr)
C:\Program Files (x86)\ETAS\INTECRIO5.0\Target\Etarget\rtio\global\es910\librtio_gnu.a(comm_err.o)
                              C:\Program Files (x86)\ETAS\INTECRIO5.0\Target\Etarget\ES910\libtarget.a(i_rtioma.o) (commErrMessages)
C:\Program Files (x86)\ETAS\INTECRIO5.0\Target\Etarget\rtio\global\es910\librtio_gnu.a(p_rtio.o)
                              C:\Program Files (x86)\ETAS\INTECRIO5.0\Target\Etarget\ES910\libes910.a(t_main.o) (rtioSignalHwAccessEnd)
C:\Program Files (x86)\ETAS\INTECRIO5.0\Target\Etarget\rtio\global\es910\librtio_gnu.a(p_rtio_s.o)
                              C:\Program Files (x86)\ETAS\INTECRIO5.0\Target\Etarget\ES910\libes910.a(t_hwTimeSync.o) (es910RtioGetFpgaRegsGlobal)
C:\Program Files (x86)\ETAS\INTECRIO5.0\Target\Etarget\rtio\global\es910\librtio_gnu.a(rtio_err.o)
                              C:\Program Files (x86)\ETAS\INTECRIO5.0\Target\Etarget\ES910\libtarget.a(i_rtioma.o) (installCommErrMessages)
C:\Program Files (x86)\ETAS\INTECRIO5.0\Target\Etarget\rtio\global\es910\librtio_gnu.a(fhc_emu.o)
                              C:\Program Files (x86)\ETAS\INTECRIO5.0\Target\Etarget\rtio\global\es910\librtio_gnu.a(p_rtio_s.o) (fhc_get_module_name_port_name)
C:\Program Files (x86)\ETAS\INTECRIO5.0\Target\Etarget\ES910\rta_osek\librtk_s.a(ostarget.o)
                              C:\Program Files (x86)\ETAS\INTECRIO5.0\Target\Etarget\ES910\libes910.a(t_watchdog.o) (os_get_sw_int_info)
C:\Program Files (x86)\ETAS\INTECRIO5.0\Target\Etarget\ES910\rta_osek\librtk_s.a(osfptgt.o)
                              OSC/osekdefs.o (os_fp_save)
C:\Program Files (x86)\ETAS\INTECRIO5.0\Target\Etarget\ES910\rta_osek\librtk_s.a(osiwrap1.o)
                              C:\Program Files (x86)\ETAS\INTECRIO5.0\Target\Etarget\ES910\rta_osek\librtk_s.a(ostarget.o) (os_cat1_wrapper)
C:\Program Files (x86)\ETAS\INTECRIO5.0\Target\Etarget\ES910\rta_osek\librtk_s.a(osxdspnf.o)
                              OSC/osekdefs.o (osek_dispatchN2F)
C:\Program Files (x86)\ETAS\INTECRIO5.0\Target\Etarget\ES910\rta_osek\librtk_s.a(osysd1hf.o)
                              OSC/osekdefs.o (os_fdispH1)
C:\Program Files (x86)\ETAS\INTECRIO5.0\Target\Etarget\ES910\rta_osek\librtk_s.a(osysdfhf.o)
                              OSC/osekdefs.o (os_fdispH2F)
C:\Program Files (x86)\ETAS\INTECRIO5.0\Target\Etarget\ES910\rta_osek\librtk_s.a(osysdfhi.o)
                              OSC/osekdefs.o (os_idispH2F)
C:\Program Files (x86)\ETAS\INTECRIO5.0\Target\Etarget\ES910\rta_osek\librtk_s.a(ostgid.o)
                              C:\Program Files (x86)\ETAS\INTECRIO5.0\Target\Etarget\ES910\libes910.a(i_rtautil.o) (GetTaskID)
C:\Program Files (x86)\ETAS\INTECRIO5.0\Target\Etarget\ES910\rta_osek\librtk_s.a(ostschf.o)
                              OSC/i_rtawrapper.o (ScheduleSW2F)
C:\Program Files (x86)\ETAS\INTECRIO5.0\Target\Etarget\ES910\rta_osek\librtk_s.a(osieai.o)
                              C:\Program Files (x86)\ETAS\INTECRIO5.0\Target\Etarget\ES910\libtarget.a(i_rtioma.o) (EnableAllInterrupts)
C:\Program Files (x86)\ETAS\INTECRIO5.0\Target\Etarget\ES910\rta_osek\librtk_s.a(osidai.o)
                              C:\Program Files (x86)\ETAS\INTECRIO5.0\Target\Etarget\ES910\libtarget.a(i_rtioma.o) (DisableAllInterrupts)
C:\Program Files (x86)\ETAS\INTECRIO5.0\Target\Etarget\ES910\rta_osek\librtk_s.a(osisoi.o)
                              OSC/osekdefs.o (SuspendOSInterrupts)
C:\Program Files (x86)\ETAS\INTECRIO5.0\Target\Etarget\ES910\rta_osek\librtk_s.a(osirai.o)
                              C:\Program Files (x86)\ETAS\INTECRIO5.0\Target\Etarget\ES910\libes910.a(i_rtautil.o) (ResumeAllInterrupts)
C:\Program Files (x86)\ETAS\INTECRIO5.0\Target\Etarget\ES910\rta_osek\librtk_s.a(osisai.o)
                              C:\Program Files (x86)\ETAS\INTECRIO5.0\Target\Etarget\ES910\libes910.a(i_rtautil.o) (SuspendAllInterrupts)
C:\Program Files (x86)\ETAS\INTECRIO5.0\Target\Etarget\ES910\rta_osek\librtk_s.a(osxperr2.o)
                              OSC/osekdefs.o (os_pre_errorhook2)
C:\Program Files (x86)\ETAS\INTECRIO5.0\Target\Etarget\ES910\rta_osek\librtk_s.a(osxglobs.o)
                              C:\Program Files (x86)\ETAS\INTECRIO5.0\Target\Etarget\ES910\rta_osek\librtk_s.a(osxperr2.o) (osek_in_error_hook)
C:\Program Files (x86)\ETAS\INTECRIO5.0\Target\Etarget\ES910\rta_osek\librtk_s.a(osostart.o)
                              C:\Program Files (x86)\ETAS\INTECRIO5.0\Target\Etarget\ES910\libes910.a(i_rtautil.o) (StartOS)
C:\Program Files (x86)\ETAS\INTECRIO5.0\Target\Etarget\ES910\rta_osek\librtk_s.a(ososhuth.o)
                              OSC/i_rtawrapper.o (ShutdownOSH)
C:\Program Files (x86)\ETAS\INTECRIO5.0\Target\Etarget\ES910\rta_osek\librtk_s.a(osttermh.o)
                              OSC/TaskISRArchive.a(etasConfigTask.o) (TerminateTaskH)
C:\Program Files (x86)\ETAS\INTECRIO5.0\Target\Etarget\ES910\rta_osek\librtk_s.a(ostactsf.o)
                              OSC/i_rtawrapper.o (ActivateTaskSW2F)
C:\Program Files (x86)\ETAS\INTECRIO5.0\Target\Etarget\ES910\rta_osek\librtk_s.a(ostactnf.o)
                              OSC/etasL1Isr.o (ActivateTaskNS2F)
C:\Program Files (x86)\ETAS\INTECRIO5.0\Target\Etarget\ES910\rta_osek\librtk_s.a(osatickn.o)
                              OSC/osekdefs.o (osek_tick_alarm)
C:\Program Files (x86)\ETAS\INTECRIO5.0\Target\Etarget\ES910\rta_osek\librtk_s.a(osacallb.o)
                              OSC/osekdefs.o (osek_alarm_callback)
C:\Program Files (x86)\ETAS\INTECRIO5.0\Target\Etarget\ES910\rta_osek\librtk_s.a(osxdpsho.o)
                              C:\Program Files (x86)\ETAS\INTECRIO5.0\Target\Etarget\ES910\rta_osek\librtk_s.a(osysdfhf.o) (os_pre_ShutdownOS)
C:\Program Files (x86)\ETAS\INTECRIO5.0\Target\Etarget\ES910\rta_osek\librtk_s.a(osiwrap.o)
                              C:\Program Files (x86)\ETAS\INTECRIO5.0\Target\Etarget\ES910\rta_osek\librtk_s.a(ostarget.o) (os_wrapper)
C:\Program Files (x86)\ETAS\INTECRIO5.0\Target\Etarget\ES910\rta_osek\librtk_s.a(osxjmp.o)
                              C:\Program Files (x86)\ETAS\INTECRIO5.0\Target\Etarget\ES910\rta_osek\librtk_s.a(osysd1hf.o) (os_setjmp)
C:\Program Files (x86)\ETAS\INTECRIO5.0\Target\Etarget\ES910\rta_osek\librtk_s.a(ososhutn.o)
                              C:\Program Files (x86)\ETAS\INTECRIO5.0\Target\Etarget\ES910\rta_osek\librtk_s.a(osxdpsho.o) (ShutdownOSN)
C:\Program Files (x86)\ETAS\INTECRIO5.0\Target\Etarget\ES910\libcommon.a(p_execl1.o)
                              C:\Program Files (x86)\ETAS\INTECRIO5.0\Target\Etarget\ES910\libtarget.a(a_targma.o) (getNumberOfMethods)
C:\Program Files (x86)\ETAS\INTECRIO5.0\Target\Etarget\ES910\libcommon.a(p_protl1.o)
                              C:\Program Files (x86)\ETAS\INTECRIO5.0\Target\Etarget\ES910\libes910.a(t_l1com.o) (newL1Message)
C:\Program Files (x86)\ETAS\INTECRIO5.0\Target\Etarget\ES910\libcommon.a(p_stdeb.o)
                              C:\Program Files (x86)\ETAS\INTECRIO5.0\Target\Etarget\ES910\libtarget.a(a_targma.o) (asdClearString)
Car_State1/Car_State1.a(Car_State_main.o)
                              OSC/osc_dyn.o (irt_Terminate_Car_State)
Car_State1/Car_State1.a(rt_sim.o)
                              Car_State1/Car_State1.a(Car_State_main.o) (rt_SimInitTimingEngine_Car_State)
Disconnections1/Disconnections1.a(Disconnections_main.o)
                              OSC/osc_dyn.o (irt_Terminate_Disconnections)
Disconnections1/Disconnections1.a(rt_sim.o)
                              Disconnections1/Disconnections1.a(Disconnections_main.o) (rt_SimInitTimingEngine_Disconnections)
Ellipse1/Ellipse1.a(Ellipse_main.o)
                              OSC/osc_dyn.o (irt_Terminate_Ellipse)
Ellipse1/Ellipse1.a(rt_sim.o)
                              Ellipse1/Ellipse1.a(Ellipse_main.o) (rt_SimInitTimingEngine_Ellipse)
Inverters_Action1/Inverters_Action1.a(Inverters_Action_main.o)
                              OSC/osc_dyn.o (irt_Terminate_Inverters_Action)
Inverters_Action1/Inverters_Action1.a(rt_sim.o)
                              Inverters_Action1/Inverters_Action1.a(Inverters_Action_main.o) (rt_SimInitTimingEngine_Inverters_Action)
Inverters_Data1/Inverters_Data1.a(Inverters_Data_main.o)
                              OSC/osc_dyn.o (irt_Terminate_Inverters_Data)
Inverters_Data1/Inverters_Data1.a(rt_sim.o)
                              Inverters_Data1/Inverters_Data1.a(Inverters_Data_main.o) (rt_SimInitTimingEngine_Inverters_Data)
Power_Control1/Power_Control1.a(Power_Control_main.o)
                              OSC/osc_dyn.o (irt_Terminate_Power_Control)
Power_Control1/Power_Control1.a(rt_sim.o)
                              Power_Control1/Power_Control1.a(Power_Control_main.o) (rt_SimInitTimingEngine_Power_Control)
Sensors1/Sensors1.a(Sensors_main.o)
                              OSC/osc_dyn.o (irt_Terminate_Sensors)
Sensors1/Sensors1.a(rt_sim.o)
                              Sensors1/Sensors1.a(Sensors_main.o) (rt_SimInitTimingEngine_Sensors)
Synchronism1/Synchronism1.a(Synchronism_main.o)
                              OSC/osc_dyn.o (irt_Terminate_Synchronism)
Synchronism1/Synchronism1.a(rt_sim.o)
                              Synchronism1/Synchronism1.a(Synchronism_main.o) (rt_SimInitTimingEngine_Synchronism)
VDC1/VDC1.a(VDC_main.o)       OSC/osc_dyn.o (irt_Terminate_VDC)
VDC1/VDC1.a(rt_sim.o)         VDC1/VDC1.a(VDC_main.o) (rt_SimInitTimingEngine_VDC)
SoC1/SoC1.a(SoC_main.o)       OSC/osc_dyn.o (irt_Terminate_SoC)
SoC1/SoC1.a(rt_sim.o)         SoC1/SoC1.a(SoC_main.o) (rt_SimInitTimingEngine_SoC)
C:/Program Files (x86)/ETAS/INTECRIO5.0/Target/ETarget/rtio/es9xxcan/ES910/es9xxCan_gnu.lib(es9xxCan.o)
                              ETC/DriverTable.o (CanIRQ0MultiAnalyze)
C:/Program Files (x86)/ETAS/INTECRIO5.0/Target/ETarget/rtio/es9xxcan/ES910/es9xxCan_gnu.lib(es9xxCanCanio.o)
                              C:/Program Files (x86)/ETAS/INTECRIO5.0/Target/ETarget/rtio/es9xxcan/ES910/es9xxCan_gnu.lib(es9xxCan.o) (es9xxCanCanioExit)
C:/Program Files (x86)/ETAS/INTECRIO5.0/Target/ETarget/rtio/es9xxcan/ES910/es9xxCan_gnu.lib(es9xxCanErr.o)
                              C:/Program Files (x86)/ETAS/INTECRIO5.0/Target/ETarget/rtio/es9xxcan/ES910/es9xxCan_gnu.lib(es9xxCan.o) (es9xxCanErrMessages)
C:/Program Files (x86)/ETAS/INTECRIO5.0/Target/ETarget/rtio/es9xxcan/ES910/es9xxCan_gnu.lib(es9xxCanHalBuf.o)
                              C:/Program Files (x86)/ETAS/INTECRIO5.0/Target/ETarget/rtio/es9xxcan/ES910/es9xxCan_gnu.lib(es9xxCan.o) (es9xxCanHalBufIrqAck)
C:/Program Files (x86)/ETAS/INTECRIO5.0/Target/ETarget/rtio/es9xxcan/ES910/es9xxCan_gnu.lib(es9xxCanHalIfi.o)
                              C:/Program Files (x86)/ETAS/INTECRIO5.0/Target/ETarget/rtio/es9xxcan/ES910/es9xxCan_gnu.lib(es9xxCan.o) (es9xxCanHalIfiDetectHW)
C:/ETAS/Compiler/INTECRIO5.0/QNXCompiler-V6.5\host\win32\x86/usr/lib/gcc/powerpc-unknown-nto-qnx6.5.0/4.4.2/spe/libgcc.a(_floatdidf.o)
                              C:\Program Files (x86)\ETAS\INTECRIO5.0\Target\Etarget\ES910\libtarget.a(i_mapfnc.o) (__floatdidf)
C:\Program Files (x86)\ETAS\INTECRIO5.0\Target\Etarget\ES910\libes910.a(t_dataset.o)
                              C:\Program Files (x86)\ETAS\INTECRIO5.0\Target\Etarget\ES910\libtarget.a(a_targma.o) (dsetGetErrorString)
C:\Program Files (x86)\ETAS\INTECRIO5.0\Target\Etarget\ES910\libtarget.a(crc32.o)
                              C:\Program Files (x86)\ETAS\INTECRIO5.0\Target\Etarget\ES910\libes910.a(t_dataset.o) (update_crc_32)

Allocating common symbols
Common symbol       size              file

os_stack_base       0x4               C:\Program Files (x86)\ETAS\INTECRIO5.0\Target\Etarget\ES910\rta_osek\librtk_s.a(ostarget.o)
ptrthread6Dtm       0x4               OSC/DriverThreads.o
ptrthread17Dtm      0x4               OSC/DriverThreads.o
os_highest_sigmask  0x8               C:\Program Files (x86)\ETAS\INTECRIO5.0\Target\Etarget\ES910\rta_osek\librtk_s.a(ostarget.o)
osek_suspend_all_prev
                    0x4               C:\Program Files (x86)\ETAS\INTECRIO5.0\Target\Etarget\ES910\rta_osek\librtk_s.a(osisai.o)
ptrthread12Dtm      0x4               OSC/DriverThreads.o
ptrthread24Dtm      0x4               OSC/DriverThreads.o
ptrthread19Dtm      0x4               OSC/DriverThreads.o
VDC_B               0xa8              VDC1/VDC1.a(VDC.o)
ptrthread4Dtm       0x4               OSC/DriverThreads.o
os_os_sigmask       0x8               C:\Program Files (x86)\ETAS\INTECRIO5.0\Target\Etarget\ES910\rta_osek\librtk_s.a(ostarget.o)
Synchronism_DW      0x8               Synchronism1/Synchronism1.a(Synchronism.o)
os_user_sigmask     0x8               C:\Program Files (x86)\ETAS\INTECRIO5.0\Target\Etarget\ES910\rta_osek\librtk_s.a(ostarget.o)
Inverters_Data_Y    0x70              Inverters_Data1/Inverters_Data1.a(Inverters_Data.o)
ptrthread10Dtm      0x4               OSC/DriverThreads.o
Inverters_Data_U    0x50              Inverters_Data1/Inverters_Data1.a(Inverters_Data.o)
ptrthreadEtasL1TaskDtm
                    0x4               OSC/DriverThreads.o
osek_suspend_prev   0x4               C:\Program Files (x86)\ETAS\INTECRIO5.0\Target\Etarget\ES910\rta_osek\librtk_s.a(osisoi.o)
rtInfF              0x4               matlabsharedR2023b/matlabsharedR2023b.a(rt_nonfinite.o)
Car_State_B         0x18              Car_State1/Car_State1.a(Car_State.o)
Power_Control_DW    0xa8              Power_Control1/Power_Control1.a(Power_Control.o)
ptrthread9Dtm       0x4               OSC/DriverThreads.o
rtaOsekThreadPrio   0x4               C:\Program Files (x86)\ETAS\INTECRIO5.0\Target\Etarget\ES910\libes910.a(t_main.o)
SoC_B               0x268             SoC1/SoC1.a(SoC.o)
ptrthread15Dtm      0x4               OSC/DriverThreads.o
Sensors_DW          0x10              Sensors1/Sensors1.a(Sensors.o)
ptrthread7Dtm       0x4               OSC/DriverThreads.o
rtNaN               0x8               matlabsharedR2023b/matlabsharedR2023b.a(rt_nonfinite.o)
ptrthread29Dtm      0x4               OSC/DriverThreads.o
ptrthread1Dtm       0x4               OSC/DriverThreads.o
rtNaNF              0x4               matlabsharedR2023b/matlabsharedR2023b.a(rt_nonfinite.o)
VDC_U               0xe0              VDC1/VDC1.a(VDC.o)
ptrthread13Dtm      0x4               OSC/DriverThreads.o
ptrthread22Dtm      0x4               OSC/DriverThreads.o
VDC_Y               0x50              VDC1/VDC1.a(VDC.o)
ptrthread20Dtm      0x4               OSC/DriverThreads.o
rtMinusInf          0x8               matlabsharedR2023b/matlabsharedR2023b.a(rt_nonfinite.o)
SoC_DW              0x30              SoC1/SoC1.a(SoC.o)
Disconnections_DW   0x38              Disconnections1/Disconnections1.a(Disconnections.o)
Inverters_Action_DW
                    0x30              Inverters_Action1/Inverters_Action1.a(Inverters_Action.o)
Car_State_DW        0x18              Car_State1/Car_State1.a(Car_State.o)
rtInf               0x8               matlabsharedR2023b/matlabsharedR2023b.a(rt_nonfinite.o)
VDC_DW              0x38              VDC1/VDC1.a(VDC.o)
userS               0x100             C:\Program Files (x86)\ETAS\INTECRIO5.0\Target\Etarget\ES910\libtarget.a(a_primit.o)
ptrthread18Dtm      0x4               OSC/DriverThreads.o
Inverters_Action_B  0x5               Inverters_Action1/Inverters_Action1.a(Inverters_Action.o)
ptrthreadEtasConfigTaskDtm
                    0x4               OSC/DriverThreads.o
ptrthread27Dtm      0x4               OSC/DriverThreads.o
Ellipse_B           0x8               Ellipse1/Ellipse1.a(Ellipse.o)
ptrthread25Dtm      0x4               OSC/DriverThreads.o
ptrthread11Dtm      0x4               OSC/DriverThreads.o
ptrthread3Dtm       0x4               OSC/DriverThreads.o
ptrthread5Dtm       0x4               OSC/DriverThreads.o
SoC_U               0x28              SoC1/SoC1.a(SoC.o)
SoC_Y               0x20              SoC1/SoC1.a(SoC.o)
Disconnections_Y    0x78              Disconnections1/Disconnections1.a(Disconnections.o)
SoC_XDis            0x3c              SoC1/SoC1.a(SoC.o)
rtMinusInfF         0x4               matlabsharedR2023b/matlabsharedR2023b.a(rt_nonfinite.o)
Disconnections_U    0x78              Disconnections1/Disconnections1.a(Disconnections.o)
Inverters_Data_DW   0x20              Inverters_Data1/Inverters_Data1.a(Inverters_Data.o)
Power_Control_B     0x20              Power_Control1/Power_Control1.a(Power_Control.o)
ptrthreadEtasIsrDtm
                    0x4               OSC/DriverThreads.o
os_current_ipl      0x4               C:\Program Files (x86)\ETAS\INTECRIO5.0\Target\Etarget\ES910\rta_osek\librtk_s.a(ostarget.o)
Disconnections_B    0x68              Disconnections1/Disconnections1.a(Disconnections.o)
os_sigmasks         0x88              C:\Program Files (x86)\ETAS\INTECRIO5.0\Target\Etarget\ES910\rta_osek\librtk_s.a(ostarget.o)
ptrthread8Dtm       0x4               OSC/DriverThreads.o
ptrthread0Dtm       0x4               OSC/DriverThreads.o
osek_cur_mode       0x4               C:\Program Files (x86)\ETAS\INTECRIO5.0\Target\Etarget\ES910\rta_osek\librtk_s.a(osxglobs.o)
Power_Control_U     0x40              Power_Control1/Power_Control1.a(Power_Control.o)
ptrthread2Dtm       0x4               OSC/DriverThreads.o
Power_Control_Y     0x28              Power_Control1/Power_Control1.a(Power_Control.o)
etasResMgrIdT       0x4               C:\Program Files (x86)\ETAS\INTECRIO5.0\Target\Etarget\ES910\libes910.a(t_l1com.o)
ptrthread28Dtm      0x4               OSC/DriverThreads.o
ptrthread16Dtm      0x4               OSC/DriverThreads.o
ptrthread23Dtm      0x4               OSC/DriverThreads.o
ptrthread14Dtm      0x4               OSC/DriverThreads.o
Car_State_Y         0x50              Car_State1/Car_State1.a(Car_State.o)
Sensors_Y           0x40              Sensors1/Sensors1.a(Sensors.o)
Ellipse_Y           0x10              Ellipse1/Ellipse1.a(Ellipse.o)
osek_all_prev       0x4               C:\Program Files (x86)\ETAS\INTECRIO5.0\Target\Etarget\ES910\rta_osek\librtk_s.a(osidai.o)
Sensors_U           0x50              Sensors1/Sensors1.a(Sensors.o)
SoC_X               0x1e0             SoC1/SoC1.a(SoC.o)
Car_State_U         0x50              Car_State1/Car_State1.a(Car_State.o)
os_serviceArgs      0xc               OSC/osekdefs.o
osek_running_task   0x4               C:\Program Files (x86)\ETAS\INTECRIO5.0\Target\Etarget\ES910\rta_osek\librtk_s.a(osxglobs.o)
ptrthread21Dtm      0x4               OSC/DriverThreads.o
Synchronism_Y       0x10              Synchronism1/Synchronism1.a(Synchronism.o)
Ellipse_U           0x80              Ellipse1/Ellipse1.a(Ellipse.o)
Inverters_Action_U  0x18              Inverters_Action1/Inverters_Action1.a(Inverters_Action.o)
Inverters_Action_Y  0x7               Inverters_Action1/Inverters_Action1.a(Inverters_Action.o)
ptrthread26Dtm      0x4               OSC/DriverThreads.o
os_serviceId        0x4               OSC/osekdefs.o

Memory Configuration

Name             Origin             Length             Attributes
*default*        0x00000000         0xffffffff

Linker script and memory map

LOAD C:/ETAS/Compiler/INTECRIO5.0/QNXCompiler-V6.5\target\qnx6/ppcbe-spe/lib/crt1.o
LOAD C:/ETAS/Compiler/INTECRIO5.0/QNXCompiler-V6.5\target\qnx6/ppcbe-spe/lib/crti.o
LOAD C:/ETAS/Compiler/INTECRIO5.0/QNXCompiler-V6.5\host\win32\x86/usr/lib/gcc/powerpc-unknown-nto-qnx6.5.0/4.4.2/spe/crtbegin.o
LOAD C:\ETAS\Compiler\INTECRIO5.0\QNXCompiler-V6.5\target\qnx6\ppcbe-spe\lib\gcc\4.4.2/libcpp.so
                0x00000000                PROVIDE (__stack, 0x0)
                0x00000000                PROVIDE (___stack, 0x0)
                0x48040000                PROVIDE (__executable_start, 0x48040000)
                0x480400f4                . = (0x48040000 + SIZEOF_HEADERS)

.interp         0x480400f4       0x14
 *(.interp)
 .interp        0x480400f4       0x14 C:/ETAS/Compiler/INTECRIO5.0/QNXCompiler-V6.5\target\qnx6/ppcbe-spe/lib/crt1.o

.note           0x48040110       0x18
 .note          0x48040110       0x18 C:/ETAS/Compiler/INTECRIO5.0/QNXCompiler-V6.5\target\qnx6/ppcbe-spe/lib/crtn.o

.note.gnu.build-id
 *(.note.gnu.build-id)

.hash           0x48040128      0x6a0
 *(.hash)
 .hash          0x48040128      0x6a0 C:/ETAS/Compiler/INTECRIO5.0/QNXCompiler-V6.5\target\qnx6/ppcbe-spe/lib/crt1.o

.gnu.hash
 *(.gnu.hash)

.dynsym         0x480407c8      0xe10
 *(.dynsym)
 .dynsym        0x480407c8      0xe10 C:/ETAS/Compiler/INTECRIO5.0/QNXCompiler-V6.5\target\qnx6/ppcbe-spe/lib/crt1.o

.dynstr         0x480415d8      0xbca
 *(.dynstr)
 .dynstr        0x480415d8      0xbca C:/ETAS/Compiler/INTECRIO5.0/QNXCompiler-V6.5\target\qnx6/ppcbe-spe/lib/crt1.o

.gnu.version    0x480421a2      0x1c2
 *(.gnu.version)
 .gnu.version   0x480421a2      0x1c2 C:/ETAS/Compiler/INTECRIO5.0/QNXCompiler-V6.5\target\qnx6/ppcbe-spe/lib/crt1.o

.gnu.version_d  0x48042364        0x0
 *(.gnu.version_d)
 .gnu.version_d
                0x00000000        0x0 C:/ETAS/Compiler/INTECRIO5.0/QNXCompiler-V6.5\target\qnx6/ppcbe-spe/lib/crt1.o

.gnu.version_r  0x48042364       0x20
 *(.gnu.version_r)
 .gnu.version_r
                0x48042364       0x20 C:/ETAS/Compiler/INTECRIO5.0/QNXCompiler-V6.5\target\qnx6/ppcbe-spe/lib/crt1.o

.rel.dyn
 *(.rel.init)
 *(.rel.text .rel.text.* .rel.gnu.linkonce.t.*)
 *(.rel.fini)
 *(.rel.rodata .rel.rodata.* .rel.gnu.linkonce.r.*)
 *(.rel.data.rel.ro* .rel.gnu.linkonce.d.rel.ro.*)
 *(.rel.data .rel.data.* .rel.gnu.linkonce.d.*)
 *(.rel.tdata .rel.tdata.* .rel.gnu.linkonce.td.*)
 *(.rel.tbss .rel.tbss.* .rel.gnu.linkonce.tb.*)
 *(.rel.ctors)
 *(.rel.dtors)
 *(.rel.got)
 *(.rel.sdata .rel.sdata.* .rel.gnu.linkonce.s.*)
 *(.rel.sbss .rel.sbss.* .rel.gnu.linkonce.sb.*)
 *(.rel.sdata2 .rel.sdata2.* .rel.gnu.linkonce.s2.*)
 *(.rel.sbss2 .rel.sbss2.* .rel.gnu.linkonce.sb2.*)
 *(.rel.bss .rel.bss.* .rel.gnu.linkonce.b.*)

.rela.dyn       0x48042384       0x90
 *(.rela.init)
 *(.rela.text .rela.text.* .rela.gnu.linkonce.t.*)
 .rela.text     0x00000000        0x0 C:/ETAS/Compiler/INTECRIO5.0/QNXCompiler-V6.5\target\qnx6/ppcbe-spe/lib/crt1.o
 *(.rela.fini)
 *(.rela.rodata .rela.rodata.* .rela.gnu.linkonce.r.*)
 .rela.rodata.cst4
                0x00000000        0x0 C:/ETAS/Compiler/INTECRIO5.0/QNXCompiler-V6.5\target\qnx6/ppcbe-spe/lib/crt1.o
 .rela.rodata   0x00000000        0x0 C:/ETAS/Compiler/INTECRIO5.0/QNXCompiler-V6.5\target\qnx6/ppcbe-spe/lib/crt1.o
 *(.rela.data .rela.data.* .rela.gnu.linkonce.d.*)
 .rela.data     0x00000000        0x0 C:/ETAS/Compiler/INTECRIO5.0/QNXCompiler-V6.5\target\qnx6/ppcbe-spe/lib/crt1.o
 *(.rela.tdata .rela.tdata.* .rela.gnu.linkonce.td.*)
 *(.rela.tbss .rela.tbss.* .rela.gnu.linkonce.tb.*)
 *(.rela.ctors)
 *(.rela.dtors)
 *(.rela.got)
 .rela.got      0x48042384       0x30 C:/ETAS/Compiler/INTECRIO5.0/QNXCompiler-V6.5\target\qnx6/ppcbe-spe/lib/crt1.o
 *(.rela.got1)
 *(.rela.got2)
 *(.rela.sdata .rela.sdata.* .rela.gnu.linkonce.s.*)
 *(.rela.sbss .rela.sbss.* .rela.gnu.linkonce.sb.*)
 .rela.sbss     0x00000000        0x0 C:/ETAS/Compiler/INTECRIO5.0/QNXCompiler-V6.5\target\qnx6/ppcbe-spe/lib/crt1.o
 *(.rela.sdata2 .rela.sdata2.* .rela.gnu.linkonce.s2.*)
 *(.rela.sbss2 .rela.sbss2.* .rela.gnu.linkonce.sb2.*)
 *(.rela.bss .rela.bss.* .rela.gnu.linkonce.b.*)
 .rela.bss      0x480423b4       0x60 C:/ETAS/Compiler/INTECRIO5.0/QNXCompiler-V6.5\target\qnx6/ppcbe-spe/lib/crt1.o
 .rela.os_pid   0x00000000        0x0 C:/ETAS/Compiler/INTECRIO5.0/QNXCompiler-V6.5\target\qnx6/ppcbe-spe/lib/crt1.o
 .rela.os_intvec
                0x00000000        0x0 C:/ETAS/Compiler/INTECRIO5.0/QNXCompiler-V6.5\target\qnx6/ppcbe-spe/lib/crt1.o

.rel.plt
 *(.rel.plt)

.rela.plt       0x48042414      0x930
 *(.rela.plt)
 .rela.plt      0x48042414      0x930 C:/ETAS/Compiler/INTECRIO5.0/QNXCompiler-V6.5\target\qnx6/ppcbe-spe/lib/crt1.o

.init           0x48042d44       0x24
 *(.init)
 .init          0x48042d44        0xc C:/ETAS/Compiler/INTECRIO5.0/QNXCompiler-V6.5\target\qnx6/ppcbe-spe/lib/crti.o
                0x48042d44                _init
 .init          0x48042d50        0x4 C:/ETAS/Compiler/INTECRIO5.0/QNXCompiler-V6.5\host\win32\x86/usr/lib/gcc/powerpc-unknown-nto-qnx6.5.0/4.4.2/spe/crtbegin.o
 .init          0x48042d54        0x4 C:/ETAS/Compiler/INTECRIO5.0/QNXCompiler-V6.5\host\win32\x86/usr/lib/gcc/powerpc-unknown-nto-qnx6.5.0/4.4.2/spe/crtend.o
 .init          0x48042d58       0x10 C:/ETAS/Compiler/INTECRIO5.0/QNXCompiler-V6.5\target\qnx6/ppcbe-spe/lib/crtn.o

.text           0x48042d68    0x4ce40
                0x48042d68                _btext = .
 *(.text .stub .text.* .gnu.linkonce.t.*)
 .text          0x48042d68      0x118 C:/ETAS/Compiler/INTECRIO5.0/QNXCompiler-V6.5\target\qnx6/ppcbe-spe/lib/crt1.o
                0x48042d68                _start
 .text          0x48042e80        0x0 C:/ETAS/Compiler/INTECRIO5.0/QNXCompiler-V6.5\target\qnx6/ppcbe-spe/lib/crti.o
 .text          0x48042e80      0x1b8 C:/ETAS/Compiler/INTECRIO5.0/QNXCompiler-V6.5\host\win32\x86/usr/lib/gcc/powerpc-unknown-nto-qnx6.5.0/4.4.2/spe/crtbegin.o
 .text          0x48043038      0x24c ROOT_instances.o
                0x480431e0                initializeYukonModel
                0x48043088                getSystemTimeS
                0x48043050                getModelIdentificationString
                0x48043064                getDeltaT
                0x48043038                getIntecrioVersionNumber
                0x48043168                os_setDeltaT
                0x4804305c                getBuildEnvironment
                0x48043044                getBuildEnvironmentVersion
 .text          0x48043284        0x0 _INT_pid.pi.o
 .text          0x48043284       0x24 userFuncProcessCanPayload.o
                0x48043298                userCanInitHook
                0x480432a4                userCanTxHookV3
                0x4804329c                userCanExitHook
                0x48043284                userCanHookGetVersionAndCid
                0x480432a0                userCanRxHookV3
 .text          0x480432a8       0x24 userFuncProcessFlexRayPayload.o
                0x480432c8                userFlexRayPDURxHook
                0x480432c4                userFlexRayPDUTxHook
                0x480432a8                userFlexRayHookGetVersionAndCid
                0x480432bc                userFlexRayInitHook
                0x480432c0                userFlexRayExitHook
 .text          0x480432cc       0x60 OSC/i_rtawrapper.o
                0x4804330c                rtaActivateTask
                0x480432ec                rtaSchedule
                0x480432cc                rtaShutdownOS
 .text          0x4804332c      0x308 Car_State0/Car_State_instances.o
                0x480433d4                initClass_RTWTop_Car_State
                0x4804338c                initInstance_RTWTop_Car_State
                0x4804332c                setDeltaT_Car_State
                0x48043608                initModel_RTWTop_Car_State
 .text          0x48043634      0xd0c Car_State1/Car_State1.a(Car_State.o)
                0x48044120                MdlInitialize_Car_State
                0x48043648                Car_State_FALSE
                0x48043670                MdlOutputs_Car_State
                0x48044088                MdlUpdate_Car_State
                0x4804365c                Car_State_TqEnable
                0x48043634                Car_State_TRUE
                0x48044124                MdlStart_Car_State
                0x48044118                MdlInitializeSizes_Car_State
                0x4804411c                MdlInitializeSampleTimes_Car_State
                0x48044184                Car_State
                0x48044180                MdlTerminate_Car_State
 .text          0x48044340      0x550 Disconnections0/Disconnections_instances.o
                0x480443a0                initInstance_RTWTop_Disconnections
                0x48044864                initModel_RTWTop_Disconnections
                0x48044340                setDeltaT_Disconnections
                0x480443e8                initClass_RTWTop_Disconnections
 .text          0x48044890      0xd90 Disconnections1/Disconnections1.a(Disconnections.o)
                0x4804544c                MdlTerminate_Disconnections
                0x48045450                Disconnections
                0x48044900                Disconnectio_IfActionSubsystem3
                0x48044914                Disconnections_RigidAxle2024
                0x480453d4                MdlInitializeSampleTimes_Disconnections
                0x480448a4                Disconnections_Counting
                0x480453dc                MdlStart_Disconnections
                0x48044890                Disconnections_Reset_counter
                0x480453d0                MdlInitializeSizes_Disconnections
                0x48044928                MdlOutputs_Disconnections
                0x480453d8                MdlInitialize_Disconnections
                0x480448c0                Disconnections_CAN_OK
                0x48045358                MdlUpdate_Disconnections
                0x480448ec                Disconnection_IfActionSubsystem
 .text          0x48045620      0x298 Ellipse0/Ellipse_instances.o
                0x480456c8                initClass_RTWTop_Ellipse
                0x48045620                setDeltaT_Ellipse
                0x48045680                initInstance_RTWTop_Ellipse
                0x4804588c                initModel_RTWTop_Ellipse
 .text          0x480458b8      0x370 Ellipse1/Ellipse1.a(Ellipse.o)
                0x48045afc                MdlOutputs_Ellipse
                0x48045938                MdlInitialize_Ellipse
                0x48045930                MdlInitializeSizes_Ellipse
                0x480458b8                MdlUpdate_Ellipse
                0x48045958                MdlTerminate_Ellipse
                0x4804593c                MdlStart_Ellipse
                0x48045934                MdlInitializeSampleTimes_Ellipse
                0x4804595c                Ellipse
 .text          0x48045c28      0x3a0 Inverters_Action0/Inverters_Action_instances.o
                0x48045f9c                initModel_RTWTop_Inverters_Action
                0x48045c28                setDeltaT_Inverters_Action
                0x48045cd0                initClass_RTWTop_Inverters_Action
                0x48045c88                initInstance_RTWTop_Inverters_Action
 .text          0x48045fc8      0xcac Inverters_Action1/Inverters_Action1.a(Inverters_Action.o)
                0x48046134                MdlInitializeSizes_Inverters_Action
                0x4804613c                MdlInitialize_Inverters_Action
                0x4804618c                Inverters_Action
                0x48046140                MdlStart_Inverters_Action
                0x48045fc8                Inverters_Actio_EnumerationDone
                0x48046048                Inverters_Acti_ActionnotDefined
                0x48046070                Inverters_Action_TorqueCommand0
                0x480460a0                MdlUpdate_Inverters_Action
                0x48045ff0                Inverte_DisableDriveEnableDrive
                0x4804608c                Inverters_Acti_ResetEnumeration
                0x48046188                MdlTerminate_Inverters_Action
                0x48046138                MdlInitializeSampleTimes_Inverters_Action
                0x48046060                Inverters_Action_bypass
                0x48046684                MdlOutputs_Inverters_Action
                0x4804652c                Inverters_Action_TorqueCommand
                0x48046368                Inverters_Ac_RegisterEnumerator
                0x48045fdc                Inverters_Action_Unsubscribe
 .text          0x48046c74        0x0 Inverters_Action1/Inverters_Action1.a(Inverters_Action_data.o)
 .text          0x48046c74      0x354 Inverters_Data0/Inverters_Data_instances.o
                0x48046d1c                initClass_RTWTop_Inverters_Data
                0x48046cd4                initInstance_RTWTop_Inverters_Data
                0x48046c74                setDeltaT_Inverters_Data
                0x48046f9c                initModel_RTWTop_Inverters_Data
 .text          0x48046fc8      0x624 Inverters_Data1/Inverters_Data1.a(Inverters_Data.o)
                0x48047038                MdlUpdate_Inverters_Data
                0x480470b8                MdlInitialize_Inverters_Data
                0x48047024                Inverters_Data_Signal_OK
                0x480470e4                MdlTerminate_Inverters_Data
                0x48046fe4                Inverters_Data_CAN_OK
                0x4804728c                MdlOutputs_Inverters_Data
                0x48047010                Inverters_Data_Signal_Failure
                0x480470e8                Inverters_Data
                0x480470bc                MdlStart_Inverters_Data
                0x480470b4                MdlInitializeSampleTimes_Inverters_Data
                0x48046fc8                Inverters_Data_Error_Counter
                0x480470b0                MdlInitializeSizes_Inverters_Data
 .text          0x480475ec      0x290 Power_Control0/Power_Control_instances.o
                0x480475ec                setDeltaT_Power_Control
                0x4804764c                initInstance_RTWTop_Power_Control
                0x48047694                initClass_RTWTop_Power_Control
                0x48047850                initModel_RTWTop_Power_Control
 .text          0x4804787c      0xc68 Power_Control1/Power_Control1.a(Power_Control.o)
                0x480479d0                MdlTerminate_Power_Control
                0x480479d4                Power_Control
                0x4804796c                MdlInitializeSampleTimes_Power_Control
                0x480478f0                MdlUpdate_Power_Control
                0x480481f0                MdlOutputs_Power_Control
                0x48047968                MdlInitializeSizes_Power_Control
                0x48047bc0                Power_Co_MotorL_Temp_Limitation
                0x480478c0                Pow_MotorL_Temp_Limitation_Init
                0x48047974                MdlStart_Power_Control
                0x48047970                MdlInitialize_Power_Control
                0x4804787c                Power_Control_LimitReached
                0x48047ed8                Power_InverterL_Temp_Limitation
                0x48047890                InverterL_Temp_Limitation_Init
 .text          0x480484e4      0x358 Sensors0/Sensors_instances.o
                0x48048544                initInstance_RTWTop_Sensors
                0x48048810                initModel_RTWTop_Sensors
                0x480484e4                setDeltaT_Sensors
                0x4804858c                initClass_RTWTop_Sensors
 .text          0x4804883c      0x6ac Sensors1/Sensors1.a(Sensors.o)
                0x48048850                Sensors_IfActionSubsystem1
                0x48048d04                MdlInitializeSampleTimes_Sensors
                0x48048d2c                MdlTerminate_Sensors
                0x4804883c                Sensors_IfActionSubsystem
                0x4804886c                MdlOutputs_Sensors
                0x48048c88                MdlUpdate_Sensors
                0x48048d00                MdlInitializeSizes_Sensors
                0x48048d08                MdlInitialize_Sensors
                0x48048d0c                MdlStart_Sensors
                0x48048d30                Sensors
 .text          0x48048ee8        0x0 Sensors1/Sensors1.a(Sensors_data.o)
 .text          0x48048ee8      0x14c Synchronism0/Synchronism_instances.o
                0x48048f90                initClass_RTWTop_Synchronism
                0x48048f48                initInstance_RTWTop_Synchronism
                0x48049008                initModel_RTWTop_Synchronism
                0x48048ee8                setDeltaT_Synchronism
 .text          0x48049034      0x268 Synchronism1/Synchronism1.a(Synchronism.o)
                0x48049108                MdlInitializeSizes_Synchronism
                0x48049110                MdlInitialize_Synchronism
                0x48049114                MdlStart_Synchronism
                0x48049130                MdlTerminate_Synchronism
                0x48049134                Synchronism
                0x48049034                MdlOutputs_Synchronism
                0x48049090                MdlUpdate_Synchronism
                0x4804910c                MdlInitializeSampleTimes_Synchronism
 .text          0x4804929c      0x5f0 VDC0/VDC_instances.o
                0x480492fc                initInstance_RTWTop_VDC
                0x4804929c                setDeltaT_VDC
                0x48049860                initModel_RTWTop_VDC
                0x48049344                initClass_RTWTop_VDC
 .text          0x4804988c     0x22f8 VDC1/VDC1.a(VDC.o)
                0x48049ecc                MdlOutputs_VDC
                0x48049b90                VDC_IfActionSubsystem1
                0x48049930                VDC_RIGIDAXLE
                0x48049c3c                MdlInitialize_VDC
                0x4804988c                VDC_MATLABFunction
                0x48049bbc                MdlUpdate_VDC
                0x48049cfc                VDC
                0x48049c40                MdlStart_VDC
                0x48049c34                MdlInitializeSizes_VDC
                0x48049cf8                MdlTerminate_VDC
                0x48049a08                VDC_RigidAxlewithTC2024
                0x48049c38                MdlInitializeSampleTimes_VDC
                0x480499f4                VDC_RigidAxlewithTC2024_Init
                0x48049960                VDC_Torquedemandedbythedriver
                0x48049b50                VDC_IfActionSubsystem
 .text          0x4804bb84      0x364 SoC0/SoC_instances.o
                0x4804bbe4                initInstance_RTWTop_SoC
                0x4804bc2c                initClass_RTWTop_SoC
                0x4804bb84                setDeltaT_SoC
                0x4804bebc                initModel_RTWTop_SoC
 .text          0x4804bee8     0x2148 SoC1/SoC1.a(SoC.o)
                0x4804c6a0                SoC_uRC_Cell_H
                0x4804bee8                SoC_uRC_Cell_H_Update
                0x4804e010                MdlUpdate_SoC
                0x4804bf1c                rt_ODEDestroyIntegrationData_SoC
                0x4804bf18                rt_ODECreateIntegrationData_SoC
                0x4804bf2c                MdlInitialize_SoC
                0x4804bf28                MdlInitializeSampleTimes_SoC
                0x4804dce8                SoC_update
                0x4804c680                MdlStart_SoC
                0x4804c2dc                SoC_uRC_Cell_H_Deriv
                0x4804c428                SoC_uRC_Cell_H_Init
                0x4804bf20                rt_ODEUpdateContinuousStates_SoC
                0x4804dcc8                MdlOutputs_SoC
                0x4804c21c                SoC_uRC_Cell_H_Start
                0x4804bf14                SoC_terminate
                0x4804bf30                MdlTerminate_SoC
                0x4804bf24                MdlInitializeSizes_SoC
                0x4804c4fc                SoC_initialize
                0x4804d080                SoC_output
                0x4804c370                SoC_derivatives
                0x4804bf34                SoC
 .text          0x4804e030        0x0 SoC1/SoC1.a(SoC_data.o)
 .text          0x4804e030        0x0 matlabsharedR2023b/matlabsharedR2023b.a(const_params.o)
 .text          0x4804e030      0x114 matlabsharedR2023b/matlabsharedR2023b.a(look1_binlxpw.o)
                0x4804e030                look1_binlxpw
 .text          0x4804e144      0x220 matlabsharedR2023b/matlabsharedR2023b.a(look2_binlxpw.o)
                0x4804e144                look2_binlxpw
 .text          0x4804e364      0x19c matlabsharedR2023b/matlabsharedR2023b.a(rt_nonfinite.o)
                0x4804e46c                rt_InitInfAndNaN
                0x4804e3f0                rtIsNaN
                0x4804e444                rtIsNaNF
                0x4804e3b0                rtIsInfF
                0x4804e364                rtIsInf
 .text          0x4804e500       0xd0 matlabsharedR2023b/matlabsharedR2023b.a(rtgetinf.o)
                0x4804e500                rtGetInf
                0x4804e568                rtGetMinusInf
                0x4804e5c4                rtGetMinusInfF
                0x4804e55c                rtGetInfF
 .text          0x4804e5d0       0x84 matlabsharedR2023b/matlabsharedR2023b.a(rtgetnan.o)
                0x4804e630                rtGetNaNF
                0x4804e5d0                rtGetNaN
 .text          0x4804e654      0x434 OSC/osekdefs.o
                0x4804e974                osE_ISR_CAN2
                0x4804e714                os_StartOS
                0x4804e800                os_pre_errorhook
                0x4804e9d0                osE_ISR_CAN1
                0x4804e820                Tick_etasCounter
                0x4804e954                osek_dispatch
                0x4804e654                osResetOS
                0x4804ea2c                osE_etasL1Isr
 .text          0x4804ea88        0x0 OSC/osgen.o
 .text          0x4804ea88       0x4c OSC/TaskISRArchive.a(etasConfigTask.o)
                0x4804ea88                osek_task_e_etasConfigTask
 .text          0x4804ead4       0x60 OSC/TaskISRArchive.a(Sync_25ms.o)
                0x4804ead4                osek_task_e_Sync_25ms
 .text          0x4804eb34       0x54 OSC/TaskISRArchive.a(Timer_1000ms.o)
                0x4804eb34                osek_task_e_Timer_1000ms
 .text          0x4804eb88       0x54 OSC/TaskISRArchive.a(Timer_100ms.o)
                0x4804eb88                osek_task_e_Timer_100ms
 .text          0x4804ebdc       0xa8 OSC/TaskISRArchive.a(Timer_25ms.o)
                0x4804ebdc                osek_task_e_Timer_25ms
 .text          0x4804ec84       0x6c OSC/TaskISRArchive.a(Timer_Inv.o)
                0x4804ec84                osek_task_e_Timer_Inv
 .text          0x4804ecf0       0x50 OSC/TaskISRArchive.a(SWT_CAN1_AP_BMS_SDC.o)
                0x4804ecf0                osek_task_e_SWT_CAN1_AP_BMS_SDC
 .text          0x4804ed40       0x50 OSC/TaskISRArchive.a(SWT_CAN1_AP_CurrentSensor.o)
                0x4804ed40                osek_task_e_SWT_CAN1_AP_CurrentSensor
 .text          0x4804ed90       0x50 OSC/TaskISRArchive.a(SWT_CAN1_AP_BMS_Voltages.o)
                0x4804ed90                osek_task_e_SWT_CAN1_AP_BMS_Voltages
 .text          0x4804ede0       0x50 OSC/TaskISRArchive.a(SWT_CAN1_AP_BMS_ChargerParameters.o)
                0x4804ede0                osek_task_e_SWT_CAN1_AP_BMS_ChargerParameters
 .text          0x4804ee30       0x50 OSC/TaskISRArchive.a(SWT_CAN1_AP_BMS_Temperatures.o)
                0x4804ee30                osek_task_e_SWT_CAN1_AP_BMS_Temperatures
 .text          0x4804ee80       0x50 OSC/TaskISRArchive.a(SWT_CAN1_AP_Inverter_R_Tx.o)
                0x4804ee80                osek_task_e_SWT_CAN1_AP_Inverter_R_Tx
 .text          0x4804eed0       0x50 OSC/TaskISRArchive.a(SWT_CAN1_AP_Inverter_L_Tx.o)
                0x4804eed0                osek_task_e_SWT_CAN1_AP_Inverter_L_Tx
 .text          0x4804ef20       0x50 OSC/TaskISRArchive.a(SWT_CAN1_AP_DASH_Mode.o)
                0x4804ef20                osek_task_e_SWT_CAN1_AP_DASH_Mode
 .text          0x4804ef70       0x50 OSC/TaskISRArchive.a(SWT_CAN1_NM_BMS_Keep_Alive.o)
                0x4804ef70                osek_task_e_SWT_CAN1_NM_BMS_Keep_Alive
 .text          0x4804efc0       0x50 OSC/TaskISRArchive.a(SWT_CAN1_AP_BMS_AIRs_State.o)
                0x4804efc0                osek_task_e_SWT_CAN1_AP_BMS_AIRs_State
 .text          0x4804f010       0x50 OSC/TaskISRArchive.a(SWT_CAN1_NM_DASH_Keep_Alive.o)
                0x4804f010                osek_task_e_SWT_CAN1_NM_DASH_Keep_Alive
 .text          0x4804f060       0x50 OSC/TaskISRArchive.a(SWT_CAN1_AP_DASH_PrechargeRequest.o)
                0x4804f060                osek_task_e_SWT_CAN1_AP_DASH_PrechargeRequest
 .text          0x4804f0b0       0x50 OSC/TaskISRArchive.a(SWT_CAN1_AP_DASH_EnableDrive.o)
                0x4804f0b0                osek_task_e_SWT_CAN1_AP_DASH_EnableDrive
 .text          0x4804f100       0x50 OSC/TaskISRArchive.a(SWT_CAN2_AP_ELLIPSE_AUTO.o)
                0x4804f100                osek_task_e_SWT_CAN2_AP_ELLIPSE_AUTO
 .text          0x4804f150       0x50 OSC/TaskISRArchive.a(SWT_CAN2_AP_ELLIPSE_GPS_VEL.o)
                0x4804f150                osek_task_e_SWT_CAN2_AP_ELLIPSE_GPS_VEL
 .text          0x4804f1a0       0x50 OSC/TaskISRArchive.a(SWT_CAN2_MEAS_RECU_SDC.o)
                0x4804f1a0                osek_task_e_SWT_CAN2_MEAS_RECU_SDC
 .text          0x4804f1f0       0x50 OSC/TaskISRArchive.a(SWT_CAN2_AP_ELLIPSE_EKF_POS.o)
                0x4804f1f0                osek_task_e_SWT_CAN2_AP_ELLIPSE_EKF_POS
 .text          0x4804f240       0x50 OSC/TaskISRArchive.a(SWT_CAN2_AP_ELLIPSE_IMU_ACCEL.o)
                0x4804f240                osek_task_e_SWT_CAN2_AP_ELLIPSE_IMU_ACCEL
 .text          0x4804f290       0x50 OSC/TaskISRArchive.a(SWT_CAN2_AP_ELLIPSE_EKF_EULER.o)
                0x4804f290                osek_task_e_SWT_CAN2_AP_ELLIPSE_EKF_EULER
 .text          0x4804f2e0       0x50 OSC/TaskISRArchive.a(SWT_CAN2_AP_ELLIPSE_EKF_VEL.o)
                0x4804f2e0                osek_task_e_SWT_CAN2_AP_ELLIPSE_EKF_VEL
 .text          0x4804f330       0x50 OSC/TaskISRArchive.a(SWT_CAN2_NM_ELLIPSE_Status.o)
                0x4804f330                osek_task_e_SWT_CAN2_NM_ELLIPSE_Status
 .text          0x4804f380       0x50 OSC/TaskISRArchive.a(SWT_CAN2_AP_ELLIPSE_IMU_GYRO.o)
                0x4804f380                osek_task_e_SWT_CAN2_AP_ELLIPSE_IMU_GYRO
 .text          0x4804f3d0       0x50 OSC/TaskISRArchive.a(SWT_CAN2_AP_ELLIPSE_VEL_Valid.o)
                0x4804f3d0                osek_task_e_SWT_CAN2_AP_ELLIPSE_VEL_Valid
 .text          0x4804f420       0x50 OSC/TaskISRArchive.a(SWT_CAN2_AP_RECU_Data.o)
                0x4804f420                osek_task_e_SWT_CAN2_AP_RECU_Data
 .text          0x4804f470       0x50 OSC/TaskISRArchive.a(SWT_CAN2_NM_FECU_Keep_Alive.o)
                0x4804f470                osek_task_e_SWT_CAN2_NM_FECU_Keep_Alive
 .text          0x4804f4c0       0x50 OSC/TaskISRArchive.a(SWT_CAN2_NM_RECU_Keep_Alive.o)
                0x4804f4c0                osek_task_e_SWT_CAN2_NM_RECU_Keep_Alive
 .text          0x4804f510       0x50 OSC/TaskISRArchive.a(SWT_CAN2_AP_FECU_Data2.o)
                0x4804f510                osek_task_e_SWT_CAN2_AP_FECU_Data2
 .text          0x4804f560       0x50 OSC/TaskISRArchive.a(SWT_CAN2_AP_FECU_Data1.o)
                0x4804f560                osek_task_e_SWT_CAN2_AP_FECU_Data1
 .text          0x4804f5b0       0x4c OSC/TaskISRArchive.a(ISR_CAN1.o)
                0x4804f5b0                osek_isr_e_ISR_CAN1
 .text          0x4804f5fc       0x4c OSC/TaskISRArchive.a(ISR_CAN2.o)
                0x4804f5fc                osek_isr_e_ISR_CAN2
 .text          0x4804f648       0x40 OSC/etasActivateTaskIsr.o
                0x4804f648                osek_isr_e_etasActivateTaskIsr
 .text          0x4804f688       0x48 OSC/etasL1Isr.o
                0x4804f688                osek_isr_e_etasL1Isr
 .text          0x4804f6d0       0x44 OSC/etasL1Task.o
                0x4804f6d0                osek_task_e_etasL1Task
 .text          0x4804f714       0x40 OSC/etasTimerIsr.o
                0x4804f714                osek_isr_e_etasTimerIsr
 .text          0x4804f754       0x40 OSC/etasStopOsIsr.o
                0x4804f754                osek_isr_e_etasStopOsIsr
 .text          0x4804f794      0x244 OSC/DriverThreads.o
                0x4804f794                etasCreateDriverThreads
 .text          0x4804f9d8        0x0 OSC/ISRFunctions.o
 .text          0x4804f9d8      0x1f4 OSC/osc_dyn.o
                0x4804fb88                etasInitTasks
                0x4804fab4                TimerInitTask
                0x4804fa84                etasExitTasks
                0x4804f9e4                TimerExitTask
                0x4804f9e0                etasInactiveExitTask
                0x4804f9dc                etasStartupExitTask
                0x4804fb60                etasStartupInitTask
                0x4804f9d8                etasInactiveInitTask
 .text          0x4804fbcc        0xc OSC/rtaInterface.o
                0x4804fbcc                etasGetCounterPeriodUs
                0x4804fbd4                StackFaultHook
 .text          0x4804fbd8      0x5f8 OSC/ETCHooks.o
                0x4804fef8                rtioHook_15_0
                0x4804ffe8                rtioHook_9_0
                0x4804ff70                rtioHook_12_0
                0x4804fe58                rtioHook_19_0
                0x4804fea8                rtioHook_17_0
                0x48050128                rtioHook_1_0
                0x480500b0                rtioHook_4_0
                0x4804fc50                rtioHook_32_0
                0x4804fdb8                rtioHook_23_0
                0x4804fca0                rtioHook_30_0
                0x4804fe08                rtioHook_21_0
                0x4804fbd8                rtioHook_35_0
                0x4804fd40                rtioHook_26_0
                0x48050178                rtioHook_37_0
                0x4804fcf0                rtioHook_28_0
                0x4804fc28                rtioHook_33_0
                0x4804fd90                rtioHook_24_0
                0x4804fcc8                rtioHook_29_0
                0x4804fc78                rtioHook_31_0
                0x48050038                rtioHook_7_0
                0x4804fde0                rtioHook_22_0
                0x48050150                rtioHook_0_0
                0x4804fe80                rtioHook_18_0
                0x4804ff48                rtioHook_13_0
                0x4804ff98                rtioHook_11_0
                0x4804fed0                rtioHook_16_0
                0x48050060                rtioHook_6_0
                0x4804ff20                rtioHook_14_0
                0x48050010                rtioHook_8_0
                0x4804fe30                rtioHook_20_0
                0x48050100                rtioHook_2_0
                0x4804fc00                rtioHook_34_0
                0x4804fd68                rtioHook_25_0
                0x480500d8                rtioHook_3_0
                0x4804ffc0                rtioHook_10_0
                0x48050088                rtioHook_5_0
                0x480501a4                rtioHook_36_0
                0x4804fd18                rtioHook_27_0
 .text          0x480501d0     0x1040 OSC/XbarHooks.o
                0x480501f8                crossbarHook_34_0
                0x480507e8                crossbarHook_21_0
                0x48050ae0                crossbarHook_2_0
                0x48050478                crossbarHook_32_6
                0x48050950                crossbarHook_12_0
                0x480510b0                crossbarHook_36_7
                0x48050518                crossbarHook_32_2
                0x48050f7c                crossbarHook_36_14
                0x48050ecc                crossbarHook_36_18
                0x48050680                crossbarHook_29_1
                0x48050b88                crossbarHook_37_17
                0x48050720                crossbarHook_26_0
                0x48050ce8                crossbarHook_37_9
                0x48050888                crossbarHook_17_0
                0x48050c38                crossbarHook_37_13
                0x48050a18                crossbarHook_7_0
                0x48050d98                crossbarHook_37_5
                0x48050e48                crossbarHook_37_1
                0x48050a68                crossbarHook_5_0
                0x48050270                crossbarHook_33_3
                0x480503b0                crossbarHook_32_11
                0x48050310                crossbarHook_32_15
                0x480511e4                crossbarHook_36_0
                0x48050798                crossbarHook_23_0
                0x48050900                crossbarHook_14_0
                0x48050450                crossbarHook_32_7
                0x48051134                crossbarHook_36_4
                0x48051084                crossbarHook_36_8
                0x480504f0                crossbarHook_32_3
                0x48050658                crossbarHook_29_2
                0x48050fa8                crossbarHook_36_13
                0x48050c0c                crossbarHook_37_14
                0x48050cbc                crossbarHook_37_10
                0x48050ef8                crossbarHook_36_17
                0x48050d14                crossbarHook_37_8
                0x48050dc4                crossbarHook_37_4
                0x48050e74                crossbarHook_37_0
                0x48050770                crossbarHook_24_0
                0x480508d8                crossbarHook_15_0
                0x480501d0                crossbarHook_35_0
                0x480507c0                crossbarHook_22_0
                0x48050298                crossbarHook_33_2
                0x48050928                crossbarHook_13_0
                0x480511b8                crossbarHook_36_1
                0x48050b08                crossbarHook_1_0
                0x48050590                crossbarHook_31_1
                0x480506f8                crossbarHook_27_0
                0x48050860                crossbarHook_18_0
                0x48050a40                crossbarHook_6_0
                0x48050428                crossbarHook_32_8
                0x48050748                crossbarHook_25_0
                0x480508b0                crossbarHook_16_0
                0x48051108                crossbarHook_36_5
                0x48051058                crossbarHook_36_9
                0x480504c8                crossbarHook_32_4
                0x48050568                crossbarHook_32_0
                0x48050b5c                crossbarHook_37_18
                0x480509a0                crossbarHook_10_0
                0x48050fd4                crossbarHook_36_12
                0x48050be0                crossbarHook_37_15
                0x480509f0                crossbarHook_8_0
                0x48050c90                crossbarHook_37_11
                0x48050f24                crossbarHook_36_16
                0x48050608                crossbarHook_30_0
                0x48050d40                crossbarHook_37_7
                0x48050df0                crossbarHook_37_3
                0x48050630                crossbarHook_29_3
                0x48050388                crossbarHook_32_12
                0x48050220                crossbarHook_33_5
                0x48050ab8                crossbarHook_3_0
                0x480502c0                crossbarHook_33_1
                0x4805118c                crossbarHook_36_2
                0x480505b8                crossbarHook_31_0
                0x48050400                crossbarHook_32_9
                0x48051000                crossbarHook_36_11
                0x480510dc                crossbarHook_36_6
                0x480504a0                crossbarHook_32_5
                0x48050540                crossbarHook_32_1
                0x480506d0                crossbarHook_28_0
                0x48050838                crossbarHook_19_0
                0x48050b30                crossbarHook_37_19
                0x48050f50                crossbarHook_36_15
                0x48050ea0                crossbarHook_36_19
                0x480505e0                crossbarHook_30_1
                0x480506a8                crossbarHook_29_0
                0x48050bb4                crossbarHook_37_16
                0x48050c64                crossbarHook_37_12
                0x48050d6c                crossbarHook_37_6
                0x48050e1c                crossbarHook_37_2
                0x48050360                crossbarHook_32_13
                0x48050248                crossbarHook_33_4
                0x480502e8                crossbarHook_33_0
                0x48050810                crossbarHook_20_0
                0x48050978                crossbarHook_11_0
                0x480503d8                crossbarHook_32_10
                0x48051160                crossbarHook_36_3
                0x48050338                crossbarHook_32_14
                0x480509c8                crossbarHook_9_0
                0x4805102c                crossbarHook_36_10
                0x48050a90                crossbarHook_4_0
 .text          0x48051210        0x0 ETC/FormulaTable.o
 .text          0x48051210        0x0 ETC/DriverTable.o
 .text          0x48051210        0x0 ETC/MappingFunctionTable.o
 .text          0x48051210        0x0 ETC/RtioL1RecordTable.o
 .text          0x48051210        0x0 ETC/XCPTransportLayerFunctionsTable.o
 .text          0x48051210        0x0 ETC/ChecksumAlgoTables.o
 .text          0x48051210        0x0 CBC/CopyFunctionTable.o
 .text          0x48051210        0x0 CBC/CrossbarL1RecordTable.o
 .text          0x48051210       0x48 C:/ETAS/Compiler/INTECRIO5.0/QNXCompiler-V6.5\host\win32\x86/usr/lib/gcc/powerpc-unknown-nto-qnx6.5.0/4.4.2/spe/libgcc.a(_fixunsdfdi.o)
                0x48051210                __fixunsdfdi
 .text          0x48051258       0x40 C:/ETAS/Compiler/INTECRIO5.0/QNXCompiler-V6.5\host\win32\x86/usr/lib/gcc/powerpc-unknown-nto-qnx6.5.0/4.4.2/spe/libgcc.a(_floatundidf.o)
                0x48051258                __floatundidf
 .text          0x48051298       0x98 C:/ETAS/Compiler/INTECRIO5.0/QNXCompiler-V6.5\host\win32\x86/usr/lib/gcc/powerpc-unknown-nto-qnx6.5.0/4.4.2/spe/crtend.o
 .text          0x48051330        0x0 C:/ETAS/Compiler/INTECRIO5.0/QNXCompiler-V6.5\target\qnx6/ppcbe-spe/lib/crtn.o
 .text          0x48051330     0x23b4 C:\Program Files (x86)\ETAS\INTECRIO5.0\Target\Etarget\ES910\libes910.a(i_rtautil.o)
                0x48051658                etasActivateTaskViaIsr
                0x48052b54                startTaskHookMon
                0x48051bfc                ErrorHook
                0x48051400                osTraceStopwatch
                0x48051974                switchToInactiveAppMode
                0x4805133c                isAppModeSwitchPending
                0x4805285c                etasStartIsrHookMon
                0x48052a6c                etasStartIsrHook
                0x48051530                getModelRuntime
                0x48051684                restartModelProcess
                0x48051330                GetNextAppMode
                0x480515a8                etasActivateTaskWithIdViaIsrHandler
                0x48052958                etasEndIsrHook
                0x4805136c                checkInterruptOccurence
                0x48052e80                osekThreadSuspendRtSignals
                0x48052990                etasEndIsrHookMon
                0x4805193c                getCurTaskMonitor
                0x48051b38                GetStopwatchUncertainty
                0x48052cf0                endTaskHook
                0x48051a24                delayInitExitTask
                0x48051388                rtaInitTarget
                0x48051b90                OverrunHook
                0x48051614                etasActivateTaskWithIdViaIsr
                0x48052c2c                startTaskHook
                0x48051474                etasDeInstallOsErrorHook
                0x48053184                applicationModeManager
                0x48051744                terminateModelProcess
                0x4805257c                StartupHook
                0x48052e44                osekThreadResumeRtSignals
                0x480518f0                lockCriticalSection
                0x48051808                isRtaOsekThreadContext
                0x48051408                isInsideInitExitTask
                0x48051434                isInsideExitTask
                0x48051f28                ShutdownHook
                0x4805183c                unlockCriticalSection
                0x4805144c                etasInstallOsErrorHook
                0x48052d68                endTaskHookMon
                0x48051358                resetInterruptFlag
                0x480513f8                GetStopwatch
                0x48051384                etasRTATraceInitProcess
                0x480513ec                GetDeltaT
                0x480514a0                SetNextAppMode
                0x48051aec                tempMgrRegisterSigtermEvent
                0x4805141c                isInsideInitTask
                0x48051378                getLastInterruptTimeTicks
 .text          0x480536e4     0x2058 C:\Program Files (x86)\ETAS\INTECRIO5.0\Target\Etarget\ES910\libes910.a(t_driverThreads.o)
                0x480544d0                osek_sendto
                0x48053d68                osek_msync
                0x48053ac8                osek_vfprintf
                0x48054b48                osek_MsgReceive
                0x480548b0                osek_MsgRead
                0x4805435c                osek_cmsSendMessage
                0x4805386c                osek_malloc
                0x48053820                osek_free
                0x480537ac                osek_fsync
                0x48053f50                osek_unlink
                0x48053c08                osek_munmap
                0x480545a8                osek_devctl
                0x4805478c                osek_close
                0x48054270                osek_cmsReceiveMessage
                0x48053fc4                osek_system
                0x48054a10                osek_MsgError
                0x48054d6c                osek_send
                0x48054a98                osek_MsgReply
                0x48053b80                osek_ftruncate
                0x48054960                osek_MsgWrite
                0x48053eb4                osek_lseek
                0x48054bf8                osek_MsgSend
                0x480543f8                osek_recvfrom
                0x48053e04                osek_fwrite
                0x480539fc                osek_vslogf
                0x48054038                osek_cmsReceiveMessageEx
                0x480536e4                etasSetNumberOfDriverThreads
                0x48054e1c                etasCreateDriverThread
                0x48053c90                osek_mmap
                0x480546f0                osek_write
                0x48054cbc                osek_recv
                0x480538e0                osek_etasLogCoreFeedRecordToBackends
                0x48054654                osek_read
                0x480541c0                osek_cmsErrorState
                0x48054124                osek_cmsSendMessageEx
                0x48054800                osek_open
 .text          0x4805573c      0x8fc C:\Program Files (x86)\ETAS\INTECRIO5.0\Target\Etarget\ES910\libes910.a(t_idle.o)
                0x48055f60                initRtaTraceSupport
                0x48055970                etasIdleProcess
                0x480557fc                signalStartupHookTermination
                0x48055788                apsGetPartitionId
                0x4805582c                apsJoinPartition
                0x480557cc                signalShutdownHookTermination
                0x48055794                getSysLoad
                0x4805573c                etasInstallIdleHook
                0x48055764                etasDeInstallIdleHook
 .text          0x48056038     0x1fcc C:\Program Files (x86)\ETAS\INTECRIO5.0\Target\Etarget\ES910\libes910.a(t_l1com.o)
                0x48056038                setL1ComBufferSize
                0x48056078                l1SetBusyState
                0x480561f8                l1SignalIdleState
                0x480565a0                waitForL1Request
                0x48056b90                createL1ModelThread
                0x48056adc                serveL1Request
                0x480564e8                etasL1Process
 .text          0x48058004      0xcc4 C:\Program Files (x86)\ETAS\INTECRIO5.0\Target\Etarget\ES910\libes910.a(t_main.o)
                0x48058260                main
 .text          0x48058cc8      0x9f0 C:\Program Files (x86)\ETAS\INTECRIO5.0\Target\Etarget\ES910\libes910.a(t_mlog.o)
                0x48058cec                getDriverLogging
                0x48058cf8                getUserSeverity
                0x48058ce0                getUserLogging
                0x48058d84                mlog_setSeverityFilterUser
                0x48058d58                mlog_setSeverityFilterDrv
                0x48058d04                getDriverSeverity
                0x48059440                mlog_init
                0x48059144                mlog_updateLoggingConfiguration
                0x48058cc8                getUserLogChan
                0x48059230                mlog_startLogConfigThread
                0x48058cd4                getDrvLogChan
                0x48058d10                mlog_debugLog
 .text          0x480596b8      0xfac C:\Program Files (x86)\ETAS\INTECRIO5.0\Target\Etarget\ES910\libes910.a(t_qnxtargetutil.o)
                0x48059be4                qnxThreadJoinPartition
                0x48059914                qnxLockSetSockEnvironmentVariable
                0x4805a034                qnxPrintProcesses
                0x480596c8                qnxCheckBootFromFlash
                0x48059f64                qnxPrintCpuLoad
                0x480596e4                qnxCheckHaltedModel
                0x4805970c                qnxRestoreUnlockSockEnvironmentVariable
                0x480596b8                qnxSetBootFromFlash
                0x4805a57c                qnxPrintSavedErrorMessages
                0x480596f0                qnxSetStandalone
                0x48059f00                qnxAdjustThreadPriority
                0x480596d4                qnxSetHaltedModel
                0x48059c64                qnxGetSetRunInheritMask
                0x48059700                qnxCheckStandalone
 .text          0x4805a664      0x638 C:\Program Files (x86)\ETAS\INTECRIO5.0\Target\Etarget\ES910\libes910.a(t_targetutil.o)
                0x4805a6b4                initL2CachePerfMeas
                0x4805abdc                es910GetSerialNumber
                0x4805a664                GetSystemTimeLow
                0x4805ab84                es910GetPcbRevision
                0x4805abb8                es910PiggyGetSerialNumber
                0x4805a810                getL2CachePerf
                0x4805a918                es910PrintFwVersions
                0x4805a7bc                getL2CachePerfRaw
                0x4805a674                GetSystemTime
                0x4805ac68                es910MapCCSRMemoryRange
                0x4805a66c                GetSystemTimeHigh
                0x4805ab50                es910PiggyGetPcbRevision
                0x4805ac00                waitMicroseconds
 .text          0x4805ac9c      0x2f4 C:\Program Files (x86)\ETAS\INTECRIO5.0\Target\Etarget\ES910\libes910.a(t_watchdog.o)
                0x4805acac                wdDisableAutoService
                0x4805ad74                etasServiceWatchdog
                0x4805ad04                wdService
                0x4805adec                wdSetEventPeriod
                0x4805ac9c                wdEnableAutoService
                0x4805acbc                wdSetApplicationName
                0x4805ad44                triggerWD
                0x4805acc8                wdDisconnect
 .text          0x4805af90      0x848 C:\Program Files (x86)\ETAS\INTECRIO5.0\Target\Etarget\ES910\libes910.a(p_chario.o)
                0x4805b544                IOWrite
                0x4805af90                IOIsLogOn
                0x4805af9c                IOLogOff
                0x4805aff8                IOLogOn
                0x4805b2c4                IOPrintf
 .text          0x4805b7d8      0x31c C:\Program Files (x86)\ETAS\INTECRIO5.0\Target\Etarget\ES910\libes910.a(t_hwTimeSync.o)
                0x4805b7d8                es9xxTimeSyncGetTimerValue
                0x4805b8cc                es9xxTimeSyncGetTimerStatus
                0x4805ba20                es9xxTimeSyncInit
                0x4805b85c                getLocalSystemTime
 .text          0x4805baf4      0x224 C:\Program Files (x86)\ETAS\INTECRIO5.0\Target\Etarget\ES910\libes910.a(t_led.o)
                0x4805baf4                userLed2Off
                0x4805bb8c                userLed2Toggle
                0x4805bc98                ledsOff
                0x4805bc60                userLed1Toggle
                0x4805bc14                userLed1On
                0x4805bbc4                userLed1Off
                0x4805bb40                userLed2On
 .text          0x4805bd18     0x2178 C:\Program Files (x86)\ETAS\INTECRIO5.0\Target\Etarget\ES910\libtarget.a(a_dacqui.o)
                0x4805d36c                asdSimPreCall
                0x4805de20                asdSimPostCall
                0x4805d3f0                getDacqTimeFor
                0x4805dd18                storeMeasureDataForGroup
                0x4805d568                applicationStartUserMode
                0x4805d540                resetLogSimulationTime
                0x4805bfd0                etasAscetLoggingBufferFillLevel
                0x4805d4b4                getLogSimulationTime
                0x4805c004                etasAscetLoggingOverflowCounter
                0x4805c048                asdDisableUserDefinedTime
                0x4805d4dc                getSimulationTime
                0x4805bf6c                setSimulationTime
                0x4805c038                asdEnableUserDefinedTime
                0x4805d0a8                checkForBufferOverflow
                0x4805d508                resetDacqTimeFor
                0x4805bf40                setLogSimulationTime
                0x4805bf38                setDacqTimeFor
                0x4805bd18                applicationStopUserMode
                0x4805d648                timeMeasurementStop
                0x4805bf9c                etasAscetLoggingBufferSize
                0x4805d6f0                logDataForChannel
                0x4805db3c                storeLogDataForGroup
                0x4805d69c                timeMeasurementStart
                0x4805d5e8                timeInSeconds
 .text          0x4805de90       0xd8 C:\Program Files (x86)\ETAS\INTECRIO5.0\Target\Etarget\ES910\libtarget.a(a_l1pro.o)
                0x4805de90                forwardToProcess
                0x4805deec                startUpSimulation
 .text          0x4805df68     0x4c88 C:\Program Files (x86)\ETAS\INTECRIO5.0\Target\Etarget\ES910\libtarget.a(a_primit.o)
                0x480626b4                v3_initInstance_uint16
                0x4805fe0c                Vec_uint32_getAtProtected
                0x48061330                v3_initInstance_Mat_real64
                0x480609d8                v3_initInstance_Mat_bool
                0x48062330                initInstance_GroupCharTable2
                0x48061f6c                initInstance_Vec_real32
                0x4805f59c                Mat_sint16_setAtProtected
                0x4805f414                Mat_uint16_setAtProtected
                0x480610dc                v3_initInstance_Mat_sint8
                0x48061204                v3_initInstance_Mat_real32
                0x48060d5c                v3_initInstance_Mat_uint16
                0x4805fc80                Vec_qreal64_getAtProtected
                0x48062b80                delete_Mat
                0x4805e7f0                addVector
                0x48061614                v3_initInstance_Vec_bool
                0x48060e64                initInstance_Mat_uint16
                0x4806230c                initInstance_uint32
                0x480627b8                initInstance_sint16
                0x48060638                qreal64_set
                0x48062974                initInstance_real32
                0x48061d0c                initInstance_Vec_uint8
                0x48062ac0                delete_CharTable2
                0x48060198                Vec_uint8_getAtProtected
                0x48062724                initInstance_uint16
                0x4805dff4                removeMatrix
                0x4806011c                Vec_uint8_setAtProtected
                0x48060c30                v3_initInstance_Mat_sint32
                0x48061720                initInstance_Vec_bool
                0x4805ee7c                Mat_real64_getAtProtected
                0x4805ed8c                Mat_real64_setAtProtected
                0x48060ae0                initInstance_Mat_bool
                0x48061980                initInstance_Vec_sint32
                0x480627dc                v3_initInstance_uint8
                0x4806052c                Vec_qreal64_setAtProtected
                0x4805e6bc                addMatrix
                0x48060814                v3_initInstance_Mat_qreal64
                0x4805f96c                Mat_sint8_getAtProtected
                0x480624b8                initInstance_GroupCharTable1
                0x4805f668                Mat_sint16_getAtProtected
                0x48061744                v3_initInstance_Vec_uint32
                0x48060274                Vec_sint8_getAtProtected
                0x4805f358                Mat_sint32_getAtProtected
                0x480602d8                qreal64_adjust
                0x48062bb8                delete_Vec
                0x48061ad4                v3_initInstance_Vec_sint16
                0x48061be0                initInstance_Vec_sint16
                0x4805fb60                Vec_real64_setAtProtected
                0x4805ff54                Vec_uint16_setAtProtected
                0x4805fca8                Vec_real32_setAtProtected
                0x480610b8                initInstance_Mat_uint8
                0x4805f1d0                Mat_uint32_getAtProtected
                0x4805df74                getBasicType
                0x48061e5c                v3_initInstance_Vec_real32
                0x480603fc                Mat_qreal64_setAtProtected
                0x4805fafc                Vec_bool_getAtProtected
                0x48062a10                initInstance_real64
                0x480615dc                initInstance_Vec_qreal64
                0x48062b00                delete_GroupCharTable1
                0x48062620                v3_initInstance_sint32
                0x4806130c                initInstance_Mat_real32
                0x480601f8                Vec_sint8_setAtProtected
                0x4805f048                Mat_real32_getAtProtected
                0x4805fa7c                Vec_bool_setAtProtected
                0x4805e0e4                removeVector
                0x4805ecd0                Mat_bool_getAtProtected
                0x48062b40                delete_CharTable1
                0x48062690                initInstance_sint32
                0x48060b04                v3_initInstance_Mat_uint32
                0x480628e0                initInstance_sint8
                0x480623f4                initInstance_CharTable2
                0x480621d0                initInstance_qreal64
                0x4805f104                Mat_uint32_setAtProtected
                0x4805f4e0                Mat_uint16_getAtProtected
                0x48061438                initInstance_Mat_real64
                0x48062998                v3_initInstance_real64
                0x4806229c                v3_initInstance_uint32
                0x4805df80                getPrimitiveType
                0x4805eb6c                Mat_setCurSizeYProtected
                0x48061d30                v3_initInstance_Vec_sint8
                0x4806284c                initInstance_uint8
                0x480619a4                v3_initInstance_Vec_uint16
                0x4805df68                getTypeSize
                0x48060d38                initInstance_Mat_sint32
                0x48062904                v3_initInstance_real32
                0x48062a80                delete_GroupCharTable2
                0x4805ec04                Mat_bool_setAtProtected
                0x48060c0c                initInstance_Mat_uint32
                0x48062278                initInstance_bool
                0x4805fd8c                Vec_uint32_setAtProtected
                0x4806145c                v3_initInstance_Vec_qreal64
                0x48060998                initInstance_Mat_qreal64
                0x4805ef54                Mat_qreal64_getAtProtected
                0x48061c04                v3_initInstance_Vec_uint8
                0x4805fef0                Vec_sint32_getAtProtected
                0x48060f90                initInstance_Mat_sint16
                0x4805ffd4                Vec_uint16_getAtProtected
                0x4805fa28                Vec_setCurSizeProtected
                0x48062870                v3_initInstance_sint8
                0x4805fc00                Vec_real64_getAtProtected
                0x4805f724                Mat_uint8_setAtProtected
                0x48061850                initInstance_Vec_uint32
                0x48060e88                v3_initInstance_Mat_sint16
                0x4805fe70                Vec_sint32_setAtProtected
                0x48062a34                initInstance_reference
                0x480600b8                Vec_sint16_getAtProtected
                0x4805f8a4                Mat_sint8_setAtProtected
                0x4805ebb8                Mat_setCurSizeXProtected
                0x48062208                v3_initInstance_bool
                0x4806256c                initInstance_CharTable1
                0x480620c0                v3_initInstance_qreal64
                0x48060780                initInstance_quantInfo
                0x4805ef7c                Mat_real32_setAtProtected
                0x480611e0                initInstance_Mat_sint8
                0x48061874                v3_initInstance_Vec_sint32
                0x4805fd28                Vec_real32_getAtProtected
                0x4805f28c                Mat_sint32_setAtProtected
                0x48061e38                initInstance_Vec_sint8
                0x48060038                Vec_sint16_setAtProtected
                0x4805f7ec                Mat_uint8_getAtProtected
                0x48062748                v3_initInstance_sint16
                0x48060fb4                v3_initInstance_Mat_uint8
                0x48061ab0                initInstance_Vec_uint16
                0x4806209c                initInstance_Vec_real64
                0x48061f90                v3_initInstance_Vec_real64
 .text          0x48062bf0       0x20 C:\Program Files (x86)\ETAS\INTECRIO5.0\Target\Etarget\ES910\libtarget.a(a_sysver.o)
                0x48062c04                getBuildRevision
                0x48062bf0                getSystemLibVersion
                0x48062bfc                getSystemLibCid
 .text          0x48062c10     0x305c C:\Program Files (x86)\ETAS\INTECRIO5.0\Target\Etarget\ES910\libtarget.a(a_targma.o)
                0x48063b10                perfMeasStop
                0x480644e0                asdMalloc
                0x480648d4                addToActiveSimObjList
                0x48062d90                getTargetL1BufferSizeCode
                0x48064a64                asdWriteUserError
                0x48062d28                setTargetL1BufferSize
                0x4806539c                perfMeasDisplay
                0x48062cf4                getSimObjPtr
                0x48063de0                asdFree
                0x48064a38                asdClearUserError
                0x48062de8                resetPerfMeasObj
                0x480642b4                asdMallocNoInit
                0x48065254                asdWriteUserDebug
                0x48062c40                searchInActiveList
                0x4806448c                asdCalloc
                0x48062d84                getTargetL1BufferSize
                0x48062c9c                removeFromActiveSimObjList
                0x48063bb8                perfMeasStart
                0x48062c1c                instanceTreeMallocOn
                0x4806440c                createPerfMeasObj
                0x480655e4                etasInitModelProcess
                0x480635b4                getObjectsRecursive
                0x48063c24                availableMemory
                0x48062c2c                instanceTreeMallocOff
                0x48063cd8                asdFreeAll
                0x48064774                updateCTBlocks
                0x4806413c                asdRealloc
                0x480640fc                deletePerfMeasObj
                0x48062c10                getInstanceTreeMemoryConsumption
 .text          0x48065c6c     0x14ac C:\Program Files (x86)\ETAS\INTECRIO5.0\Target\Etarget\ES910\libtarget.a(i_cpyfnc.o)
                0x48065f9c                copyPlainFromFloat
                0x48066ac8                copyScalSatTypeSatFromFloat
                0x48067100                copyInt
                0x4806710c                copyDouble
                0x480670f4                copyShort
                0x48066630                copyScalFromValidFloat
                0x48066874                copyScalSatFromFloat
                0x480661bc                copySatFromFloat
                0x48065c6c                copyPlainToFloat
                0x48065ebc                copyScalSatToFloat
                0x48065e04                copyScalToFloat
                0x480670e8                copyByte
                0x48066e8c                copyBoolSatFromFloat
                0x48065d38                copySatToFloat
                0x48066400                copyScalFromFloat
 .text          0x48067118     0x530c C:\Program Files (x86)\ETAS\INTECRIO5.0\Target\Etarget\ES910\libtarget.a(i_mapfnc.o)
                0x480674b0                var2BufByteOffsetReal64
                0x48069788                var2BufBypassSint8
                0x480684ec                var2Buf64BitIntelSint32
                0x4806769c                var2BufByteOffsetBool
                0x4806a56c                var2BufIndirectMotorolaReal32
                0x4806746c                buf2VarSimpleUint8
                0x48067730                buf2VarByteOffsetSint32
                0x4806a8e0                buf2VarIndirectMotorolaSint32
                0x4806bc08                var2BufIndirectIntelSint16
                0x4806c3d0                bufGenFrameInit
                0x4806a40c                buf2VarGenFrameIntelSint32
                0x4806c124                buf2VarBypassIntelUint16
                0x48067bf0                var2Buf64BitMotorolaUint16
                0x480683d0                var2Buf64BitIntelUint32
                0x48068bd4                buf2Var64BitMotorolaReal32
                0x48069584                var2BufBypassMotorolaReal64
                0x48067c9c                var2Buf64BitMotorolaSint16
                0x480675b8                var2BufByteOffsetSint16
                0x48067424                buf2VarSimpleSint32
                0x480698c8                buf2VarBypassMotorolaSint32
                0x48067780                buf2VarByteOffsetSint8
                0x4806a630                var2BufIndirectMotorolaUint16
                0x48069898                buf2VarBypassMotorolaUint32
                0x48068ea4                buf2Var64BitMotorolaUint8
                0x4806bf60                var2BufBypassMaskedIntelBoolUint32
                0x4806a840                buf2VarIndirectMotorolaReal64
                0x4806731c                var2BufSimpleBool
                0x4806a24c                buf2VarGenFrameMotorolaSint32
                0x48068dc0                buf2Var64BitMotorolaSint32
                0x48067e98                var2Buf64BitMotorolaBool
                0x4806a3cc                buf2VarGenFrameIntelUint32
                0x4806a18c                var2BufGenFrameIntelBool
                0x4806a14c                var2BufGenFrameIntelSint8
                0x48069ecc                var2BufGenFrameMotorolaSint16
                0x4806a54c                var2BufIndirectMotorolaReal64
                0x48067604                var2BufByteOffsetUint8
                0x48067830                var2Buf64BitMotorolaUint64
                0x48069e8c                var2BufGenFrameMotorolaUint16
                0x4806c1b4                buf2VarBypassIntelUint32
                0x4806c2e8                var2BufBypassIntelSint32
                0x480673e0                buf2VarSimpleReal64
                0x48069978                buf2VarBypassIntelReal64
                0x48067744                buf2VarByteOffsetUint16
                0x48067194                var2BufSimpleSint32
                0x48069ca0                var2BufBypassMaskedUint8
                0x48069a50                var2BufBypassMaskedMotorolaUint32
                0x48067650                var2BufByteOffsetSint8
                0x48068060                var2Buf64BitIntelUint64
                0x4806a874                buf2VarIndirectMotorolaReal32
                0x48069848                buf2VarBypassMotorolaReal64
                0x48069f8c                var2BufGenFrameMotorolaBool
                0x48068608                var2Buf64BitIntelUint16
                0x480674d4                var2BufByteOffsetUint32
                0x4806bad4                buf2VarIndirectIntelUint16
                0x48067798                buf2VarByteOffsetBool
                0x4806be50                var2BufBypassMaskedIntelSint16
                0x48067384                var2BufSimpleUint8Bool
                0x4806964c                var2BufBypassMotorolaUint16
                0x4806bed8                var2BufBypassMaskedIntelUint16
                0x4806740c                buf2VarSimpleUint32
                0x48069f4c                var2BufGenFrameMotorolaSint8
                0x48067f90                var2Buf64BitIntelReal32
                0x4806aa6c                buf2VarIndirectSint8
                0x48068c1c                buf2Var64BitMotorolaUint64
                0x48069e0c                var2BufGenFrameMotorolaUint32
                0x4806aeec                var2BufGenFrameMotorolaReal64
                0x4806c348                var2BufBypassIntelUint32
                0x4806a30c                buf2VarGenFrameMotorolaUint8
                0x48068e08                buf2Var64BitMotorolaUint16
                0x480694f0                buf2Var64BitIntelSint8
                0x48069fcc                var2BufGenFrameIntelReal32
                0x48068fa4                buf2Var64BitIntelReal32
                0x48067f3c                var2Buf64BitIntelReal64
                0x48069b74                var2BufBypassMaskedMotorolaUint16
                0x48068218                var2Buf64BitIntelSint64
                0x4806a08c                var2BufGenFrameIntelUint16
                0x4806b9d4                buf2VarGenFrameIntelReal64
                0x48069698                var2BufBypassMotorolaSint16
                0x4806c1f8                buf2VarBypassIntelReal32
                0x4806c170                buf2VarBypassIntelSint32
                0x48067520                var2BufByteOffsetSint32
                0x48069114                buf2Var64BitIntelSint64
                0x4806a1cc                buf2VarGenFrameMotorolaReal32
                0x4806c3fc                bufBypassInit
                0x4806932c                buf2Var64BitIntelUint16
                0x48069b18                var2BufBypassMaskedMotorolaBoolUint32
                0x4806bd40                var2BufIndirectIntelUint32
                0x4806a2cc                buf2VarGenFrameMotorolaSint16
                0x48067d48                var2Buf64BitMotorolaUint8
                0x48069020                buf2Var64BitIntelUint64
                0x4806a48c                buf2VarGenFrameIntelSint16
                0x4806a04c                var2BufGenFrameIntelSint32
                0x4806b6c4                buf2VarGenFrameMotorolaReal64
                0x48069458                buf2Var64BitIntelUint8
                0x48069d70                var2BufBypassMaskedBoolUint8
                0x4806b5a4                buf2VarGenFrameMotorolaUint64
                0x4806a968                buf2VarIndirectMotorolaSint16
                0x4806a38c                buf2VarGenFrameIntelReal32
                0x48067aa8                var2Buf64BitMotorolaUint32
                0x4806bda8                var2BufIndirectIntelReal32
                0x480674c0                var2BufByteOffsetReal32
                0x4806bdd8                var2BufBypassMaskedIntelBoolUint16
                0x48069a18                buf2VarBypassSint8
                0x48068970                var2Buf64BitIntelSint8
                0x48067b4c                var2Buf64BitMotorolaSint32
                0x480693c4                buf2Var64BitIntelSint16
                0x48068850                var2Buf64BitIntelUint8
                0x4806ad74                var2BufGenFrameMotorolaUint64
                0x4806a28c                buf2VarGenFrameMotorolaUint16
                0x480699e0                buf2VarBypassUint8
                0x480677d4                var2Buf64BitMotorolaReal32
                0x4806a44c                buf2VarGenFrameIntelUint16
                0x48067480                buf2VarSimpleSint8
                0x4806a588                var2BufIndirectMotorolaUint32
                0x4806b850                buf2VarGenFrameIntelSint64
                0x48069938                buf2VarBypassMotorolaSint16
                0x48067144                var2BufSimpleUint32
                0x4806b480                buf2VarGenFrameMotorolaSint64
                0x480677ac                buf64BitInit
                0x4806a9b4                buf2VarIndirectIntelReal64
                0x4806bbcc                buf2VarIndirectIntelReal32
                0x48069600                var2BufBypassMotorolaSint32
                0x4806c288                var2BufBypassIntelUint16
                0x4806a34c                buf2VarGenFrameMotorolaSint8
                0x4806abfc                var2BufGenFrameMotorolaSint64
                0x48069bdc                var2BufBypassMaskedMotorolaSint16
                0x48069c44                var2BufBypassMaskedMotorolaBoolUint16
                0x4806b228                var2BufGenFrameIntelUint64
                0x48069f0c                var2BufGenFrameMotorolaUint8
                0x48067284                var2BufSimpleUint8
                0x48067708                buf2VarByteOffsetReal32
                0x4806a78c                var2BufIndirectSint8
                0x480673f4                buf2VarSimpleReal32
                0x4806bb2c                buf2VarIndirectIntelSint32
                0x4806c228                var2BufBypassIntelSint16
                0x48068d78                buf2Var64BitMotorolaUint32
                0x480695b4                var2BufBypassMotorolaUint32
                0x4806c058                var2BufBypassMaskedIntelUint32
                0x4806a6d8                var2BufIndirectIntelReal64
                0x48069d08                var2BufBypassMaskedSint8
                0x4806771c                buf2VarByteOffsetUint32
                0x4806a0cc                var2BufGenFrameIntelSint16
                0x48067498                buf2VarSimpleBool
                0x4806743c                buf2VarSimpleUint16
                0x48068ef4                buf2Var64BitMotorolaSint8
                0x48069900                buf2VarBypassMotorolaUint16
                0x480676f8                buf2VarByteOffsetReal64
                0x4806bcd8                var2BufIndirectIntelSint32
                0x4806a924                buf2VarIndirectMotorolaUint16
                0x4806b914                buf2VarGenFrameIntelUint64
                0x480696e4                var2BufBypassIntelReal64
                0x4806920c                buf2Var64BitIntelUint32
                0x48068e58                buf2Var64BitMotorolaSint16
                0x48069e4c                var2BufGenFrameMotorolaSint32
                0x48068bb0                buf2Var64BitMotorolaReal64
                0x48068cc8                buf2Var64BitMotorolaSint64
                0x48067758                buf2VarByteOffsetSint16
                0x4806a738                var2BufIndirectUint8
                0x4806a4cc                buf2VarGenFrameIntelUint8
                0x4806bc70                var2BufIndirectIntelUint16
                0x4806aa28                buf2VarIndirectUint8
                0x4806a7e0                var2BufIndirectBool
                0x4806c3a8                var2BufBypassIntelReal32
                0x4806a00c                var2BufGenFrameIntelUint32
                0x480671e4                var2BufSimpleUint16
                0x4806a5dc                var2BufIndirectMotorolaSint32
                0x4806a20c                buf2VarGenFrameMotorolaUint32
                0x4806756c                var2BufByteOffsetUint16
                0x48068f40                buf2Var64BitIntelReal64
                0x4806929c                buf2Var64BitIntelSint32
                0x48069dcc                var2BufGenFrameMotorolaReal32
                0x48067df0                var2Buf64BitMotorolaSint8
                0x4806aab0                formulaOutReal64
                0x480672d0                var2BufSimpleSint8
                0x4806a50c                buf2VarGenFrameIntelSint8
                0x4806aacc                formulaInReal64
                0x480677c0                var2Buf64BitMotorolaReal64
                0x48067234                var2BufSimpleSint16
                0x4806a10c                var2BufGenFrameIntelUint8
                0x48069874                buf2VarBypassMotorolaReal32
                0x4806a8a4                buf2VarIndirectMotorolaUint32
                0x4806b324                var2BufGenFrameIntelReal64
                0x4806a684                var2BufIndirectMotorolaSint16
                0x4806872c                var2Buf64BitIntelSint16
                0x4806973c                var2BufBypassUint8
                0x48067454                buf2VarSimpleSint16
                0x4806bb7c                buf2VarIndirectIntelUint32
                0x48069ab4                var2BufBypassMaskedMotorolaSint32
                0x4806ba7c                buf2VarIndirectIntelSint16
                0x48067118                var2BufSimpleReal64
                0x480695a0                var2BufBypassMotorolaReal32
                0x4806776c                buf2VarByteOffsetUint8
                0x4806b12c                var2BufGenFrameIntelSint64
                0x4806bfd8                var2BufBypassMaskedIntelSint32
                0x4806796c                var2Buf64BitMotorolaSint64
                0x4806c0d8                buf2VarBypassIntelSint16
                0x4806712c                var2BufSimpleReal32
                0x480697d4                var2BufBypassBool
                0x48068a90                var2Buf64BitIntelBool
 .text          0x4806c424      0xee4 C:\Program Files (x86)\ETAS\INTECRIO5.0\Target\Etarget\ES910\libtarget.a(i_osman.o)
                0x4806d10c                etasRemoveStopUserModeCallback
                0x4806c978                activateTaskWithId
                0x4806c4e0                findCurAppModeName
                0x4806c64c                getTaskIdForTask
                0x4806c750                clearMeasureGroupForTask
                0x4806c7e8                clearLogGroupForTask
                0x4806cfe8                etasInitTaskTerminationHook
                0x4806c82c                isModelStarted
                0x4806c448                getEEId
                0x4806c57c                getTaskPtrForId
                0x4806d2d0                etasAddInitTaskTerminationCallback
                0x4806c854                updateUserModeState
                0x4806d298                etasAddStopUserModeCallback
                0x4806cee4                etasStopUserModeHook
                0x4806c424                etasInitOsProcess
                0x4806c68c                findCurTaskName
                0x4806c774                setMeasureGroupForTask
                0x4806c80c                setLogGroupForTask
                0x4806d144                etasRemoveInitTaskTerminationCallback
 .text          0x4806d308     0x73e0 C:\Program Files (x86)\ETAS\INTECRIO5.0\Target\Etarget\ES910\libtarget.a(i_rtioma.o)
                0x4806d344                rtioCheckStartup
                0x4806d3a0                registerRtioDriverLockedCallback
                0x4806d394                etasRtioInitProcess
                0x48074090                rtioHook
                0x480738d8                rtioSignalDriverLock
                0x4806d39c                etasRtioExitProcess
                0x480737a4                etasRtioIntDisableProcess
                0x4806d338                rtioSetConfigState
                0x4806d420                deRegisterRtioDriverLockedCallback
                0x480737f8                rtioSignalDriverUnlock
                0x480737c4                etasRtioStartupProcess
                0x4806d32c                rtioGetConfigState
                0x4806d4a4                rtioGetDriverLockedState
                0x4806d388                rtioIsOsExpertModeActive
                0x4806d37c                rtioGetHwAbsenceBehavior
                0x4806d308                rtioSetLogPort
                0x4806d398                etasRtioIntEnableProcess
                0x4806d314                rtioSetConfigId
 .text          0x480746e8      0x550 C:\Program Files (x86)\ETAS\INTECRIO5.0\Target\Etarget\ES910\libtarget.a(i_salone.o)
                0x48074be4                crossbarPrepareReconnection
                0x480749f4                crossbarGetNextConfigResponse
                0x48074850                playbackConfigL1Records
                0x48074b90                rtioPrepareReconnection
                0x48074af8                crossbarFinishReconnection
                0x48074988                rtioGetNextConfigResponse
                0x48074a60                rtioFinishReconnection
 .text          0x48074c38     0x1830 C:\Program Files (x86)\ETAS\INTECRIO5.0\Target\Etarget\ES910\libtarget.a(t_croman.o)
                0x48074c44                crossbarSetConfigId
                0x48074c5c                crossbarGetConfigState
                0x48074c38                crossbarSetLogPort
                0x48074c68                crossbarSetConfigState
                0x480763c4                crossbarHook
 .text          0x48076468      0xcb0 C:\Program Files (x86)\ETAS\INTECRIO5.0\Target\Etarget\ES910\libtarget.a(t_crosll.o)
                0x4807673c                createCopyObjectContainer
                0x480767b8                insertObjectIntoCopyLists
                0x48076a3c                commonCreateCopyAction
                0x48076fbc                cromanExecuteObj
                0x48076468                internalDeleteCopyAction
                0x4807690c                createInsertVector
 .text          0x48077118     0x1cf0 C:\Program Files (x86)\ETAS\INTECRIO5.0\Target\Etarget\ES910\libtarget.a(t_nvram.o)
                0x4807724c                nvramClear
                0x480771fc                nvramEnableAutoUpdate
                0x48077284                nvramResetStatistics
                0x48077118                nvramSetUpdateInterval
                0x480771f0                nvramGetConsistencyLevel
                0x480783ac                nvramUpdateMemoryBackground
                0x4807880c                nvramInit
                0x48077240                nvramCheckRunningUpdate
                0x48078310                nvramManualUpdateExit
                0x480781d8                nvramManualUpdateBackground
                0x48077230                nvramCheckForAutoUpdate
                0x4807859c                nvramInitModelVars
                0x48077278                nvramCheckForInitializedVars
                0x480777a8                nvramGetUpdateAgeMs
                0x480780a4                nvramManualUpdateBlocked
                0x480771d0                nvramSetConsistencyLevel
                0x48077218                nvramDisableAutoUpdate
                0x480772e8                nvramGetStatistics
                0x4807716c                nvramGetUpdateInterval
 .text          0x48078e08      0x6ec C:\Program Files (x86)\ETAS\INTECRIO5.0\Target\Etarget\ES910\libtarget.a(t_objlis.o)
                0x480793fc                createObjList
                0x48078e08                dumpObjList
 .text          0x480794f4      0xcd8 C:\Program Files (x86)\ETAS\INTECRIO5.0\Target\Etarget\ES910\libtarget.a(t_rtcros.o)
                0x4807970c                getObjectFromDynamicInstanceTree
                0x48079500                deleteInstance_container
                0x48079bb0                removeObjectFromDynamicInstanceTree
                0x4807959c                initInstance_container
                0x48079d80                getValuePtr
                0x48079c98                addObjectToDynamicInstanceTree
                0x48079b2c                getNextFreeRefIdOfDynamicInstanceTree
                0x480794f4                rtcrosSetLogPort
                0x480796dc                createDynamicInstanceTree
                0x48079df8                processBlockCommands
 .text          0x4807a1cc     0x1b38 C:\Program Files (x86)\ETAS\INTECRIO5.0\Target\Etarget\ES910\libtarget.a(t_sgman.o)
                0x4807bbc8                sgHook
                0x4807a32c                sgGetComVarPtr
                0x4807bb8c                deleteComVarCallback
                0x4807a1cc                sgGetCurTime
                0x4807bb30                sgGetObjPtr
 .text          0x4807bd04     0x14d0 C:\Program Files (x86)\ETAS\INTECRIO5.0\Target\Etarget\ES910\libtarget.a(y_primit.o)
                0x4807c608                initInstance_columnDirMatrixWrapper
                0x4807d0c4                initInstance_charTable1Wrapper
                0x4807cb60                initInstance_columnDirGroupCharTable2Wrapper
                0x4807c76c                initInstance_matrixWrapper
                0x4807cd60                initInstance_groupCharTable1Wrapper
                0x4807ca20                initInstance_scalarWrapper
                0x4807cc60                initInstance_groupCharTable2Wrapper
                0x4807c8d0                initInstance_vectorWrapper
                0x4807cf88                initInstance_charTable2Wrapper
                0x4807ce4c                initInstance_columnDirCharTable2Wrapper
 .text          0x4807d1d4     0x19c0 C:\Program Files (x86)\ETAS\INTECRIO5.0\Target\Etarget\ES910\libtarget.a(a1b_dacq.o)
                0x4807d2c4                getA1bGroup
                0x4807e54c                instanciateA1bChannel
                0x4807da5c                getA1bChannelGroupUpdateOffline
                0x4807e974                storeA1bDataForGroup
                0x4807e010                destructA1bChannelGroup
                0x4807e348                instanciateA1bGroup
                0x4807e0e8                freeA1bMeasureBuffers
                0x4807e954                allocateA1bMeasureBuffers
                0x4807d280                addA1bChannelToA1bGroup
                0x4807ddf8                destructA1bChannel
                0x4807d360                removeA1bChannelFromA1bGroup
 .text          0x4807eb94     0x1060 C:\Program Files (x86)\ETAS\INTECRIO5.0\Target\Etarget\ES910\libtarget.a(a_contai.o)
                0x4807f2a4                dVectorRewindHeadReentrant
                0x4807f1e8                dVectorRemoveObject
                0x4807f374                dVectorCreate
                0x4807ebec                dListGetObjectForward
                0x4807eee8                dTableRemoveLastObject
                0x4807f920                dTableDelete
                0x4807f03c                dVectorGetObject
                0x4807ebd4                dListRewindTailReentrant
                0x4807f3cc                dTableCreate
                0x4807eda4                dTableGetObject
                0x4807ee40                dTableIsEmpty
                0x4807f024                dTableNofObjects
                0x4807ec44                dListGetObjectBackward
                0x4807f748                dTableAddObject
                0x4807f8ec                dTableDeleteStatic
                0x4807f150                dVectorRemoveLastObject
                0x4807f0c8                dVectorRemoveFirstObject
                0x4807ee60                dTableRemoveFirstObject
                0x4807ebc0                dListRewindTail
                0x4807f4c8                dListAddObjectHead
                0x4807fb94                dListDelete
                0x4807f964                dListRemoveObject
                0x4807ec9c                dListGetObjectAtIndex
                0x4807f5ac                dVectorAddObject
                0x4807ec70                dListGetObjectBackwardReentrant
                0x4807ed70                dTableCreateStatic
                0x4807ec18                dListGetObjectForwardReentrant
                0x4807f068                dVectorRemoveObjectAtIndex
                0x4807f2ac                dVectorGetObjectForwardReentrant
                0x4807f300                dVectorGetIndexOfLastEntry
                0x4807fa64                dListRemoveObjectTail
                0x4807f424                dListAddObjectTail
                0x4807eddc                dTableRemoveObject
                0x4807f704                dVectorDelete
                0x4807fafc                dListRemoveObjectHead
                0x4807f284                dVectorIsEmpty
                0x4807ed2c                dListIsEmpty
                0x4807f570                dListCreate
                0x4807ef80                dTableTestFunc
                0x4807f2e8                dVectorNofObjects
                0x4807eb94                dListRewindHead
                0x4807ed58                dListNofObjects
                0x4807eba8                dListRewindHeadReentrant
 .text          0x4807fbf4      0x498 C:\Program Files (x86)\ETAS\INTECRIO5.0\Target\Etarget\ES910\libtarget.a(i_transf.o)
                0x4807fe90                transferToMatrix
                0x4807fc90                transferToVector
                0x4807fbf4                transferFromVector
                0x4807fd2c                transferFromMatrix
                0x4807fff4                transferDirect
 .text          0x4808008c     0x2378 C:\Program Files (x86)\ETAS\INTECRIO5.0\Target\Etarget\ES910\libtarget.a(t_sglow.o)
                0x48080fe8                freeDataSignal
                0x48081418                makeDataSignal
                0x48080bfc                computeTimeSliceTimes
                0x480808c4                setSinewaveSignal
                0x480802b8                getIntervalNr
                0x48080efc                deleteTimeSlice
                0x48082168                freeChannel
                0x48081450                makeLinearSignal
                0x4808225c                freeStimuliSet
                0x48080a1c                setIntervalPulseSignal
                0x4808104c                freeInterval
                0x480809d0                setPulseSignal
                0x48080ba8                setTimeSlice
                0x480801f0                insertTimeSlice
                0x480812ac                makeSinewaveSignal
                0x480817e8                makeIntervalDataSignal
                0x48080674                binsearch
                0x48080f88                freeRandomSignal
                0x480805b0                getLinearSignalY
                0x480801a4                getTimeSliceNr
                0x48080ce0                getTimeSliceT
                0x480819bc                getRandomSignalY
                0x48080fa8                freePulseSignal
                0x48080adc                setRandomSignal
                0x48081eb8                getChannelY
                0x480813c8                setIntervalDataSignal
                0x48081bdc                getSinewaveSignalY
                0x48082370                makeStimuliSet
                0x480803d8                computeIntervalTimes
                0x48080518                setIntervalLinearSignal
                0x48081160                makeTimeSlice
                0x48081474                makeIntervalRandomSignal
                0x480800d8                insertChannel
                0x48080304                insertInterval
                0x48080b10                setIntervalRandomSignal
                0x4808042c                computeChannelTimes
                0x48081590                makeIntervalPulseSignal
                0x480804e4                setLinearSignal
                0x48080c64                computeStimuliSetTimes
                0x4808122c                makeFunctionSignal
                0x4808008c                getChannelNr
                0x480820f4                resetStimuliSet
                0x480810dc                deleteInterval
                0x48080d94                getT
                0x480822e8                makeChannel
                0x48081264                makeRandomSignal
                0x480803cc                resetInterval
                0x48081d08                getIntervalY
                0x48081a84                getPulseSignalY
                0x48080910                setIntervalSinewaveSignal
                0x48081288                makePulseSignal
                0x48080edc                freeTimeSlice
                0x48080be8                resetTimeSlice
                0x48080718                getDataSignalY
                0x48080fc8                freeSinewaveSignal
                0x4808102c                freeLinearSignal
                0x480821d8                deleteChannel
                0x480818a4                makeIntervalLinearSignal
                0x480812d0                setDataSignal
                0x48082024                resetChannel0
                0x480816bc                makeIntervalSinewaveSignal
 .text          0x48082404        0x0 C:\Program Files (x86)\ETAS\INTECRIO5.0\Target\Etarget\rtio\global\es910\librtio_gnu.a(comm_err.o)
 .text          0x48082404       0xa0 C:\Program Files (x86)\ETAS\INTECRIO5.0\Target\Etarget\rtio\global\es910\librtio_gnu.a(p_rtio.o)
                0x48082404                rtioSignalHwAccessEnd
                0x4808245c                rtioSignalHwAccessBegin
 .text          0x480824a4      0xd38 C:\Program Files (x86)\ETAS\INTECRIO5.0\Target\Etarget\rtio\global\es910\librtio_gnu.a(p_rtio_s.o)
                0x48083198                setupRTIO
                0x48082b88                es910IsEtherCATEnabled
                0x480824b0                getMasterId
                0x480826c8                rtioHwDetect
                0x48082c94                rtioTestBoardPresence
                0x480825a0                printDetectedHardware
                0x480824cc                rtioGetNextDetectedHwTableEntry
                0x480824a4                es910RtioGetFpgaRegsGlobal
                0x48083110                es910RtioMapFpgaRegsGlobal
                0x4808306c                es910RtioUnmapFpgaRegsGlobal
                0x480824b8                rtioRewindDetectedHwTable
                0x48082c20                es910RtioIntDisable
 .text          0x480831dc      0xe18 C:\Program Files (x86)\ETAS\INTECRIO5.0\Target\Etarget\rtio\global\es910\librtio_gnu.a(rtio_err.o)
                0x480833b8                clearErrMsgList
                0x48083314                deactivateRtioMsgLists
                0x48083280                installEtasPseudoGeoAdrBoardNames
                0x4808325c                installCommErrMessages
                0x4808328c                installUserBoardNames
                0x480831dc                initMessageTables
                0x4808334c                getNextErrMsg
                0x48083510                rtioGetBoardName
                0x48083274                installEtasAutoIdBoardNames
                0x48083c9c                rtioErr
                0x4808323c                mapErrorCode
                0x48083298                installEtasVirtualBoardNames
                0x480832a4                installMessages
                0x480835a4                rtio_err_v3
                0x48083328                rewindErrMsgList
                0x48083440                clearCurErrMsg
                0x48083304                activateRtioMsgLists
                0x48083a18                rtioErrV2
                0x48083268                installEtasBoardNames
 .text          0x48083ff4      0x638 C:\Program Files (x86)\ETAS\INTECRIO5.0\Target\Etarget\rtio\global\es910\librtio_gnu.a(fhc_emu.o)
                0x48083ff4                fhc_get_module_name_port_name
                0x480842ac                fhc_check_port_presence_rp
 .text          0x4808462c      0x798 C:\Program Files (x86)\ETAS\INTECRIO5.0\Target\Etarget\ES910\rta_osek\librtk_s.a(ostarget.o)
                0x4808462c                os_get_sw_int_info
                0x48084948                os_pre_start
                0x48084800                os_detach_interrupts
                0x480846b4                os_generate_sw_int
 .text          0x48084dc4       0x30 C:\Program Files (x86)\ETAS\INTECRIO5.0\Target\Etarget\ES910\rta_osek\librtk_s.a(osfptgt.o)
                0x48084dc4                os_fp_save
                0x48084df0                os_fp_restore_from
                0x48084dd8                os_fp_restore
                0x48084dec                os_fp_save_to
 .text          0x48084df4       0x94 C:\Program Files (x86)\ETAS\INTECRIO5.0\Target\Etarget\ES910\rta_osek\librtk_s.a(osiwrap1.o)
                0x48084df4                os_cat1_wrapper
 .text          0x48084e88      0x288 C:\Program Files (x86)\ETAS\INTECRIO5.0\Target\Etarget\ES910\rta_osek\librtk_s.a(osxdspnf.o)
                0x48084e88                osek_dispatchN2F
 .text          0x48085110      0x10c C:\Program Files (x86)\ETAS\INTECRIO5.0\Target\Etarget\ES910\rta_osek\librtk_s.a(osysd1hf.o)
                0x48085110                os_fdispH1
 .text          0x4808521c      0x2d4 C:\Program Files (x86)\ETAS\INTECRIO5.0\Target\Etarget\ES910\rta_osek\librtk_s.a(osysdfhf.o)
                0x4808521c                os_fdispH2F
 .text          0x480854f0      0x2cc C:\Program Files (x86)\ETAS\INTECRIO5.0\Target\Etarget\ES910\rta_osek\librtk_s.a(osysdfhi.o)
                0x480854f0                os_idispH2F
 .text          0x480857bc       0x34 C:\Program Files (x86)\ETAS\INTECRIO5.0\Target\Etarget\ES910\rta_osek\librtk_s.a(ostgid.o)
                0x480857bc                GetTaskID
 .text          0x480857f0      0x174 C:\Program Files (x86)\ETAS\INTECRIO5.0\Target\Etarget\ES910\rta_osek\librtk_s.a(ostschf.o)
                0x480857f0                ScheduleSW2F
 .text          0x48085964       0x50 C:\Program Files (x86)\ETAS\INTECRIO5.0\Target\Etarget\ES910\rta_osek\librtk_s.a(osieai.o)
                0x48085964                EnableAllInterrupts
 .text          0x480859b4       0x60 C:\Program Files (x86)\ETAS\INTECRIO5.0\Target\Etarget\ES910\rta_osek\librtk_s.a(osidai.o)
                0x480859b4                DisableAllInterrupts
 .text          0x48085a14       0x98 C:\Program Files (x86)\ETAS\INTECRIO5.0\Target\Etarget\ES910\rta_osek\librtk_s.a(osisoi.o)
                0x48085a14                SuspendOSInterrupts
 .text          0x48085aac       0x68 C:\Program Files (x86)\ETAS\INTECRIO5.0\Target\Etarget\ES910\rta_osek\librtk_s.a(osirai.o)
                0x48085aac                ResumeAllInterrupts
 .text          0x48085b14       0x84 C:\Program Files (x86)\ETAS\INTECRIO5.0\Target\Etarget\ES910\rta_osek\librtk_s.a(osisai.o)
                0x48085b14                SuspendAllInterrupts
 .text          0x48085b98       0x70 C:\Program Files (x86)\ETAS\INTECRIO5.0\Target\Etarget\ES910\rta_osek\librtk_s.a(osxperr2.o)
                0x48085b98                os_pre_errorhook2
 .text          0x48085c08        0x0 C:\Program Files (x86)\ETAS\INTECRIO5.0\Target\Etarget\ES910\rta_osek\librtk_s.a(osxglobs.o)
 .text          0x48085c08      0x104 C:\Program Files (x86)\ETAS\INTECRIO5.0\Target\Etarget\ES910\rta_osek\librtk_s.a(osostart.o)
                0x48085c08                StartOS
 .text          0x48085d0c       0x6c C:\Program Files (x86)\ETAS\INTECRIO5.0\Target\Etarget\ES910\rta_osek\librtk_s.a(ososhuth.o)
                0x48085d0c                ShutdownOSH
 .text          0x48085d78       0x34 C:\Program Files (x86)\ETAS\INTECRIO5.0\Target\Etarget\ES910\rta_osek\librtk_s.a(osttermh.o)
                0x48085d78                TerminateTaskH
 .text          0x48085dac      0x2d8 C:\Program Files (x86)\ETAS\INTECRIO5.0\Target\Etarget\ES910\rta_osek\librtk_s.a(ostactsf.o)
                0x48085dac                ActivateTaskSW2F
 .text          0x48086084      0x284 C:\Program Files (x86)\ETAS\INTECRIO5.0\Target\Etarget\ES910\rta_osek\librtk_s.a(ostactnf.o)
                0x48086084                ActivateTaskNS2F
 .text          0x48086308      0x100 C:\Program Files (x86)\ETAS\INTECRIO5.0\Target\Etarget\ES910\rta_osek\librtk_s.a(osatickn.o)
                0x48086308                osek_tick_alarm
 .text          0x48086408       0xbc C:\Program Files (x86)\ETAS\INTECRIO5.0\Target\Etarget\ES910\rta_osek\librtk_s.a(osacallb.o)
                0x48086408                osek_alarm_callback
 .text          0x480864c4       0x20 C:\Program Files (x86)\ETAS\INTECRIO5.0\Target\Etarget\ES910\rta_osek\librtk_s.a(osxdpsho.o)
                0x480864c4                os_pre_ShutdownOS
 .text          0x480864e4      0x170 C:\Program Files (x86)\ETAS\INTECRIO5.0\Target\Etarget\ES910\rta_osek\librtk_s.a(osiwrap.o)
                0x480864e4                os_wrapper
 .text          0x48086654       0xd0 C:\Program Files (x86)\ETAS\INTECRIO5.0\Target\Etarget\ES910\rta_osek\librtk_s.a(osxjmp.o)
                0x480866b8                os_longjmp
                0x48086654                os_setjmp
 .text          0x48086724       0x5c C:\Program Files (x86)\ETAS\INTECRIO5.0\Target\Etarget\ES910\rta_osek\librtk_s.a(ososhutn.o)
                0x48086724                ShutdownOSN
 .text          0x48086780      0x528 C:\Program Files (x86)\ETAS\INTECRIO5.0\Target\Etarget\ES910\libcommon.a(p_execl1.o)
                0x480868d4                execInternal
                0x48086780                getMethodTab
                0x480867d0                getNumberOfVariables
                0x480869d4                executeMethod
                0x480867f8                getASDObjectForPseudoAddress
                0x48086b0c                classVarAt
                0x48086a60                respondsTo
                0x480867a8                getNumberOfMethods
                0x48086bdc                instVarAt
 .text          0x48086ca8      0x8d4 C:\Program Files (x86)\ETAS\INTECRIO5.0\Target\Etarget\ES910\libcommon.a(p_protl1.o)
                0x48087064                addL1PseudoAddressNoOffset
                0x48087514                addString
                0x480873d8                removeString
                0x4808714c                removeL1PseudoAddressNoOffset
                0x48086ca8                newL1Message
                0x48086f04                removeScalar
                0x48086d48                resetL1PriorityError
                0x48087484                addBlock
                0x48086d24                setL1ErrorNumber
                0x48086d3c                requestL1PriorityError
                0x48086cd0                modifyL1Destination
                0x48086ce8                dummyL1Message
                0x48086e60                addScalar
                0x48086d58                getL1ErrorStatus
                0x480870c8                addL1PseudoAddress
                0x48087258                logPseudoAddress
                0x48086e48                isL1MessageEmpty
                0x4808734c                removeBlock
                0x48086fa8                addL1PseudoAddressNoLevelNoOffset
                0x48086d10                resetL1Message
 .text          0x4808757c      0x254 C:\Program Files (x86)\ETAS\INTECRIO5.0\Target\Etarget\ES910\libcommon.a(p_stdeb.o)
                0x480876ac                asdIsStringContainedInObject
                0x48087668                asdClearString
                0x48087708                asdWriteString
 .text          0x480877d0      0x3e0 Car_State1/Car_State1.a(Car_State_main.o)
                0x48087948                irt_Terminate_Car_State
                0x48087a54                irt_Start_Car_State
                0x480879cc                irt_OneStep_Car_State
 .text          0x48087bb0       0x64 Car_State1/Car_State1.a(rt_sim.o)
                0x48087bb0                rt_SimInitTimingEngine_Car_State
                0x48087c10                rt_SimUpdateDiscreteTaskSampleHits_Car_State
                0x48087bdc                rt_SimGetNextSampleHit_Car_State
 .text          0x48087c14      0x3e0 Disconnections1/Disconnections1.a(Disconnections_main.o)
                0x48087d8c                irt_Terminate_Disconnections
                0x48087e98                irt_Start_Disconnections
                0x48087e10                irt_OneStep_Disconnections
 .text          0x48087ff4       0x64 Disconnections1/Disconnections1.a(rt_sim.o)
                0x48087ff4                rt_SimInitTimingEngine_Disconnections
                0x48088054                rt_SimUpdateDiscreteTaskSampleHits_Disconnections
                0x48088020                rt_SimGetNextSampleHit_Disconnections
 .text          0x48088058      0x3e0 Ellipse1/Ellipse1.a(Ellipse_main.o)
                0x480882dc                irt_Start_Ellipse
                0x480881d0                irt_Terminate_Ellipse
                0x48088254                irt_OneStep_Ellipse
 .text          0x48088438       0x64 Ellipse1/Ellipse1.a(rt_sim.o)
                0x48088498                rt_SimUpdateDiscreteTaskSampleHits_Ellipse
                0x48088438                rt_SimInitTimingEngine_Ellipse
                0x48088464                rt_SimGetNextSampleHit_Ellipse
 .text          0x4808849c      0x3e0 Inverters_Action1/Inverters_Action1.a(Inverters_Action_main.o)
                0x48088698                irt_OneStep_Inverters_Action
                0x48088614                irt_Terminate_Inverters_Action
                0x48088720                irt_Start_Inverters_Action
 .text          0x4808887c       0x64 Inverters_Action1/Inverters_Action1.a(rt_sim.o)
                0x4808887c                rt_SimInitTimingEngine_Inverters_Action
                0x480888a8                rt_SimGetNextSampleHit_Inverters_Action
                0x480888dc                rt_SimUpdateDiscreteTaskSampleHits_Inverters_Action
 .text          0x480888e0      0x3e0 Inverters_Data1/Inverters_Data1.a(Inverters_Data_main.o)
                0x48088b64                irt_Start_Inverters_Data
                0x48088a58                irt_Terminate_Inverters_Data
                0x48088adc                irt_OneStep_Inverters_Data
 .text          0x48088cc0       0x64 Inverters_Data1/Inverters_Data1.a(rt_sim.o)
                0x48088cc0                rt_SimInitTimingEngine_Inverters_Data
                0x48088cec                rt_SimGetNextSampleHit_Inverters_Data
                0x48088d20                rt_SimUpdateDiscreteTaskSampleHits_Inverters_Data
 .text          0x48088d24      0x3e0 Power_Control1/Power_Control1.a(Power_Control_main.o)
                0x48088fa8                irt_Start_Power_Control
                0x48088e9c                irt_Terminate_Power_Control
                0x48088f20                irt_OneStep_Power_Control
 .text          0x48089104       0x64 Power_Control1/Power_Control1.a(rt_sim.o)
                0x48089104                rt_SimInitTimingEngine_Power_Control
                0x48089164                rt_SimUpdateDiscreteTaskSampleHits_Power_Control
                0x48089130                rt_SimGetNextSampleHit_Power_Control
 .text          0x48089168      0x3e0 Sensors1/Sensors1.a(Sensors_main.o)
                0x480892e0                irt_Terminate_Sensors
                0x480893ec                irt_Start_Sensors
                0x48089364                irt_OneStep_Sensors
 .text          0x48089548       0x64 Sensors1/Sensors1.a(rt_sim.o)
                0x48089574                rt_SimGetNextSampleHit_Sensors
                0x48089548                rt_SimInitTimingEngine_Sensors
                0x480895a8                rt_SimUpdateDiscreteTaskSampleHits_Sensors
 .text          0x480895ac      0x3e0 Synchronism1/Synchronism1.a(Synchronism_main.o)
                0x480897a8                irt_OneStep_Synchronism
                0x48089724                irt_Terminate_Synchronism
                0x48089830                irt_Start_Synchronism
 .text          0x4808998c       0x64 Synchronism1/Synchronism1.a(rt_sim.o)
                0x480899b8                rt_SimGetNextSampleHit_Synchronism
                0x480899ec                rt_SimUpdateDiscreteTaskSampleHits_Synchronism
                0x4808998c                rt_SimInitTimingEngine_Synchronism
 .text          0x480899f0      0x3e0 VDC1/VDC1.a(VDC_main.o)
                0x48089bec                irt_OneStep_VDC
                0x48089b68                irt_Terminate_VDC
                0x48089c74                irt_Start_VDC
 .text          0x48089dd0       0x64 VDC1/VDC1.a(rt_sim.o)
                0x48089dfc                rt_SimGetNextSampleHit_VDC
                0x48089e30                rt_SimUpdateDiscreteTaskSampleHits_VDC
                0x48089dd0                rt_SimInitTimingEngine_VDC
 .text          0x48089e34      0x408 SoC1/SoC1.a(SoC_main.o)
                0x4808a0dc                irt_Start_SoC
                0x4808a054                irt_OneStep_SoC
                0x48089fd0                irt_Terminate_SoC
 .text          0x4808a23c       0x64 SoC1/SoC1.a(rt_sim.o)
                0x4808a268                rt_SimGetNextSampleHit_SoC
                0x4808a29c                rt_SimUpdateDiscreteTaskSampleHits_SoC
                0x4808a23c                rt_SimInitTimingEngine_SoC
 .text          0x4808a2a0      0xf78 C:/Program Files (x86)/ETAS/INTECRIO5.0/Target/ETarget/rtio/es9xxcan/ES910/es9xxCan_gnu.lib(es9xxCan.o)
                0x4808a464                CanStop
                0x4808a2a0                CanIRQ0MultiAnalyze
                0x4808a36c                CanExit
                0x4808a820                CanInit
                0x4808a680                CanWrite
                0x4808a31c                CanIRQ0Acknowledge
                0x4808a750                CanRead
                0x4808a58c                CanStart
 .text          0x4808b218      0x964 C:/Program Files (x86)/ETAS/INTECRIO5.0/Target/ETarget/rtio/es9xxcan/ES910/es9xxCan_gnu.lib(es9xxCanCanio.o)
                0x4808b764                es9xxCanCanioInit
                0x4808b3f8                es9xxCanCanioStart
                0x4808b544                es9xxCanCanioWrite
                0x4808b4a8                es9xxCanCanioRead
                0x4808b218                es9xxCanCanioExit
                0x4808b348                es9xxCanCanioStop
 .text          0x4808bb7c        0x0 C:/Program Files (x86)/ETAS/INTECRIO5.0/Target/ETarget/rtio/es9xxcan/ES910/es9xxCan_gnu.lib(es9xxCanErr.o)
 .text          0x4808bb7c      0x664 C:/Program Files (x86)/ETAS/INTECRIO5.0/Target/ETarget/rtio/es9xxcan/ES910/es9xxCan_gnu.lib(es9xxCanHalBuf.o)
                0x4808bb84                es9xxCanHalBufIrqAnalyze
                0x4808beac                es9xxCanHalBufReadObj
                0x4808bb7c                es9xxCanHalBufIrqAck
                0x4808c07c                es9xxCanHalBufExit
                0x4808c0c0                es9xxCanHalBufDetectHW
                0x4808bca8                es9xxCanHalBufDisableIrq
                0x4808bca0                es9xxCanHalBufIrqReset
                0x4808bcb0                es9xxCanHalBufAlloc
 .text          0x4808c1e0      0x900 C:/Program Files (x86)/ETAS/INTECRIO5.0/Target/ETarget/rtio/es9xxcan/ES910/es9xxCan_gnu.lib(es9xxCanHalIfi.o)
                0x4808c928                es9xxCanHalIfiRemoteSend
                0x4808c1e0                es9xxCanHalIfiDetectHW
                0x4808c1e8                es9xxCanHalIfiExit
                0x4808c744                es9xxCanHalIfiNormalSend
                0x4808c210                es9xxCanHalIfiCheckCanState
                0x4808c1f0                es9xxCanHalIfiDefSndObj
                0x4808c200                es9xxCanHalIfiDelObj
                0x4808c208                es9xxCanHalIfiNormalRtrSupply
                0x4808c698                es9xxCanHalIfiInitLowHighSpeed
                0x4808cabc                es9xxCanHalIfiResetBoardSW
 .text          0x4808cae0       0x40 C:/ETAS/Compiler/INTECRIO5.0/QNXCompiler-V6.5\host\win32\x86/usr/lib/gcc/powerpc-unknown-nto-qnx6.5.0/4.4.2/spe/libgcc.a(_floatdidf.o)
                0x4808cae0                __floatdidf
 .text          0x4808cb20     0x2f10 C:\Program Files (x86)\ETAS\INTECRIO5.0\Target\Etarget\ES910\libes910.a(t_dataset.o)
                0x4808db54                dsetDeleteParametersInRom
                0x4808cb20                dsetCheckParametersRestoredFromRom
                0x4808ddd0                dsetCopyDataset
                0x4808dcb8                dsetStoreParametersToRom
                0x4808d2c4                dsetSwitchToWorkingPage
                0x4808e0b4                dsetCalculateCrc32
                0x4808d3e0                dsetRestoreParametersFromRom
                0x4808e46c                dsetReadDataset
                0x4808d928                dsetStoreVariablesToRam
                0x4808cb2c                dsetGetErrorString
                0x4808ea08                dsetWriteDataset
                0x4808d204                dsetRestoreVariablesFromRam
                0x4808cb64                dsetGetCurrentPage
                0x4808f14c                dsetStoreReferencePage
                0x4808d9e4                dsetSwitchToReferencePage
                0x4808f478                dsetInit
 .text          0x4808fa30      0x178 C:\Program Files (x86)\ETAS\INTECRIO5.0\Target\Etarget\ES910\libtarget.a(crc32.o)
                0x4808faa8                update_crc_32
                0x4808fb0c                crc_32
 *(.gnu.warning)
 *(.glink)
 .glink         0x00000000        0x0 C:/ETAS/Compiler/INTECRIO5.0/QNXCompiler-V6.5\target\qnx6/ppcbe-spe/lib/crt1.o

.fini           0x4808fba8       0x20
 *(.fini)
 .fini          0x4808fba8        0xc C:/ETAS/Compiler/INTECRIO5.0/QNXCompiler-V6.5\target\qnx6/ppcbe-spe/lib/crti.o
                0x4808fba8                _fini
 .fini          0x4808fbb4        0x4 C:/ETAS/Compiler/INTECRIO5.0/QNXCompiler-V6.5\host\win32\x86/usr/lib/gcc/powerpc-unknown-nto-qnx6.5.0/4.4.2/spe/crtbegin.o
 .fini          0x4808fbb8       0x10 C:/ETAS/Compiler/INTECRIO5.0/QNXCompiler-V6.5\target\qnx6/ppcbe-spe/lib/crtn.o
                0x4808fbc8                PROVIDE (__etext, .)
                0x4808fbc8                PROVIDE (_etext, .)
                0x4808fbc8                PROVIDE (etext, .)

.rodata         0x4808fbc8    0x24470
 *(.rodata .rodata.* .gnu.linkonce.r.*)
 .rodata.cst8   0x4808fbc8       0x18 ROOT_instances.o
 .rodata.str1.4
                0x4808fbe0        0x9 ROOT_instances.o
 *fill*         0x4808fbe9        0x3 00
 .rodata        0x4808fbec       0x24 Car_State1/Car_State1.a(Car_State.o)
                0x4808fc0c                Car_State_M
 .rodata.cst8   0x4808fc10       0x90 Car_State1/Car_State1.a(Car_State.o)
                                 0x98 (size before relaxing)
 .rodata.str1.4
                0x4808fca0        0xc Car_State1/Car_State1.a(Car_State.o)
                                 0x10 (size before relaxing)
 .rodata        0x4808fcac        0x4 Disconnections1/Disconnections1.a(Disconnections.o)
                0x4808fcac                Disconnections_M
 .rodata.cst8   0x4808fcb0       0x68 Disconnections1/Disconnections1.a(Disconnections.o)
                                 0x98 (size before relaxing)
 .rodata.str1.4
                0x00000000       0x10 Disconnections1/Disconnections1.a(Disconnections.o)
 .rodata        0x4808fd18        0x4 Ellipse1/Ellipse1.a(Ellipse.o)
                0x4808fd18                Ellipse_M
 .rodata.cst8   0x00000000       0x28 Ellipse1/Ellipse1.a(Ellipse.o)
 .rodata.str1.4
                0x00000000       0x10 Ellipse1/Ellipse1.a(Ellipse.o)
 .rodata        0x4808fd1c       0xc8 Inverters_Action1/Inverters_Action1.a(Inverters_Action.o)
                0x4808fde0                Inverters_Action_M
 *fill*         0x4808fde4        0x4 00
 .rodata.cst8   0x4808fde8        0x8 Inverters_Action1/Inverters_Action1.a(Inverters_Action.o)
                                 0x38 (size before relaxing)
 .rodata.str1.4
                0x00000000       0x10 Inverters_Action1/Inverters_Action1.a(Inverters_Action.o)
 .rodata        0x4808fdf0        0x4 Inverters_Data1/Inverters_Data1.a(Inverters_Data.o)
                0x4808fdf0                Inverters_Data_M
 *fill*         0x4808fdf4        0x4 00
 .rodata.cst8   0x4808fdf8       0x20 Inverters_Data1/Inverters_Data1.a(Inverters_Data.o)
                                 0x58 (size before relaxing)
 .rodata.str1.4
                0x00000000       0x10 Inverters_Data1/Inverters_Data1.a(Inverters_Data.o)
 .rodata        0x4808fe18        0x4 Power_Control1/Power_Control1.a(Power_Control.o)
                0x4808fe18                Power_Control_M
 *fill*         0x4808fe1c        0x4 00
 .rodata.cst8   0x4808fe20       0x60 Power_Control1/Power_Control1.a(Power_Control.o)
                                 0x80 (size before relaxing)
 .rodata.str1.4
                0x00000000       0x10 Power_Control1/Power_Control1.a(Power_Control.o)
 .rodata        0x4808fe80        0x4 Sensors1/Sensors1.a(Sensors.o)
                0x4808fe80                Sensors_M
 *fill*         0x4808fe84        0x4 00
 .rodata.cst8   0x4808fe88       0x58 Sensors1/Sensors1.a(Sensors.o)
                                 0x88 (size before relaxing)
 .rodata.str1.4
                0x00000000       0x10 Sensors1/Sensors1.a(Sensors.o)
 .rodata        0x4808fee0        0x4 Synchronism1/Synchronism1.a(Synchronism.o)
                0x4808fee0                Synchronism_M
 *fill*         0x4808fee4        0x4 00
 .rodata.cst8   0x4808fee8        0x8 Synchronism1/Synchronism1.a(Synchronism.o)
                                 0x30 (size before relaxing)
 .rodata.str1.4
                0x00000000       0x10 Synchronism1/Synchronism1.a(Synchronism.o)
 .rodata        0x4808fef0        0x4 VDC1/VDC1.a(VDC.o)
                0x4808fef0                VDC_M
 *fill*         0x4808fef4        0x4 00
 .rodata.cst8   0x4808fef8       0x68 VDC1/VDC1.a(VDC.o)
                                 0xd0 (size before relaxing)
 .rodata.str1.4
                0x00000000       0x10 VDC1/VDC1.a(VDC.o)
 .rodata        0x4808ff60       0x4c SoC1/SoC1.a(SoC.o)
                0x4808ffa8                SoC_M
 .rodata.cst4   0x4808ffac       0x30 SoC1/SoC1.a(SoC.o)
 *fill*         0x4808ffdc        0x4 00
 .rodata.cst8   0x4808ffe0       0x18 SoC1/SoC1.a(SoC.o)
                                 0x50 (size before relaxing)
 .rodata.str1.4
                0x4808fff8        0x5 SoC1/SoC1.a(SoC.o)
                                 0x18 (size before relaxing)
 *fill*         0x4808fffd        0x3 00
 .rodata        0x48090000    0x10868 matlabsharedR2023b/matlabsharedR2023b.a(const_params.o)
                0x48095790                rtCP_pooled_PuC9JhhY74Rz
                0x48093750                rtCP_pooled_Ie8v1ZM5rKrP
                0x48092988                rtCP_pooled_BbJYiBpMf0uY
                0x4809ccd0                rtCP_pooled_jUsUUGpuyc2a
                0x48099a18                rtCP_pooled_YAgOMnKWNQuq
                0x4809c540                rtCP_pooled_ga4GCJFGTB0C
                0x4809d360                rtCP_pooled_kyjvwdftBcJU
                0x48090000                rtCP_pooled_0U5AzDCzi3IO
                0x48093fe8                rtCP_pooled_OdK9RMALAxu4
                0x48095990                rtCP_pooled_SI1lTfM0hgYl
                0x48093908                rtCP_pooled_MFKGCu1mzbkT
                0x480930c0                rtCP_pooled_GWJogR1aJ1Jf
                0x48090080                rtCP_pooled_25mX6Qlkdd1u
                0x48097970                rtCP_pooled_WBlvnMM8xbHh
                0x48090710                rtCP_pooled_3AOW4VeladUB
                0x48092a30                rtCP_pooled_EqM5DYWQxJJA
                0x4809b820                rtCP_pooled_bEo7inzzWSqd
                0x4809a178                rtCP_pooled_ZpbXLC1hcnDi
                0x48093f98                rtCP_pooled_Nhz2zeISYe1y
                0x4809d9f0                rtCP_pooled_mpFrepPHolRC
                0x48090da0                rtCP_pooled_49OGFs0T58UH
                0x48091be8                rtCP_pooled_7kRMiFbntIfH
                0x48092278                rtCP_pooled_AEgRRewNRVc5
                0x4809f4b8                rtCP_pooled_vCkSv7es2M01
                0x48099ae8                rtCP_pooled_ZaxtwqXNkspn
                0x4809fb48                rtCP_pooled_vKD1GzkGkci8
                0x48097c90                rtCP_pooled_WLloasCl3Kzu
                0x48099a98                rtCP_pooled_ZM3UwiblDaMD
                0x48098320                rtCP_pooled_WWI5lQmswkwy
                0x48091430                rtCP_pooled_4qCoouguxkpH
                0x480952a8                rtCP_pooled_OiY3MRzyvx26
                0x480922f8                rtCP_pooled_Az5ddWfDfm7b
                0x48093758                rtCP_pooled_JOqMvXAXZOeU
                0x4809efd0                rtCP_pooled_t8tfN5Vo0MrJ
                0x48091ac0                rtCP_pooled_5oKeY20vXm8x
                0x4809c640                rtCP_pooled_jR5ZIUXsAn8m
                0x48096020                rtCP_pooled_TcTn58UI0rXs
                0x48091b40                rtCP_pooled_6QV4OqumygMa
                0x480a01d8                rtCP_pooled_yXiygVcEbVhN
                0x480972e0                rtCP_pooled_VrP3MjW4C1Y1
                0x48095940                rtCP_pooled_QZVScg5DIQdS
                0x4809c5c0                rtCP_pooled_igefqBa1elSs
                0x4809dd10                rtCP_pooled_oMJiYJIODy9g
                0x4809beb0                rtCP_pooled_fxWA1Yt4ngAK
                0x48098370                rtCP_pooled_XKmiBmHD7gng
 .rodata.cst4   0x480a0868        0x8 matlabsharedR2023b/matlabsharedR2023b.a(rtgetinf.o)
 .rodata.cst8   0x00000000        0x8 matlabsharedR2023b/matlabsharedR2023b.a(rtgetinf.o)
 .rodata.cst8   0x00000000        0x8 matlabsharedR2023b/matlabsharedR2023b.a(rtgetnan.o)
 .rodata        0x480a0870      0x4e4 OSC/osekdefs.o
                0x480a09e4                SWT_CAN2_AP_ELLIPSE_EKF_VEL
                0x480a0a04                SWT_CAN1_AP_DASH_PrechargeRequest
                0x480a0a64                ISR_CAN1
                0x480a09dc                SWT_CAN2_AP_ELLIPSE_IMU_GYRO
                0x480a0a10                SWT_CAN1_NM_BMS_Keep_Alive
                0x480a0a30                SWT_CAN1_AP_BMS_SDC
                0x480a09d0                SWT_CAN2_NM_FECU_Keep_Alive
                0x480a09cc                SWT_CAN2_NM_RECU_Keep_Alive
                0x480a09f8                SWT_CAN2_AP_ELLIPSE_GPS_VEL
                0x480a09c4                SWT_CAN2_AP_FECU_Data1
                0x480a0a54                etasTimerIsr
                0x480a0a44                Timer_Inv
                0x480a0a08                SWT_CAN1_NM_DASH_Keep_Alive
                0x480a0a20                SWT_CAN1_AP_BMS_Temperatures
                0x480a0a3c                Timer_100ms
                0x480a0a4c                etasConfigTask
                0x480a0a5c                etasStopOsIsr
                0x480a0a84                TIMER_INV
                0x480a0a48                etasL1Task
                0x480a0a70                etasWatchdogAlarm
                0x480a0a00                SWT_CAN1_AP_DASH_EnableDrive
                0x480a0a1c                SWT_CAN1_AP_Inverter_R_Tx
                0x480a0a78                TIMER_1000MS
                0x480a0a80                TIMER_25MS
                0x480a0a2c                SWT_CAN1_AP_CurrentSensor
                0x480a0a60                etasActivateTaskIsr
                0x480a09fc                SWT_CAN2_AP_ELLIPSE_AUTO
                0x480a0a50                osek_idle_task
                0x480a0a18                SWT_CAN1_AP_Inverter_L_Tx
                0x480a0a38                Timer_1000ms
                0x480a09e0                SWT_CAN2_NM_ELLIPSE_Status
                0x480a09d8                SWT_CAN2_AP_ELLIPSE_VEL_Valid
                0x480a09c8                SWT_CAN2_AP_FECU_Data2
                0x480a0a74                SYNC_25MS
                0x480a0a58                etasL1Isr
                0x480a09e8                SWT_CAN2_AP_ELLIPSE_EKF_EULER
                0x480a0a7c                TIMER_100MS
                0x480a0a88                osek_s_3_1_0
                0x480a0a34                Sync_25ms
                0x480a0a68                ISR_CAN2
                0x480a0a28                SWT_CAN1_AP_BMS_Voltages
                0x480a0a24                SWT_CAN1_AP_BMS_ChargerParameters
                0x480a091c                RES_SCHEDULER
                0x480a09d4                SWT_CAN2_AP_RECU_Data
                0x480a0a6c                etasCounter
                0x480a09ec                SWT_CAN2_AP_ELLIPSE_IMU_ACCEL
                0x480a0a40                Timer_25ms
                0x480a0a0c                SWT_CAN1_AP_BMS_AIRs_State
                0x480a09f4                SWT_CAN2_MEAS_RECU_SDC
                0x480a0920                os_tasks
                0x480a09f0                SWT_CAN2_AP_ELLIPSE_EKF_POS
                0x480a0a14                SWT_CAN1_AP_DASH_Mode
 .rodata.str1.4
                0x480a0d54      0x38e OSC/osc_dyn.o
 *fill*         0x480a10e2        0x2 00
 .rodata        0x480a10e4     0x56bc ETC/RtioL1RecordTable.o
                0x480a6794                l1RtioRequestRecord
                0x480a10e4                rtioRequestMessages
 .rodata        0x480a67a0     0x497c CBC/CrossbarL1RecordTable.o
                0x480ab110                l1CrossbarRequestRecord
                0x480a67a0                crossbarRequestMessages
 *fill*         0x480ab11c        0x4 00
 .rodata.cst8   0x480ab120       0x10 C:/ETAS/Compiler/INTECRIO5.0/QNXCompiler-V6.5\host\win32\x86/usr/lib/gcc/powerpc-unknown-nto-qnx6.5.0/4.4.2/spe/libgcc.a(_fixunsdfdi.o)
 .rodata.cst8   0x00000000        0x8 C:/ETAS/Compiler/INTECRIO5.0/QNXCompiler-V6.5\host\win32\x86/usr/lib/gcc/powerpc-unknown-nto-qnx6.5.0/4.4.2/spe/libgcc.a(_floatundidf.o)
 .rodata        0x480ab130      0x1cb C:\Program Files (x86)\ETAS\INTECRIO5.0\Target\Etarget\ES910\libes910.a(i_rtautil.o)
 *fill*         0x480ab2fb        0x1 00
 .rodata.cst4   0x480ab2fc        0x4 C:\Program Files (x86)\ETAS\INTECRIO5.0\Target\Etarget\ES910\libes910.a(i_rtautil.o)
 .rodata.cst8   0x480ab300        0x8 C:\Program Files (x86)\ETAS\INTECRIO5.0\Target\Etarget\ES910\libes910.a(i_rtautil.o)
 .rodata.str1.4
                0x480ab308      0xc00 C:\Program Files (x86)\ETAS\INTECRIO5.0\Target\Etarget\ES910\libes910.a(i_rtautil.o)
                                0xc0c (size before relaxing)
 .rodata        0x480abf08       0xa4 C:\Program Files (x86)\ETAS\INTECRIO5.0\Target\Etarget\ES910\libes910.a(t_driverThreads.o)
 .rodata.str1.4
                0x480abfac      0x11b C:\Program Files (x86)\ETAS\INTECRIO5.0\Target\Etarget\ES910\libes910.a(t_driverThreads.o)
                                0x123 (size before relaxing)
 *fill*         0x480ac0c7        0x1 00
 .rodata.str1.4
                0x480ac0c8      0x1dc C:\Program Files (x86)\ETAS\INTECRIO5.0\Target\Etarget\ES910\libes910.a(t_idle.o)
 .rodata        0x480ac2a4       0xb7 C:\Program Files (x86)\ETAS\INTECRIO5.0\Target\Etarget\ES910\libes910.a(t_l1com.o)
 *fill*         0x480ac35b        0x1 00
 .rodata.str1.4
                0x480ac35c      0x8fe C:\Program Files (x86)\ETAS\INTECRIO5.0\Target\Etarget\ES910\libes910.a(t_l1com.o)
                                0x912 (size before relaxing)
 *fill*         0x480acc5a        0x2 00
 .rodata        0x480acc5c       0x4c C:\Program Files (x86)\ETAS\INTECRIO5.0\Target\Etarget\ES910\libes910.a(t_main.o)
 .rodata.str1.4
                0x480acca8      0x469 C:\Program Files (x86)\ETAS\INTECRIO5.0\Target\Etarget\ES910\libes910.a(t_main.o)
                                0x479 (size before relaxing)
 *fill*         0x480ad111        0x3 00
 .rodata        0x480ad114       0x18 C:\Program Files (x86)\ETAS\INTECRIO5.0\Target\Etarget\ES910\libes910.a(t_mlog.o)
 .rodata.str1.4
                0x480ad12c      0x2ab C:\Program Files (x86)\ETAS\INTECRIO5.0\Target\Etarget\ES910\libes910.a(t_mlog.o)
                                0x2eb (size before relaxing)
 *fill*         0x480ad3d7        0x1 00
 .rodata        0x480ad3d8       0x4a C:\Program Files (x86)\ETAS\INTECRIO5.0\Target\Etarget\ES910\libes910.a(t_qnxtargetutil.o)
 *fill*         0x480ad422        0x2 00
 .rodata.str1.4
                0x480ad424      0x374 C:\Program Files (x86)\ETAS\INTECRIO5.0\Target\Etarget\ES910\libes910.a(t_qnxtargetutil.o)
                                0x390 (size before relaxing)
 .rodata.cst8   0x00000000       0x20 C:\Program Files (x86)\ETAS\INTECRIO5.0\Target\Etarget\ES910\libes910.a(t_targetutil.o)
 .rodata.str1.4
                0x480ad798       0x68 C:\Program Files (x86)\ETAS\INTECRIO5.0\Target\Etarget\ES910\libes910.a(t_targetutil.o)
                                 0x7a (size before relaxing)
 .rodata.str1.4
                0x480ad800       0x86 C:\Program Files (x86)\ETAS\INTECRIO5.0\Target\Etarget\ES910\libes910.a(t_watchdog.o)
 *fill*         0x480ad886        0x2 00
 .rodata        0x480ad888       0x48 C:\Program Files (x86)\ETAS\INTECRIO5.0\Target\Etarget\ES910\libes910.a(p_chario.o)
 .rodata.str1.4
                0x480ad8d0      0x11f C:\Program Files (x86)\ETAS\INTECRIO5.0\Target\Etarget\ES910\libes910.a(p_chario.o)
                                0x12f (size before relaxing)
 *fill*         0x480ad9ef        0x1 00
 .rodata.str1.4
                0x480ad9f0       0x66 C:\Program Files (x86)\ETAS\INTECRIO5.0\Target\Etarget\ES910\libes910.a(t_hwTimeSync.o)
 .rodata.cst8   0x00000000       0x10 C:\Program Files (x86)\ETAS\INTECRIO5.0\Target\Etarget\ES910\libtarget.a(a_dacqui.o)
 *fill*         0x480ada56        0x2 00
 .rodata.str1.4
                0x480ada58       0x51 C:\Program Files (x86)\ETAS\INTECRIO5.0\Target\Etarget\ES910\libtarget.a(a_dacqui.o)
 .rodata.cst8   0x00000000       0x10 C:\Program Files (x86)\ETAS\INTECRIO5.0\Target\Etarget\ES910\libtarget.a(a_primit.o)
 *fill*         0x480adaa9        0x3 00
 .rodata.str1.4
                0x480adaac       0x9c C:\Program Files (x86)\ETAS\INTECRIO5.0\Target\Etarget\ES910\libtarget.a(a_primit.o)
                                 0x9d (size before relaxing)
 .rodata        0x480adb48       0x50 C:\Program Files (x86)\ETAS\INTECRIO5.0\Target\Etarget\ES910\libtarget.a(a_targma.o)
 .rodata.cst8   0x00000000       0x10 C:\Program Files (x86)\ETAS\INTECRIO5.0\Target\Etarget\ES910\libtarget.a(a_targma.o)
 .rodata.str1.4
                0x480adb98      0x75d C:\Program Files (x86)\ETAS\INTECRIO5.0\Target\Etarget\ES910\libtarget.a(a_targma.o)
                                0x769 (size before relaxing)
 *fill*         0x480ae2f5        0x3 00
 .rodata        0x480ae2f8      0x18c C:\Program Files (x86)\ETAS\INTECRIO5.0\Target\Etarget\ES910\libtarget.a(i_cpyfnc.o)
 *fill*         0x480ae484        0x4 00
 .rodata.cst8   0x480ae488       0x48 C:\Program Files (x86)\ETAS\INTECRIO5.0\Target\Etarget\ES910\libtarget.a(i_cpyfnc.o)
                                 0x58 (size before relaxing)
 .rodata.cst8   0x00000000       0x18 C:\Program Files (x86)\ETAS\INTECRIO5.0\Target\Etarget\ES910\libtarget.a(i_mapfnc.o)
 .rodata.str1.4
                0x480ae4d0       0x75 C:\Program Files (x86)\ETAS\INTECRIO5.0\Target\Etarget\ES910\libtarget.a(i_osman.o)
 *fill*         0x480ae545        0x3 00
 .rodata        0x480ae548      0x120 C:\Program Files (x86)\ETAS\INTECRIO5.0\Target\Etarget\ES910\libtarget.a(i_rtioma.o)
 .rodata.cst8   0x480ae668        0x8 C:\Program Files (x86)\ETAS\INTECRIO5.0\Target\Etarget\ES910\libtarget.a(i_rtioma.o)
                                 0x20 (size before relaxing)
 .rodata.str1.4
                0x480ae670      0xdbd C:\Program Files (x86)\ETAS\INTECRIO5.0\Target\Etarget\ES910\libtarget.a(i_rtioma.o)
                                0xdf1 (size before relaxing)
 *fill*         0x480af42d        0x3 00
 .rodata.str1.4
                0x480af430      0x54a C:\Program Files (x86)\ETAS\INTECRIO5.0\Target\Etarget\ES910\libtarget.a(t_croman.o)
                                0x56e (size before relaxing)
 *fill*         0x480af97a        0x2 00
 .rodata.str1.4
                0x480af97c       0x87 C:\Program Files (x86)\ETAS\INTECRIO5.0\Target\Etarget\ES910\libtarget.a(t_crosll.o)
 *fill*         0x480afa03        0x1 00
 .rodata.str1.4
                0x480afa04      0x710 C:\Program Files (x86)\ETAS\INTECRIO5.0\Target\Etarget\ES910\libtarget.a(t_nvram.o)
 .rodata.str1.4
                0x480b0114      0x109 C:\Program Files (x86)\ETAS\INTECRIO5.0\Target\Etarget\ES910\libtarget.a(t_objlis.o)
                                0x10d (size before relaxing)
 *fill*         0x480b021d        0x3 00
 .rodata        0x480b0220       0x58 C:\Program Files (x86)\ETAS\INTECRIO5.0\Target\Etarget\ES910\libtarget.a(t_rtcros.o)
 .rodata.str1.4
                0x480b0278      0x285 C:\Program Files (x86)\ETAS\INTECRIO5.0\Target\Etarget\ES910\libtarget.a(t_rtcros.o)
 .rodata.cst8   0x00000000       0x20 C:\Program Files (x86)\ETAS\INTECRIO5.0\Target\Etarget\ES910\libtarget.a(t_sgman.o)
 .rodata.str1.4
                0x00000000        0x1 C:\Program Files (x86)\ETAS\INTECRIO5.0\Target\Etarget\ES910\libtarget.a(t_sgman.o)
 .rodata.cst8   0x00000000        0x8 C:\Program Files (x86)\ETAS\INTECRIO5.0\Target\Etarget\ES910\libtarget.a(y_primit.o)
 *fill*         0x480b04fd        0x3 00
 .rodata        0x480b0500        0x8 C:\Program Files (x86)\ETAS\INTECRIO5.0\Target\Etarget\ES910\libtarget.a(a1b_dacq.o)
 .rodata.cst8   0x480b0508       0x10 C:\Program Files (x86)\ETAS\INTECRIO5.0\Target\Etarget\ES910\libtarget.a(a1b_dacq.o)
                                 0x28 (size before relaxing)
 .rodata.str1.4
                0x480b0518       0xcd C:\Program Files (x86)\ETAS\INTECRIO5.0\Target\Etarget\ES910\libtarget.a(a1b_dacq.o)
 *fill*         0x480b05e5        0x3 00
 .rodata        0x480b05e8       0x28 C:\Program Files (x86)\ETAS\INTECRIO5.0\Target\Etarget\ES910\libtarget.a(t_sglow.o)
 .rodata.cst8   0x480b0610        0x8 C:\Program Files (x86)\ETAS\INTECRIO5.0\Target\Etarget\ES910\libtarget.a(t_sglow.o)
                                 0x30 (size before relaxing)
 .rodata.str1.4
                0x480b0618      0x9ae C:\Program Files (x86)\ETAS\INTECRIO5.0\Target\Etarget\rtio\global\es910\librtio_gnu.a(comm_err.o)
                                0x9b2 (size before relaxing)
 *fill*         0x480b0fc6        0x2 00
 .rodata        0x480b0fc8       0x42 C:\Program Files (x86)\ETAS\INTECRIO5.0\Target\Etarget\rtio\global\es910\librtio_gnu.a(p_rtio_s.o)
 *fill*         0x480b100a        0x2 00
 .rodata.str1.4
                0x480b100c      0x328 C:\Program Files (x86)\ETAS\INTECRIO5.0\Target\Etarget\rtio\global\es910\librtio_gnu.a(p_rtio_s.o)
                                0x32c (size before relaxing)
 .rodata        0x480b1334        0xc C:\Program Files (x86)\ETAS\INTECRIO5.0\Target\Etarget\rtio\global\es910\librtio_gnu.a(rtio_err.o)
 .rodata.str1.4
                0x480b1340      0x1b9 C:\Program Files (x86)\ETAS\INTECRIO5.0\Target\Etarget\rtio\global\es910\librtio_gnu.a(rtio_err.o)
                                0x1cd (size before relaxing)
 *fill*         0x480b14f9        0x3 00
 .rodata        0x480b14fc       0x3b C:\Program Files (x86)\ETAS\INTECRIO5.0\Target\Etarget\rtio\global\es910\librtio_gnu.a(fhc_emu.o)
 *fill*         0x480b1537        0x1 00
 .rodata.str1.4
                0x480b1538      0x195 C:\Program Files (x86)\ETAS\INTECRIO5.0\Target\Etarget\rtio\global\es910\librtio_gnu.a(fhc_emu.o)
                                0x1a5 (size before relaxing)
 *fill*         0x480b16cd        0x3 00
 .rodata.str1.4
                0x480b16d0      0x1b8 C:\Program Files (x86)\ETAS\INTECRIO5.0\Target\Etarget\ES910\rta_osek\librtk_s.a(ostarget.o)
 .rodata.str1.4
                0x480b1888       0x29 C:\Program Files (x86)\ETAS\INTECRIO5.0\Target\Etarget\ES910\libcommon.a(p_protl1.o)
                                 0x37 (size before relaxing)
 *fill*         0x480b18b1        0x3 00
 .rodata.str1.4
                0x480b18b4      0x14d Car_State1/Car_State1.a(Car_State_main.o)
 .rodata.cst8   0x00000000       0x10 Car_State1/Car_State1.a(rt_sim.o)
 *fill*         0x480b1a01        0x3 00
 .rodata.str1.4
                0x480b1a04       0x71 Car_State1/Car_State1.a(rt_sim.o)
 *fill*         0x480b1a75        0x3 00
 .rodata.str1.4
                0x480b1a78       0x3e Disconnections1/Disconnections1.a(Disconnections_main.o)
                                0x156 (size before relaxing)
 .rodata.cst8   0x00000000       0x10 Disconnections1/Disconnections1.a(rt_sim.o)
 .rodata.str1.4
                0x00000000       0x71 Disconnections1/Disconnections1.a(rt_sim.o)
 *fill*         0x480b1ab6        0x2 00
 .rodata.str1.4
                0x480b1ab8       0x2f Ellipse1/Ellipse1.a(Ellipse_main.o)
                                0x147 (size before relaxing)
 .rodata.cst8   0x00000000       0x10 Ellipse1/Ellipse1.a(rt_sim.o)
 .rodata.str1.4
                0x00000000       0x71 Ellipse1/Ellipse1.a(rt_sim.o)
 *fill*         0x480b1ae7        0x1 00
 .rodata.str1.4
                0x480b1ae8       0x44 Inverters_Action1/Inverters_Action1.a(Inverters_Action_main.o)
                                0x15c (size before relaxing)
 .rodata.cst8   0x00000000       0x10 Inverters_Action1/Inverters_Action1.a(rt_sim.o)
 .rodata.str1.4
                0x00000000       0x71 Inverters_Action1/Inverters_Action1.a(rt_sim.o)
 .rodata.str1.4
                0x480b1b2c       0x3e Inverters_Data1/Inverters_Data1.a(Inverters_Data_main.o)
                                0x156 (size before relaxing)
 .rodata.cst8   0x00000000       0x10 Inverters_Data1/Inverters_Data1.a(rt_sim.o)
 .rodata.str1.4
                0x00000000       0x71 Inverters_Data1/Inverters_Data1.a(rt_sim.o)
 *fill*         0x480b1b6a        0x2 00
 .rodata.str1.4
                0x480b1b6c       0x3d Power_Control1/Power_Control1.a(Power_Control_main.o)
                                0x155 (size before relaxing)
 .rodata.cst8   0x00000000       0x10 Power_Control1/Power_Control1.a(rt_sim.o)
 .rodata.str1.4
                0x00000000       0x71 Power_Control1/Power_Control1.a(rt_sim.o)
 *fill*         0x480b1ba9        0x3 00
 .rodata.str1.4
                0x480b1bac       0x2f Sensors1/Sensors1.a(Sensors_main.o)
                                0x147 (size before relaxing)
 .rodata.cst8   0x00000000       0x10 Sensors1/Sensors1.a(rt_sim.o)
 .rodata.str1.4
                0x00000000       0x71 Sensors1/Sensors1.a(rt_sim.o)
 *fill*         0x480b1bdb        0x1 00
 .rodata.str1.4
                0x480b1bdc       0x37 Synchronism1/Synchronism1.a(Synchronism_main.o)
                                0x14f (size before relaxing)
 .rodata.cst8   0x00000000       0x10 Synchronism1/Synchronism1.a(rt_sim.o)
 .rodata.str1.4
                0x00000000       0x71 Synchronism1/Synchronism1.a(rt_sim.o)
 *fill*         0x480b1c13        0x1 00
 .rodata.str1.4
                0x480b1c14       0x27 VDC1/VDC1.a(VDC_main.o)
                                0x13f (size before relaxing)
 .rodata.cst8   0x00000000       0x10 VDC1/VDC1.a(rt_sim.o)
 .rodata.str1.4
                0x00000000       0x71 VDC1/VDC1.a(rt_sim.o)
 .rodata.cst8   0x00000000        0x8 SoC1/SoC1.a(SoC_main.o)
 *fill*         0x480b1c3b        0x1 00
 .rodata.str1.4
                0x480b1c3c       0x27 SoC1/SoC1.a(SoC_main.o)
                                0x12b (size before relaxing)
 .rodata.cst8   0x00000000       0x10 SoC1/SoC1.a(rt_sim.o)
 .rodata.str1.4
                0x00000000       0x71 SoC1/SoC1.a(rt_sim.o)
 *fill*         0x480b1c63        0x1 00
 .rodata.str1.4
                0x480b1c64       0x3e C:/Program Files (x86)/ETAS/INTECRIO5.0/Target/ETarget/rtio/es9xxcan/ES910/es9xxCan_gnu.lib(es9xxCan.o)
 *fill*         0x480b1ca2        0x2 00
 .rodata        0x480b1ca4       0x24 C:/Program Files (x86)/ETAS/INTECRIO5.0/Target/ETarget/rtio/es9xxcan/ES910/es9xxCan_gnu.lib(es9xxCanCanio.o)
 .rodata.str1.4
                0x480b1cc8       0x89 C:/Program Files (x86)/ETAS/INTECRIO5.0/Target/ETarget/rtio/es9xxcan/ES910/es9xxCan_gnu.lib(es9xxCanCanio.o)
 *fill*         0x480b1d51        0x3 00
 .rodata.str1.4
                0x480b1d54      0xee1 C:/Program Files (x86)/ETAS/INTECRIO5.0/Target/ETarget/rtio/es9xxcan/ES910/es9xxCan_gnu.lib(es9xxCanErr.o)
                                0xee5 (size before relaxing)
 *fill*         0x480b2c35        0x3 00
 .rodata.str1.4
                0x480b2c38       0x18 C:/Program Files (x86)/ETAS/INTECRIO5.0/Target/ETarget/rtio/es9xxcan/ES910/es9xxCan_gnu.lib(es9xxCanHalBuf.o)
 .rodata.cst8   0x00000000        0x8 C:/ETAS/Compiler/INTECRIO5.0/QNXCompiler-V6.5\host\win32\x86/usr/lib/gcc/powerpc-unknown-nto-qnx6.5.0/4.4.2/spe/libgcc.a(_floatdidf.o)
 .rodata        0x480b2c50      0x282 C:\Program Files (x86)\ETAS\INTECRIO5.0\Target\Etarget\ES910\libes910.a(t_dataset.o)
 *fill*         0x480b2ed2        0x2 00
 .rodata.str1.4
                0x480b2ed4     0x1164 C:\Program Files (x86)\ETAS\INTECRIO5.0\Target\Etarget\ES910\libes910.a(t_dataset.o)
                               0x11a1 (size before relaxing)

.os_pird        0x480b4038        0x0
 .os_pird       0x480b4038        0x0 OSC/osgen.o

.os_pnird       0x480b4038       0x54
 .os_pnird      0x480b4038       0x54 OSC/osgen.o
                0x480b4038                OS_L000C
                0x480b408c                OS_L0014

.os_pid         0x480b408c      0x95c
 .os_pid        0x480b408c      0x95c OSC/osgen.o
                0x480b43d8                OS_L0042
                0x480b408c                os_oim
                0x480b49e8                OS_L0017
                0x480b44a8                OS_L0046
                0x480b47e8                OS_L0059
                0x480b481c                OS_L005A
                0x480b49e8                OS_L001B
                0x480b47b4                OS_L0055
                0x480b4204                OS_L0039
                0x480b4134                OS_L0035
                0x480b4648                OS_L004E
                0x480b48ec                OS_L005E
                0x480b49e8                OS_L0012
                0x480b4578                OS_L004A
                0x480b4920                OS_L0016
                0x480b42d4                OS_L003D
                0x480b43a4                OS_L0041
                0x480b4474                OS_L0045
                0x480b4098                OS_L0000
                0x480b46e4                OS_L0051
                0x480b4970                osek_bcc1_ts
                0x480b4100                OS_L0034
                0x480b4544                OS_L0049
                0x480b4948                OS_L001E
                0x480b4098                OS_L001A
                0x480b4780                OS_L0054
                0x480b41d0                OS_L0038
                0x480b4614                OS_L004D
                0x480b48b8                OS_L005D
                0x480b408c                OS_L0011
                0x480b4098                OS_L0015
                0x480b4998                osek_cc2_ts
                0x480b42a0                OS_L003C
                0x480b4370                OS_L0040
                0x480b49c0                osek_ecc_ts
                0x480b4440                OS_L0044
                0x480b46b0                OS_L0050
                0x480b4090                os_ES900_s_5_01
                0x480b4094                OS_L0019
                0x480b40cc                OS_L0033
                0x480b4510                OS_L0048
                0x480b4920                OS_L001D
                0x480b474c                OS_L0053
                0x480b419c                OS_L0037
                0x480b45e0                OS_L004C
                0x480b4884                OS_L005C
                0x480b433c                OS_L003F
                0x480b426c                OS_L003B
                0x480b440c                OS_L0043
                0x480b49e8                OS_L0018
                0x480b4094                OS_L002D
                0x480b44dc                OS_L0047
                0x480b49e8                OS_L001C
                0x480b4718                OS_L0052
                0x480b467c                OS_L004F
                0x480b4168                OS_L0036
                0x480b45ac                OS_L004B
                0x480b4850                OS_L005B
                0x480b4308                OS_L003E
                0x480b4238                OS_L003A

.rodata1
 *(.rodata1)

.sdata2         0x480b49e8        0x0
                0x480bc9e8                PROVIDE (_SDA2_BASE_, 0x8000)
 *(.sdata2 .sdata2.* .gnu.linkonce.s2.*)

.sbss2
 *(.sbss2 .sbss2.* .gnu.linkonce.sb2.*)

.eh_frame_hdr
 *(.eh_frame_hdr)

.eh_frame       0x480b49e8       0x54
 *(.eh_frame)
 .eh_frame      0x480b49e8        0x0 C:/ETAS/Compiler/INTECRIO5.0/QNXCompiler-V6.5\host\win32\x86/usr/lib/gcc/powerpc-unknown-nto-qnx6.5.0/4.4.2/spe/crtbegin.o
 .eh_frame      0x480b49e8       0x28 C:/ETAS/Compiler/INTECRIO5.0/QNXCompiler-V6.5\host\win32\x86/usr/lib/gcc/powerpc-unknown-nto-qnx6.5.0/4.4.2/spe/libgcc.a(_fixunsdfdi.o)
 .eh_frame      0x480b4a10       0x14 C:/ETAS/Compiler/INTECRIO5.0/QNXCompiler-V6.5\host\win32\x86/usr/lib/gcc/powerpc-unknown-nto-qnx6.5.0/4.4.2/spe/libgcc.a(_floatundidf.o)
                                 0x28 (size before relaxing)
 .eh_frame      0x480b4a24        0x4 C:/ETAS/Compiler/INTECRIO5.0/QNXCompiler-V6.5\host\win32\x86/usr/lib/gcc/powerpc-unknown-nto-qnx6.5.0/4.4.2/spe/crtend.o
 .eh_frame      0x480b4a28       0x14 C:/ETAS/Compiler/INTECRIO5.0/QNXCompiler-V6.5\host\win32\x86/usr/lib/gcc/powerpc-unknown-nto-qnx6.5.0/4.4.2/spe/libgcc.a(_floatdidf.o)
                                 0x28 (size before relaxing)

.gcc_except_table
 *(.gcc_except_table .gcc_except_table.*)
                0x480b4a3c                . = (ALIGN (0x1000) - ((0x1000 - .) & 0xfff))
                0x480b5000                . = (0x1000 DATA_SEGMENT_ALIGN 0x1000)

.eh_frame
 *(.eh_frame)

.gcc_except_table
 *(.gcc_except_table .gcc_except_table.*)

.tdata
 *(.tdata .tdata.* .gnu.linkonce.td.*)

.tbss
 *(.tbss .tbss.* .gnu.linkonce.tb.*)
 *(.tcommon)

.preinit_array  0x480b5000        0x0
                0x480b5000                PROVIDE (__preinit_array_start, .)
 *(.preinit_array)
                0x480b5000                PROVIDE (__preinit_array_end, .)

.init_array     0x480b5000        0x0
                0x480b5000                PROVIDE (__init_array_start, .)
 *(SORT(.init_array.*))
 *(.init_array)
                0x480b5000                PROVIDE (__init_array_end, .)

.fini_array     0x480b5000        0x0
                0x480b5000                PROVIDE (__fini_array_start, .)
 *(.fini_array)
 *(SORT(.fini_array.*))
                0x480b5000                PROVIDE (__fini_array_end, .)

.ctors          0x480b5000        0x8
 *crtbegin.o(.ctors)
 .ctors         0x480b5000        0x4 C:/ETAS/Compiler/INTECRIO5.0/QNXCompiler-V6.5\host\win32\x86/usr/lib/gcc/powerpc-unknown-nto-qnx6.5.0/4.4.2/spe/crtbegin.o
 *crtbegin?.o(.ctors)
 *(EXCLUDE_FILE(*crtend?.o *crtend.o) .ctors)
 *(SORT(.ctors.*))
 *(.ctors)
 .ctors         0x480b5004        0x4 C:/ETAS/Compiler/INTECRIO5.0/QNXCompiler-V6.5\host\win32\x86/usr/lib/gcc/powerpc-unknown-nto-qnx6.5.0/4.4.2/spe/crtend.o

.dtors          0x480b5008        0x8
 *crtbegin.o(.dtors)
 .dtors         0x480b5008        0x4 C:/ETAS/Compiler/INTECRIO5.0/QNXCompiler-V6.5\host\win32\x86/usr/lib/gcc/powerpc-unknown-nto-qnx6.5.0/4.4.2/spe/crtbegin.o
 *crtbegin?.o(.dtors)
 *(EXCLUDE_FILE(*crtend?.o *crtend.o) .dtors)
 *(SORT(.dtors.*))
 *(.dtors)
 .dtors         0x480b500c        0x4 C:/ETAS/Compiler/INTECRIO5.0/QNXCompiler-V6.5\host\win32\x86/usr/lib/gcc/powerpc-unknown-nto-qnx6.5.0/4.4.2/spe/crtend.o
                0x480b500c                __DTOR_END__

.jcr            0x480b5010        0x4
 *(.jcr)
 .jcr           0x480b5010        0x0 C:/ETAS/Compiler/INTECRIO5.0/QNXCompiler-V6.5\host\win32\x86/usr/lib/gcc/powerpc-unknown-nto-qnx6.5.0/4.4.2/spe/crtbegin.o
 .jcr           0x480b5010        0x4 C:/ETAS/Compiler/INTECRIO5.0/QNXCompiler-V6.5\host\win32\x86/usr/lib/gcc/powerpc-unknown-nto-qnx6.5.0/4.4.2/spe/crtend.o

.data.rel.ro
 *(.data.rel.ro.local* .gnu.linkonce.d.rel.ro.local.*)
 *(.data.rel.ro* .gnu.linkonce.d.rel.ro.*)

.fixup
 *(.fixup)

.got1
 *(.got1)

.got2
 *(.got2)

.dynamic        0x480b5014      0x138
 *(.dynamic)
 .dynamic       0x480b5014      0x138 C:/ETAS/Compiler/INTECRIO5.0/QNXCompiler-V6.5\target\qnx6/ppcbe-spe/lib/crt1.o
                0x480b5014                _DYNAMIC

.got
 *(.got)
                0x480b514c                . = (. DATA_SEGMENT_RELRO_END 0x0)

.plt
 *(.plt)

.data           0x480b5150     0x268c
 *(.data .data.* .gnu.linkonce.d.*)
 .data          0x480b5150        0x0 C:/ETAS/Compiler/INTECRIO5.0/QNXCompiler-V6.5\target\qnx6/ppcbe-spe/lib/crt1.o
 .data          0x480b5150        0x0 C:/ETAS/Compiler/INTECRIO5.0/QNXCompiler-V6.5\target\qnx6/ppcbe-spe/lib/crti.o
 .data          0x480b5150        0x0 C:/ETAS/Compiler/INTECRIO5.0/QNXCompiler-V6.5\host\win32\x86/usr/lib/gcc/powerpc-unknown-nto-qnx6.5.0/4.4.2/spe/crtbegin.o
 .data.rel      0x480b5150        0x4 C:/ETAS/Compiler/INTECRIO5.0/QNXCompiler-V6.5\host\win32\x86/usr/lib/gcc/powerpc-unknown-nto-qnx6.5.0/4.4.2/spe/crtbegin.o
                0x480b5150                __dso_handle
 .data          0x480b5154       0x48 ROOT_instances.o
                0x480b5154                modelIdentificationString
 .data          0x480b519c        0x4 _INT_pid.pi.o
                0x480b519c                programIdentifier
 .data          0x480b51a0        0x0 userFuncProcessCanPayload.o
 .data          0x480b51a0        0x0 userFuncProcessFlexRayPayload.o
 .data          0x480b51a0        0x0 OSC/i_rtawrapper.o
 .data          0x480b51a0       0x80 Car_State0/Car_State_instances.o
                0x480b51a0                RTWTop_Car_State_ClassObj
 .data          0x480b5220        0x0 Car_State1/Car_State1.a(Car_State.o)
 .data          0x480b5220       0xf4 Disconnections0/Disconnections_instances.o
                0x480b5220                RTWTop_Disconnections_ClassObj
 .data          0x480b5314        0x0 Disconnections1/Disconnections1.a(Disconnections.o)
 .data          0x480b5314       0x6c Ellipse0/Ellipse_instances.o
                0x480b5314                RTWTop_Ellipse_ClassObj
 .data          0x480b5380        0x0 Ellipse1/Ellipse1.a(Ellipse.o)
 .data          0x480b5380       0x9c Inverters_Action0/Inverters_Action_instances.o
                0x480b5380                RTWTop_Inverters_Action_ClassObj
 .data          0x480b541c        0x0 Inverters_Action1/Inverters_Action1.a(Inverters_Action.o)
 *fill*         0x480b541c        0x4 00
 .data          0x480b5420       0x30 Inverters_Action1/Inverters_Action1.a(Inverters_Action_data.o)
                0x480b5420                Inverters_Action_ConstB
 .data          0x480b5450       0x90 Inverters_Data0/Inverters_Data_instances.o
                0x480b5450                RTWTop_Inverters_Data_ClassObj
 .data          0x480b54e0        0x0 Inverters_Data1/Inverters_Data1.a(Inverters_Data.o)
 .data          0x480b54e0       0x68 Power_Control0/Power_Control_instances.o
                0x480b54e0                RTWTop_Power_Control_ClassObj
 .data          0x480b5548        0x0 Power_Control1/Power_Control1.a(Power_Control.o)
 .data          0x480b5548       0x90 Sensors0/Sensors_instances.o
                0x480b5548                RTWTop_Sensors_ClassObj
 .data          0x480b55d8        0x0 Sensors1/Sensors1.a(Sensors.o)
 .data          0x480b55d8       0x40 Sensors1/Sensors1.a(Sensors_data.o)
                0x480b55d8                Sensors_ConstB
 .data          0x480b5618       0x2c Synchronism0/Synchronism_instances.o
                0x480b5618                RTWTop_Synchronism_ClassObj
 .data          0x480b5644        0x0 Synchronism1/Synchronism1.a(Synchronism.o)
 .data          0x480b5644      0x114 VDC0/VDC_instances.o
                0x480b5644                RTWTop_VDC_ClassObj
 .data          0x480b5758        0x0 VDC1/VDC1.a(VDC.o)
 .data          0x480b5758       0x88 SoC0/SoC_instances.o
                0x480b5758                RTWTop_SoC_ClassObj
 .data          0x480b57e0        0x0 SoC1/SoC1.a(SoC.o)
 .data          0x480b57e0       0x18 SoC1/SoC1.a(SoC_data.o)
                0x480b57e0                SoC_ConstB
 .data          0x480b57f8        0x0 matlabsharedR2023b/matlabsharedR2023b.a(const_params.o)
 .data          0x480b57f8        0x0 matlabsharedR2023b/matlabsharedR2023b.a(look1_binlxpw.o)
 .data          0x480b57f8        0x0 matlabsharedR2023b/matlabsharedR2023b.a(look2_binlxpw.o)
 .data          0x480b57f8        0x0 matlabsharedR2023b/matlabsharedR2023b.a(rt_nonfinite.o)
 .data          0x480b57f8        0x0 matlabsharedR2023b/matlabsharedR2023b.a(rtgetinf.o)
 .data          0x480b57f8        0x0 matlabsharedR2023b/matlabsharedR2023b.a(rtgetnan.o)
 .data          0x480b57f8        0x4 OSC/osekdefs.o
                0x480b57f8                os_fp_sp
 .data          0x480b57fc        0x0 OSC/osgen.o
 .data          0x480b57fc       0x30 OSC/TaskISRArchive.a(etasConfigTask.o)
                0x480b57fc                etasConfigTaskMon
 .data          0x480b582c       0x30 OSC/TaskISRArchive.a(Sync_25ms.o)
                0x480b582c                Sync_25msMon
 .data          0x480b585c       0x30 OSC/TaskISRArchive.a(Timer_1000ms.o)
                0x480b585c                Timer_1000msMon
 .data          0x480b588c       0x30 OSC/TaskISRArchive.a(Timer_100ms.o)
                0x480b588c                Timer_100msMon
 .data          0x480b58bc       0x30 OSC/TaskISRArchive.a(Timer_25ms.o)
                0x480b58bc                Timer_25msMon
 .data          0x480b58ec       0x30 OSC/TaskISRArchive.a(Timer_Inv.o)
                0x480b58ec                Timer_InvMon
 .data          0x480b591c       0x30 OSC/TaskISRArchive.a(SWT_CAN1_AP_BMS_SDC.o)
                0x480b591c                SWT_CAN1_AP_BMS_SDCMon
 .data          0x480b594c       0x30 OSC/TaskISRArchive.a(SWT_CAN1_AP_CurrentSensor.o)
                0x480b594c                SWT_CAN1_AP_CurrentSensorMon
 .data          0x480b597c       0x30 OSC/TaskISRArchive.a(SWT_CAN1_AP_BMS_Voltages.o)
                0x480b597c                SWT_CAN1_AP_BMS_VoltagesMon
 .data          0x480b59ac       0x30 OSC/TaskISRArchive.a(SWT_CAN1_AP_BMS_ChargerParameters.o)
                0x480b59ac                SWT_CAN1_AP_BMS_ChargerParametersMon
 .data          0x480b59dc       0x30 OSC/TaskISRArchive.a(SWT_CAN1_AP_BMS_Temperatures.o)
                0x480b59dc                SWT_CAN1_AP_BMS_TemperaturesMon
 .data          0x480b5a0c       0x30 OSC/TaskISRArchive.a(SWT_CAN1_AP_Inverter_R_Tx.o)
                0x480b5a0c                SWT_CAN1_AP_Inverter_R_TxMon
 .data          0x480b5a3c       0x30 OSC/TaskISRArchive.a(SWT_CAN1_AP_Inverter_L_Tx.o)
                0x480b5a3c                SWT_CAN1_AP_Inverter_L_TxMon
 .data          0x480b5a6c       0x30 OSC/TaskISRArchive.a(SWT_CAN1_AP_DASH_Mode.o)
                0x480b5a6c                SWT_CAN1_AP_DASH_ModeMon
 .data          0x480b5a9c       0x30 OSC/TaskISRArchive.a(SWT_CAN1_NM_BMS_Keep_Alive.o)
                0x480b5a9c                SWT_CAN1_NM_BMS_Keep_AliveMon
 .data          0x480b5acc       0x30 OSC/TaskISRArchive.a(SWT_CAN1_AP_BMS_AIRs_State.o)
                0x480b5acc                SWT_CAN1_AP_BMS_AIRs_StateMon
 .data          0x480b5afc       0x30 OSC/TaskISRArchive.a(SWT_CAN1_NM_DASH_Keep_Alive.o)
                0x480b5afc                SWT_CAN1_NM_DASH_Keep_AliveMon
 .data          0x480b5b2c       0x30 OSC/TaskISRArchive.a(SWT_CAN1_AP_DASH_PrechargeRequest.o)
                0x480b5b2c                SWT_CAN1_AP_DASH_PrechargeRequestMon
 .data          0x480b5b5c       0x30 OSC/TaskISRArchive.a(SWT_CAN1_AP_DASH_EnableDrive.o)
                0x480b5b5c                SWT_CAN1_AP_DASH_EnableDriveMon
 .data          0x480b5b8c       0x30 OSC/TaskISRArchive.a(SWT_CAN2_AP_ELLIPSE_AUTO.o)
                0x480b5b8c                SWT_CAN2_AP_ELLIPSE_AUTOMon
 .data          0x480b5bbc       0x30 OSC/TaskISRArchive.a(SWT_CAN2_AP_ELLIPSE_GPS_VEL.o)
                0x480b5bbc                SWT_CAN2_AP_ELLIPSE_GPS_VELMon
 .data          0x480b5bec       0x30 OSC/TaskISRArchive.a(SWT_CAN2_MEAS_RECU_SDC.o)
                0x480b5bec                SWT_CAN2_MEAS_RECU_SDCMon
 .data          0x480b5c1c       0x30 OSC/TaskISRArchive.a(SWT_CAN2_AP_ELLIPSE_EKF_POS.o)
                0x480b5c1c                SWT_CAN2_AP_ELLIPSE_EKF_POSMon
 .data          0x480b5c4c       0x30 OSC/TaskISRArchive.a(SWT_CAN2_AP_ELLIPSE_IMU_ACCEL.o)
                0x480b5c4c                SWT_CAN2_AP_ELLIPSE_IMU_ACCELMon
 .data          0x480b5c7c       0x30 OSC/TaskISRArchive.a(SWT_CAN2_AP_ELLIPSE_EKF_EULER.o)
                0x480b5c7c                SWT_CAN2_AP_ELLIPSE_EKF_EULERMon
 .data          0x480b5cac       0x30 OSC/TaskISRArchive.a(SWT_CAN2_AP_ELLIPSE_EKF_VEL.o)
                0x480b5cac                SWT_CAN2_AP_ELLIPSE_EKF_VELMon
 .data          0x480b5cdc       0x30 OSC/TaskISRArchive.a(SWT_CAN2_NM_ELLIPSE_Status.o)
                0x480b5cdc                SWT_CAN2_NM_ELLIPSE_StatusMon
 .data          0x480b5d0c       0x30 OSC/TaskISRArchive.a(SWT_CAN2_AP_ELLIPSE_IMU_GYRO.o)
                0x480b5d0c                SWT_CAN2_AP_ELLIPSE_IMU_GYROMon
 .data          0x480b5d3c       0x30 OSC/TaskISRArchive.a(SWT_CAN2_AP_ELLIPSE_VEL_Valid.o)
                0x480b5d3c                SWT_CAN2_AP_ELLIPSE_VEL_ValidMon
 .data          0x480b5d6c       0x30 OSC/TaskISRArchive.a(SWT_CAN2_AP_RECU_Data.o)
                0x480b5d6c                SWT_CAN2_AP_RECU_DataMon
 .data          0x480b5d9c       0x30 OSC/TaskISRArchive.a(SWT_CAN2_NM_FECU_Keep_Alive.o)
                0x480b5d9c                SWT_CAN2_NM_FECU_Keep_AliveMon
 .data          0x480b5dcc       0x30 OSC/TaskISRArchive.a(SWT_CAN2_NM_RECU_Keep_Alive.o)
                0x480b5dcc                SWT_CAN2_NM_RECU_Keep_AliveMon
 .data          0x480b5dfc       0x30 OSC/TaskISRArchive.a(SWT_CAN2_AP_FECU_Data2.o)
                0x480b5dfc                SWT_CAN2_AP_FECU_Data2Mon
 .data          0x480b5e2c       0x30 OSC/TaskISRArchive.a(SWT_CAN2_AP_FECU_Data1.o)
                0x480b5e2c                SWT_CAN2_AP_FECU_Data1Mon
 .data          0x480b5e5c       0x30 OSC/TaskISRArchive.a(ISR_CAN1.o)
                0x480b5e5c                ISR_CAN1Mon
 .data          0x480b5e8c       0x30 OSC/TaskISRArchive.a(ISR_CAN2.o)
                0x480b5e8c                ISR_CAN2Mon
 .data          0x480b5ebc       0x30 OSC/etasActivateTaskIsr.o
                0x480b5ebc                etasActivateTaskIsrMon
 .data          0x480b5eec       0x30 OSC/etasL1Isr.o
                0x480b5eec                etasL1IsrMon
 .data          0x480b5f1c       0x30 OSC/etasL1Task.o
                0x480b5f1c                etasL1TaskMon
 .data          0x480b5f4c       0x30 OSC/etasTimerIsr.o
                0x480b5f4c                etasTimerIsrMon
 .data          0x480b5f7c       0x30 OSC/etasStopOsIsr.o
                0x480b5f7c                etasStopOsIsrMon
 .data          0x480b5fac        0x0 OSC/DriverThreads.o
 .data          0x480b5fac        0x0 OSC/ISRFunctions.o
 .data          0x480b5fac      0x1cc OSC/osc_dyn.o
                0x480b5fd0                taskTableEntries
                0x480b6168                taskTable
                0x480b6170                osAdmin
                0x480b5fac                appModeEntries
                0x480b5fc4                appModeTable
 .data          0x480b6178        0xc OSC/rtaInterface.o
                0x480b6180                TimerAppMode
                0x480b617c                etasInactiveAppMode
                0x480b6178                etasStartupAppMode
 .data          0x480b6184       0x98 OSC/ETCHooks.o
                0x480b6184                rtioTaskTable
 .data          0x480b621c       0x98 OSC/XbarHooks.o
                0x480b621c                crossbarTaskTable
 .data          0x480b62b4        0x8 ETC/FormulaTable.o
                0x480b62b4                rtioFormulaTable
 .data          0x480b62bc       0x38 ETC/DriverTable.o
                0x480b62bc                rtioDriverTable
 .data          0x480b62f4       0x8c ETC/MappingFunctionTable.o
                0x480b62f4                rtioMapFuncTable
 .data          0x480b6380        0x0 ETC/RtioL1RecordTable.o
 .data          0x480b6380        0x0 ETC/XCPTransportLayerFunctionsTable.o
 .data          0x480b6380        0x0 ETC/ChecksumAlgoTables.o
 .data          0x480b6380       0x38 CBC/CopyFunctionTable.o
                0x480b6380                crossbarCopyFuncTable
 .data          0x480b63b8        0x0 CBC/CrossbarL1RecordTable.o
 .data          0x480b63b8        0x0 C:/ETAS/Compiler/INTECRIO5.0/QNXCompiler-V6.5\host\win32\x86/usr/lib/gcc/powerpc-unknown-nto-qnx6.5.0/4.4.2/spe/libgcc.a(_fixunsdfdi.o)
 .data          0x480b63b8        0x0 C:/ETAS/Compiler/INTECRIO5.0/QNXCompiler-V6.5\host\win32\x86/usr/lib/gcc/powerpc-unknown-nto-qnx6.5.0/4.4.2/spe/libgcc.a(_floatundidf.o)
 .data          0x480b63b8        0x0 C:/ETAS/Compiler/INTECRIO5.0/QNXCompiler-V6.5\host\win32\x86/usr/lib/gcc/powerpc-unknown-nto-qnx6.5.0/4.4.2/spe/crtend.o
 .data          0x480b63b8        0x0 C:/ETAS/Compiler/INTECRIO5.0/QNXCompiler-V6.5\target\qnx6/ppcbe-spe/lib/crtn.o
 .data          0x480b63b8        0xc C:\Program Files (x86)\ETAS\INTECRIO5.0\Target\Etarget\ES910\libes910.a(i_rtautil.o)
 .data          0x480b63c4        0x0 C:\Program Files (x86)\ETAS\INTECRIO5.0\Target\Etarget\ES910\libes910.a(t_driverThreads.o)
 .data          0x480b63c4        0x3 C:\Program Files (x86)\ETAS\INTECRIO5.0\Target\Etarget\ES910\libes910.a(t_idle.o)
 *fill*         0x480b63c7        0x1 00
 .data          0x480b63c8       0x28 C:\Program Files (x86)\ETAS\INTECRIO5.0\Target\Etarget\ES910\libes910.a(t_l1com.o)
 .data          0x480b63f0        0x0 C:\Program Files (x86)\ETAS\INTECRIO5.0\Target\Etarget\ES910\libes910.a(t_main.o)
 .data          0x480b63f0        0x8 C:\Program Files (x86)\ETAS\INTECRIO5.0\Target\Etarget\ES910\libes910.a(t_mlog.o)
 .data          0x480b63f8        0x8 C:\Program Files (x86)\ETAS\INTECRIO5.0\Target\Etarget\ES910\libes910.a(t_qnxtargetutil.o)
 .data          0x480b6400        0x0 C:\Program Files (x86)\ETAS\INTECRIO5.0\Target\Etarget\ES910\libes910.a(t_targetutil.o)
 .data          0x480b6400        0x9 C:\Program Files (x86)\ETAS\INTECRIO5.0\Target\Etarget\ES910\libes910.a(t_watchdog.o)
 .data          0x480b6409        0x0 C:\Program Files (x86)\ETAS\INTECRIO5.0\Target\Etarget\ES910\libes910.a(p_chario.o)
 *fill*         0x480b6409        0x3 00
 .data          0x480b640c        0x4 C:\Program Files (x86)\ETAS\INTECRIO5.0\Target\Etarget\ES910\libes910.a(t_hwTimeSync.o)
 .data          0x480b6410        0x0 C:\Program Files (x86)\ETAS\INTECRIO5.0\Target\Etarget\ES910\libes910.a(t_led.o)
 .data          0x480b6410      0x110 C:\Program Files (x86)\ETAS\INTECRIO5.0\Target\Etarget\ES910\libtarget.a(a_dacqui.o)
                0x480b6478                oidListDataAcquisition
                0x480b64b4                dacq_c
                0x480b6428                dacqLog_c
                0x480b6438                loggingGroup
                0x480b6460                debugAcqui
                0x480b6488                dataAcquisitionObjects
                0x480b6494                dacqMethods
 .data          0x480b6520        0x0 C:\Program Files (x86)\ETAS\INTECRIO5.0\Target\Etarget\ES910\libtarget.a(a_l1pro.o)
 .data          0x480b6520      0x464 C:\Program Files (x86)\ETAS\INTECRIO5.0\Target\Etarget\ES910\libtarget.a(a_primit.o)
                0x480b6694                Vec_sint16_ClassObj
                0x480b65a4                Mat_sint16_ClassObj
                0x480b67b4                sint16_ClassObj
                0x480b67cc                uint8_ClassObj
                0x480b6574                Mat_sint32_ClassObj
                0x480b66ac                Vec_uint8_ClassObj
                0x480b679c                uint16_ClassObj
                0x480b67fc                real32_ClassObj
                0x480b65d4                Mat_sint8_ClassObj
                0x480b67e4                sint8_ClassObj
                0x480b670c                qreal64_ClassObj
                0x480b661c                Vec_qreal64_ClassObj
                0x480b66f4                Vec_real64_ClassObj
                0x480b655c                Mat_uint32_ClassObj
                0x480b65bc                Mat_uint8_ClassObj
                0x480b6724                bool_ClassObj
                0x480b65ec                Mat_real32_ClassObj
                0x480b673c                uint32_ClassObj
                0x480b6760                CharTable2_ClassObj
                0x480b6544                Mat_bool_ClassObj
                0x480b676c                GroupCharTable1_ClassObj
                0x480b66c4                Vec_sint8_ClassObj
                0x480b6634                Vec_bool_ClassObj
                0x480b667c                Vec_uint16_ClassObj
                0x480b6778                CharTable1_ClassObj
                0x480b66dc                Vec_real32_ClassObj
                0x480b652c                Mat_qreal64_ClassObj
                0x480b658c                Mat_uint16_ClassObj
                0x480b6754                GroupCharTable2_ClassObj
                0x480b6784                sint32_ClassObj
                0x480b6814                real64_ClassObj
                0x480b6520                quantInfo_ClassObj
                0x480b6604                Mat_real64_ClassObj
                0x480b664c                Vec_uint32_ClassObj
                0x480b6664                Vec_sint32_ClassObj
 .data          0x480b6984        0x0 C:\Program Files (x86)\ETAS\INTECRIO5.0\Target\Etarget\ES910\libtarget.a(a_sysver.o)
 .data          0x480b6984      0x504 C:\Program Files (x86)\ETAS\INTECRIO5.0\Target\Etarget\ES910\libtarget.a(a_targma.o)
                0x480b6de0                debugSim
                0x480b6998                simMan_c
                0x480b6df8                simManMethods
                0x480b6984                activeSimObjects
                0x480b6dc8                userDebugString
                0x480b6db0                userErrorString
 .data          0x480b6e88        0x0 C:\Program Files (x86)\ETAS\INTECRIO5.0\Target\Etarget\ES910\libtarget.a(i_cpyfnc.o)
 .data          0x480b6e88        0x0 C:\Program Files (x86)\ETAS\INTECRIO5.0\Target\Etarget\ES910\libtarget.a(i_mapfnc.o)
 .data          0x480b6e88       0x50 C:\Program Files (x86)\ETAS\INTECRIO5.0\Target\Etarget\ES910\libtarget.a(i_osman.o)
                0x480b6ea4                osManMethods
                0x480b6e88                osMan_c
 .data          0x480b6ed8       0xc8 C:\Program Files (x86)\ETAS\INTECRIO5.0\Target\Etarget\ES910\libtarget.a(i_rtioma.o)
                0x480b6edc                rtioManMethods
                0x480b6f84                rtioMan_c
 .data          0x480b6fa0        0x1 C:\Program Files (x86)\ETAS\INTECRIO5.0\Target\Etarget\ES910\libtarget.a(i_salone.o)
 *fill*         0x480b6fa1        0x3 00
 .data          0x480b6fa4       0x78 C:\Program Files (x86)\ETAS\INTECRIO5.0\Target\Etarget\ES910\libtarget.a(t_croman.o)
                0x480b7000                crossbarMan_c
                0x480b6fa8                crossbarManMethods
 .data          0x480b701c        0x0 C:\Program Files (x86)\ETAS\INTECRIO5.0\Target\Etarget\ES910\libtarget.a(t_crosll.o)
 .data          0x480b701c       0x60 C:\Program Files (x86)\ETAS\INTECRIO5.0\Target\Etarget\ES910\libtarget.a(t_nvram.o)
                0x480b7060                nvramMan_c
                0x480b702c                nvramManMethods
 .data          0x480b707c        0x0 C:\Program Files (x86)\ETAS\INTECRIO5.0\Target\Etarget\ES910\libtarget.a(t_objlis.o)
 .data          0x480b707c       0x14 C:\Program Files (x86)\ETAS\INTECRIO5.0\Target\Etarget\ES910\libtarget.a(t_rtcros.o)
 .data          0x480b7090       0x70 C:\Program Files (x86)\ETAS\INTECRIO5.0\Target\Etarget\ES910\libtarget.a(t_sgman.o)
                0x480b709c                stimuliGenManMethods
                0x480b7090                sg_ClassObj
                0x480b70e4                stimuliGenMan_c
 .data          0x480b7100      0x19c C:\Program Files (x86)\ETAS\INTECRIO5.0\Target\Etarget\ES910\libtarget.a(y_primit.o)
                0x480b7130                matrixWrapper_typeSize_4_ClassObj
                0x480b71f0                scalarWrapper_typeSize_4_ClassObj
                0x480b7118                matrixWrapper_typeSize_2_ClassObj
                0x480b71a8                vectorWrapper_typeSize_8_ClassObj
                0x480b71c0                scalarWrapper_typeSize_1_ClassObj
                0x480b7190                vectorWrapper_typeSize_4_ClassObj
                0x480b7160                vectorWrapper_typeSize_1_ClassObj
                0x480b7148                matrixWrapper_typeSize_8_ClassObj
                0x480b71d8                scalarWrapper_typeSize_2_ClassObj
                0x480b7178                vectorWrapper_typeSize_2_ClassObj
                0x480b7208                scalarWrapper_typeSize_8_ClassObj
                0x480b7100                matrixWrapper_typeSize_1_ClassObj
 .data          0x480b729c       0x6c C:\Program Files (x86)\ETAS\INTECRIO5.0\Target\Etarget\ES910\libtarget.a(a1b_dacq.o)
                0x480b72c0                a1bDacqMethods
                0x480b729c                a1bDacq_c
 .data          0x480b7308        0x0 C:\Program Files (x86)\ETAS\INTECRIO5.0\Target\Etarget\ES910\libtarget.a(a_contai.o)
 .data          0x480b7308       0x14 C:\Program Files (x86)\ETAS\INTECRIO5.0\Target\Etarget\ES910\libtarget.a(i_transf.o)
                0x480b7308                crossbarTransferFuncTable
 .data          0x480b731c        0x0 C:\Program Files (x86)\ETAS\INTECRIO5.0\Target\Etarget\ES910\libtarget.a(t_sglow.o)
 .data          0x480b731c      0x10c C:\Program Files (x86)\ETAS\INTECRIO5.0\Target\Etarget\rtio\global\es910\librtio_gnu.a(comm_err.o)
                0x480b73fc                etasBoardNames
                0x480b731c                commErrMessages
 .data          0x480b7428        0x0 C:\Program Files (x86)\ETAS\INTECRIO5.0\Target\Etarget\rtio\global\es910\librtio_gnu.a(p_rtio.o)
 .data          0x480b7428        0x4 C:\Program Files (x86)\ETAS\INTECRIO5.0\Target\Etarget\rtio\global\es910\librtio_gnu.a(p_rtio_s.o)
 .data          0x480b742c        0x0 C:\Program Files (x86)\ETAS\INTECRIO5.0\Target\Etarget\rtio\global\es910\librtio_gnu.a(rtio_err.o)
 .data          0x480b742c        0x0 C:\Program Files (x86)\ETAS\INTECRIO5.0\Target\Etarget\rtio\global\es910\librtio_gnu.a(fhc_emu.o)
 .data          0x480b742c        0x0 C:\Program Files (x86)\ETAS\INTECRIO5.0\Target\Etarget\ES910\rta_osek\librtk_s.a(ostarget.o)
 .data          0x480b742c        0x0 C:\Program Files (x86)\ETAS\INTECRIO5.0\Target\Etarget\ES910\rta_osek\librtk_s.a(osfptgt.o)
 .data          0x480b742c        0x0 C:\Program Files (x86)\ETAS\INTECRIO5.0\Target\Etarget\ES910\rta_osek\librtk_s.a(osiwrap1.o)
 .data          0x480b742c        0x0 C:\Program Files (x86)\ETAS\INTECRIO5.0\Target\Etarget\ES910\rta_osek\librtk_s.a(osxdspnf.o)
 .data          0x480b742c        0x0 C:\Program Files (x86)\ETAS\INTECRIO5.0\Target\Etarget\ES910\rta_osek\librtk_s.a(osysd1hf.o)
 .data          0x480b742c        0x0 C:\Program Files (x86)\ETAS\INTECRIO5.0\Target\Etarget\ES910\rta_osek\librtk_s.a(osysdfhf.o)
 .data          0x480b742c        0x0 C:\Program Files (x86)\ETAS\INTECRIO5.0\Target\Etarget\ES910\rta_osek\librtk_s.a(osysdfhi.o)
 .data          0x480b742c        0x0 C:\Program Files (x86)\ETAS\INTECRIO5.0\Target\Etarget\ES910\rta_osek\librtk_s.a(ostgid.o)
 .data          0x480b742c        0x0 C:\Program Files (x86)\ETAS\INTECRIO5.0\Target\Etarget\ES910\rta_osek\librtk_s.a(ostschf.o)
 .data          0x480b742c        0x0 C:\Program Files (x86)\ETAS\INTECRIO5.0\Target\Etarget\ES910\rta_osek\librtk_s.a(osieai.o)
 .data          0x480b742c        0x0 C:\Program Files (x86)\ETAS\INTECRIO5.0\Target\Etarget\ES910\rta_osek\librtk_s.a(osidai.o)
 .data          0x480b742c        0x0 C:\Program Files (x86)\ETAS\INTECRIO5.0\Target\Etarget\ES910\rta_osek\librtk_s.a(osisoi.o)
 .data          0x480b742c        0x0 C:\Program Files (x86)\ETAS\INTECRIO5.0\Target\Etarget\ES910\rta_osek\librtk_s.a(osirai.o)
 .data          0x480b742c        0x0 C:\Program Files (x86)\ETAS\INTECRIO5.0\Target\Etarget\ES910\rta_osek\librtk_s.a(osisai.o)
 .data          0x480b742c        0x0 C:\Program Files (x86)\ETAS\INTECRIO5.0\Target\Etarget\ES910\rta_osek\librtk_s.a(osxperr2.o)
 .data          0x480b742c        0x0 C:\Program Files (x86)\ETAS\INTECRIO5.0\Target\Etarget\ES910\rta_osek\librtk_s.a(osxglobs.o)
 .data          0x480b742c        0x0 C:\Program Files (x86)\ETAS\INTECRIO5.0\Target\Etarget\ES910\rta_osek\librtk_s.a(osostart.o)
 .data          0x480b742c        0x0 C:\Program Files (x86)\ETAS\INTECRIO5.0\Target\Etarget\ES910\rta_osek\librtk_s.a(ososhuth.o)
 .data          0x480b742c        0x0 C:\Program Files (x86)\ETAS\INTECRIO5.0\Target\Etarget\ES910\rta_osek\librtk_s.a(osttermh.o)
 .data          0x480b742c        0x0 C:\Program Files (x86)\ETAS\INTECRIO5.0\Target\Etarget\ES910\rta_osek\librtk_s.a(ostactsf.o)
 .data          0x480b742c        0x0 C:\Program Files (x86)\ETAS\INTECRIO5.0\Target\Etarget\ES910\rta_osek\librtk_s.a(ostactnf.o)
 .data          0x480b742c        0x0 C:\Program Files (x86)\ETAS\INTECRIO5.0\Target\Etarget\ES910\rta_osek\librtk_s.a(osatickn.o)
 .data          0x480b742c        0x0 C:\Program Files (x86)\ETAS\INTECRIO5.0\Target\Etarget\ES910\rta_osek\librtk_s.a(osacallb.o)
 .data          0x480b742c        0x0 C:\Program Files (x86)\ETAS\INTECRIO5.0\Target\Etarget\ES910\rta_osek\librtk_s.a(osxdpsho.o)
 .data          0x480b742c        0x0 C:\Program Files (x86)\ETAS\INTECRIO5.0\Target\Etarget\ES910\rta_osek\librtk_s.a(osiwrap.o)
 .data          0x480b742c        0x0 C:\Program Files (x86)\ETAS\INTECRIO5.0\Target\Etarget\ES910\rta_osek\librtk_s.a(osxjmp.o)
 .data          0x480b742c        0x0 C:\Program Files (x86)\ETAS\INTECRIO5.0\Target\Etarget\ES910\rta_osek\librtk_s.a(ososhutn.o)
 .data          0x480b742c       0x18 C:\Program Files (x86)\ETAS\INTECRIO5.0\Target\Etarget\ES910\libcommon.a(p_execl1.o)
                0x480b7438                superObjectMethodList
                0x480b742c                superClassMethodList
 .data          0x480b7444        0x0 C:\Program Files (x86)\ETAS\INTECRIO5.0\Target\Etarget\ES910\libcommon.a(p_protl1.o)
 .data          0x480b7444       0x44 C:\Program Files (x86)\ETAS\INTECRIO5.0\Target\Etarget\ES910\libcommon.a(p_stdeb.o)
                0x480b7468                debug_c
 .data          0x480b7488        0x0 Car_State1/Car_State1.a(Car_State_main.o)
 .data          0x480b7488        0x0 Car_State1/Car_State1.a(rt_sim.o)
 .data          0x480b7488        0x0 Disconnections1/Disconnections1.a(Disconnections_main.o)
 .data          0x480b7488        0x0 Disconnections1/Disconnections1.a(rt_sim.o)
 .data          0x480b7488        0x0 Ellipse1/Ellipse1.a(Ellipse_main.o)
 .data          0x480b7488        0x0 Ellipse1/Ellipse1.a(rt_sim.o)
 .data          0x480b7488        0x0 Inverters_Action1/Inverters_Action1.a(Inverters_Action_main.o)
 .data          0x480b7488        0x0 Inverters_Action1/Inverters_Action1.a(rt_sim.o)
 .data          0x480b7488        0x0 Inverters_Data1/Inverters_Data1.a(Inverters_Data_main.o)
 .data          0x480b7488        0x0 Inverters_Data1/Inverters_Data1.a(rt_sim.o)
 .data          0x480b7488        0x0 Power_Control1/Power_Control1.a(Power_Control_main.o)
 .data          0x480b7488        0x0 Power_Control1/Power_Control1.a(rt_sim.o)
 .data          0x480b7488        0x0 Sensors1/Sensors1.a(Sensors_main.o)
 .data          0x480b7488        0x0 Sensors1/Sensors1.a(rt_sim.o)
 .data          0x480b7488        0x0 Synchronism1/Synchronism1.a(Synchronism_main.o)
 .data          0x480b7488        0x0 Synchronism1/Synchronism1.a(rt_sim.o)
 .data          0x480b7488        0x0 VDC1/VDC1.a(VDC_main.o)
 .data          0x480b7488        0x0 VDC1/VDC1.a(rt_sim.o)
 .data          0x480b7488        0x0 SoC1/SoC1.a(SoC_main.o)
 .data          0x480b7488        0x0 SoC1/SoC1.a(rt_sim.o)
 .data          0x480b7488        0x0 C:/Program Files (x86)/ETAS/INTECRIO5.0/Target/ETarget/rtio/es9xxcan/ES910/es9xxCan_gnu.lib(es9xxCan.o)
 .data          0x480b7488        0x0 C:/Program Files (x86)/ETAS/INTECRIO5.0/Target/ETarget/rtio/es9xxcan/ES910/es9xxCan_gnu.lib(es9xxCanCanio.o)
 .data          0x480b7488      0x124 C:/Program Files (x86)/ETAS/INTECRIO5.0/Target/ETarget/rtio/es9xxcan/ES910/es9xxCan_gnu.lib(es9xxCanErr.o)
                0x480b7488                es9xxCanErrMessages
 .data          0x480b75ac        0x0 C:/Program Files (x86)/ETAS/INTECRIO5.0/Target/ETarget/rtio/es9xxcan/ES910/es9xxCan_gnu.lib(es9xxCanHalBuf.o)
 .data          0x480b75ac        0x0 C:/Program Files (x86)/ETAS/INTECRIO5.0/Target/ETarget/rtio/es9xxcan/ES910/es9xxCan_gnu.lib(es9xxCanHalIfi.o)
 .data          0x480b75ac        0x0 C:/ETAS/Compiler/INTECRIO5.0/QNXCompiler-V6.5\host\win32\x86/usr/lib/gcc/powerpc-unknown-nto-qnx6.5.0/4.4.2/spe/libgcc.a(_floatdidf.o)
 .data          0x480b75ac      0x220 C:\Program Files (x86)\ETAS\INTECRIO5.0\Target\Etarget\ES910\libes910.a(t_dataset.o)
 .data          0x480b77cc        0x0 C:\Program Files (x86)\ETAS\INTECRIO5.0\Target\Etarget\ES910\libtarget.a(crc32.o)
                0x480b77dc                . = (. + 0x10)
 *fill*         0x480b77cc       0x10 00

.os_pir         0x480b77dc        0x0
 .os_pir        0x480b77dc        0x0 OSC/osgen.o

.os_pur         0x480b77dc        0x0
 .os_pur        0x480b77dc        0x0 OSC/osgen.o

.os_pnir        0x480b77dc       0x54
 .os_pnir       0x480b77dc       0x54 OSC/osgen.o
                0x480b77dc                OS_L0001
                0x480b7808                OS_L0004
                0x480b7830                OS_L000B
                0x480b7804                OS_L0002
                0x480b77dc                OS_L000A

.os_intvec      0x480b7830       0x64
 .os_intvec     0x480b7830       0x64 OSC/osgen.o
                0x480b7834                os_int_id
                0x480b7830                os_sivt_count
                0x480b784c                os_sivt

.data1
 *(.data1)

.got            0x480b7894       0x44
 *(.got)
 .got           0x480b7894       0x44 C:/ETAS/Compiler/INTECRIO5.0/QNXCompiler-V6.5\target\qnx6/ppcbe-spe/lib/crt1.o
                0x480b78cc                _GLOBAL_OFFSET_TABLE_

.sdata          0x480b78d8       0x18
                0x480bf8d8                PROVIDE (_SDA_BASE_, 0x8000)
 *(.sdata .sdata.* .gnu.linkonce.s.*)
 .sdata         0x480b78d8        0x8 C:\Program Files (x86)\ETAS\INTECRIO5.0\Target\Etarget\ES910\libes910.a(t_main.o)
                0x480b78dc                etasvermagic_PLEASE_DEFINE_MACRO_PROGRAM_VERSION
                0x480b78d8                etasversion_PLEASE_DEFINE_MACRO_PROGRAM_VERSION
 .sdata         0x480b78e0        0x9 C:\Program Files (x86)\ETAS\INTECRIO5.0\Target\Etarget\ES910\rta_osek\librtk_s.a(osxglobs.o)
                0x480b78e0                os_oilcfg_rev
                0x480b78e8                os_target_rev
                0x480b78e4                os_rtkcfg_rev
 *fill*         0x480b78e9        0x3 00
 .sdata         0x480b78ec        0x4 C:\Program Files (x86)\ETAS\INTECRIO5.0\Target\Etarget\ES910\libcommon.a(p_stdeb.o)
                0x480b78ec                debugMethods
                0x480b78f0                _edata = .
                0x480b78f0                PROVIDE (edata, .)
                0x480b78f0                __bss_start = .

.sbss           0x480b78f0      0x14c
                0x480b78f0                PROVIDE (__sbss_start, .)
                0x480b78f0                PROVIDE (___sbss_start, .)
 *(.dynsbss)
 .dynsbss       0x00000000        0x0 C:/ETAS/Compiler/INTECRIO5.0/QNXCompiler-V6.5\target\qnx6/ppcbe-spe/lib/crt1.o
 *(.sbss .sbss.* .gnu.linkonce.sb.*)
 .sbss          0x00000000        0x0 C:/ETAS/Compiler/INTECRIO5.0/QNXCompiler-V6.5\target\qnx6/ppcbe-spe/lib/crt1.o
 .sbss          0x480b78f0        0x8 Ellipse1/Ellipse1.a(Ellipse.o)
                0x480b78f0                Ellipse_B
 .sbss          0x480b78f8        0xc Inverters_Action1/Inverters_Action1.a(Inverters_Action.o)
                0x480b78f8                Inverters_Action_B
                0x480b78fd                Inverters_Action_Y
 *fill*         0x480b7904        0x4 00
 .sbss          0x480b7908        0x8 Synchronism1/Synchronism1.a(Synchronism.o)
                0x480b7908                Synchronism_DW
 .sbss          0x480b7910       0x2c matlabsharedR2023b/matlabsharedR2023b.a(rt_nonfinite.o)
                0x480b7910                rtInfF
                0x480b7918                rtNaN
                0x480b7920                rtNaNF
                0x480b7928                rtMinusInf
                0x480b7930                rtInf
                0x480b7938                rtMinusInfF
 .sbss          0x480b793c        0x4 OSC/osekdefs.o
                0x480b793c                os_serviceId
 .sbss          0x480b7940       0x84 OSC/DriverThreads.o
                0x480b7940                ptrthread6Dtm
                0x480b7944                ptrthread17Dtm
                0x480b7948                ptrthread12Dtm
                0x480b794c                ptrthread24Dtm
                0x480b7950                ptrthread19Dtm
                0x480b7954                ptrthread4Dtm
                0x480b7958                ptrthread10Dtm
                0x480b795c                ptrthreadEtasL1TaskDtm
                0x480b7960                ptrthread9Dtm
                0x480b7964                ptrthread15Dtm
                0x480b7968                ptrthread7Dtm
                0x480b796c                ptrthread29Dtm
                0x480b7970                ptrthread1Dtm
                0x480b7974                ptrthread13Dtm
                0x480b7978                ptrthread22Dtm
                0x480b797c                ptrthread20Dtm
                0x480b7980                ptrthread18Dtm
                0x480b7984                ptrthreadEtasConfigTaskDtm
                0x480b7988                ptrthread27Dtm
                0x480b798c                ptrthread25Dtm
                0x480b7990                ptrthread11Dtm
                0x480b7994                ptrthread3Dtm
                0x480b7998                ptrthread5Dtm
                0x480b799c                ptrthreadEtasIsrDtm
                0x480b79a0                ptrthread8Dtm
                0x480b79a4                ptrthread0Dtm
                0x480b79a8                ptrthread2Dtm
                0x480b79ac                ptrthread28Dtm
                0x480b79b0                ptrthread16Dtm
                0x480b79b4                ptrthread23Dtm
                0x480b79b8                ptrthread14Dtm
                0x480b79bc                ptrthread21Dtm
                0x480b79c0                ptrthread26Dtm
 .sbss          0x480b79c4        0x8 C:\Program Files (x86)\ETAS\INTECRIO5.0\Target\Etarget\ES910\libes910.a(i_rtautil.o)
                0x480b79c8                os_atomic_count
                0x480b79c4                os_dT
 .sbss          0x480b79cc        0x4 C:\Program Files (x86)\ETAS\INTECRIO5.0\Target\Etarget\ES910\libes910.a(t_idle.o)
                0x480b79cc                etasIdleCycleCnt
 .sbss          0x480b79d0        0x8 C:\Program Files (x86)\ETAS\INTECRIO5.0\Target\Etarget\ES910\libes910.a(t_l1com.o)
                0x480b79d4                etasResMgrIdT
                0x480b79d0                gotL1
 .sbss          0x480b79d8        0x8 C:\Program Files (x86)\ETAS\INTECRIO5.0\Target\Etarget\ES910\libes910.a(t_main.o)
                0x480b79dc                rtaOsekThreadPrio
                0x480b79d8                etascopyright_PLEASE_DEFINE_MACRO_PROGRAM_VERSION
 .sbss          0x480b79e0        0x4 C:\Program Files (x86)\ETAS\INTECRIO5.0\Target\Etarget\ES910\libes910.a(t_targetutil.o)
                0x480b79e0                ccsr_base
 .sbss          0x480b79e4        0x8 C:\Program Files (x86)\ETAS\INTECRIO5.0\Target\Etarget\ES910\libtarget.a(a_dacqui.o)
                0x480b79e8                logGroupEnable
                0x480b79e4                isUserDefinedTime
 .sbss          0x480b79ec        0x4 C:\Program Files (x86)\ETAS\INTECRIO5.0\Target\Etarget\ES910\libtarget.a(i_osman.o)
                0x480b79ec                onLineSimulation
 .sbss          0x480b79f0        0x4 C:\Program Files (x86)\ETAS\INTECRIO5.0\Target\Etarget\ES910\libtarget.a(i_rtioma.o)
                0x480b79f0                extendedRtioMapFuncTable
 .sbss          0x480b79f4        0x1 C:\Program Files (x86)\ETAS\INTECRIO5.0\Target\Etarget\rtio\global\es910\librtio_gnu.a(p_rtio.o)
                0x480b79f4                rtioErrFlg
 *fill*         0x480b79f5        0x3 00
 .sbss          0x480b79f8       0x20 C:\Program Files (x86)\ETAS\INTECRIO5.0\Target\Etarget\ES910\rta_osek\librtk_s.a(ostarget.o)
                0x480b79f8                os_stack_base
                0x480b79fc                os_highest_sigmask
                0x480b7a04                os_os_sigmask
                0x480b7a0c                os_user_sigmask
                0x480b7a14                os_current_ipl
 .sbss          0x480b7a18        0x4 C:\Program Files (x86)\ETAS\INTECRIO5.0\Target\Etarget\ES910\rta_osek\librtk_s.a(osidai.o)
                0x480b7a18                osek_all_prev
 .sbss          0x480b7a1c        0x8 C:\Program Files (x86)\ETAS\INTECRIO5.0\Target\Etarget\ES910\rta_osek\librtk_s.a(osisoi.o)
                0x480b7a20                osek_suspend_prev
                0x480b7a1c                osek_suspend_nesting
 .sbss          0x480b7a24        0x8 C:\Program Files (x86)\ETAS\INTECRIO5.0\Target\Etarget\ES910\rta_osek\librtk_s.a(osisai.o)
                0x480b7a28                osek_suspend_all_prev
                0x480b7a24                osek_suspend_all_nesting
 .sbss          0x480b7a2c       0x10 C:\Program Files (x86)\ETAS\INTECRIO5.0\Target\Etarget\ES910\rta_osek\librtk_s.a(osxglobs.o)
                0x480b7a34                osek_cur_mode
                0x480b7a2c                osek_in_error_hook
                0x480b7a30                osOptions
                0x480b7a38                osek_running_task
 *(.scommon)
                0x480b7a3c                PROVIDE (__sbss_end, .)
                0x480b7a3c                PROVIDE (___sbss_end, .)

.plt            0x480b7a3c      0x978
 *(.plt)
 .plt           0x480b7a3c      0x978 C:/ETAS/Compiler/INTECRIO5.0/QNXCompiler-V6.5\target\qnx6/ppcbe-spe/lib/crt1.o
                0x480b7a84                MsgWrite
                0x480b7a8c                _setjmp
                0x480b7a94                sendto@@libsocket.so.2
                0x480b7a9c                pthread_mutex_trylock
                0x480b7aa4                __register_frame_info
                0x480b7aac                etasLogCoreFeedRecordToBackends
                0x480b7ab4                pthread_attr_setschedparam
                0x480b7abc                sqrt
                0x480b7ac4                tempMgrGetAlarmState
                0x480b7acc                dispatch_context_free
                0x480b7ad4                __sigjmp_prolog
                0x480b7adc                clock_nanosleep
                0x480b7ae4                etasMapCCSR85xx
                0x480b7aec                pthread_attr_setinheritsched
                0x480b7af4                cJSON_Parse
                0x480b7afc                clock_gettime
                0x480b7b04                open
                0x480b7b0c                pthread_attr_setdetachstate
                0x480b7b14                getenv
                0x480b7b1c                fwrite
                0x480b7b24                system
                0x480b7b2c                floor
                0x480b7b34                cmsHighSpeedSendAlloc
                0x480b7b3c                memcpy
                0x480b7b44                sigfillset
                0x480b7b4c                sleep
                0x480b7b54                realloc
                0x480b7b5c                hwInfoGetBoardId
                0x480b7b64                SignalProcmask
                0x480b7b6c                sigdelset
                0x480b7b74                pthread_mutex_init
                0x480b7b7c                vfprintf
                0x480b7b84                etasShmemUnmap
                0x480b7b8c                resmgr_attach
                0x480b7b94                tmpnam
                0x480b7b9c                MsgRead
                0x480b7ba4                pthread_attr_init
                0x480b7bac                strcat
                0x480b7bb4                feof
                0x480b7bbc                trunc
                0x480b7bc4                etasLogInit
                0x480b7bcc                remove
                0x480b7bd4                __fixdfdi
                0x480b7bdc                setenv
                0x480b7be4                __cxa_finalize
                0x480b7bec                sched_get_priority_max
                0x480b7bf4                __udivdi3
                0x480b7bfc                malloc
                0x480b7c04                _init_array
                0x480b7c0c                __get_errno_ptr
                0x480b7c14                strncmp
                0x480b7c1c                dispatch_block
                0x480b7c24                dlsym
                0x480b7c2c                strlen
                0x480b7c34                devctl
                0x480b7c3c                pthread_mutex_lock
                0x480b7c44                pause
                0x480b7c4c                pthread_sigmask
                0x480b7c54                sched_get_priority_min
                0x480b7c5c                delay
                0x480b7c64                lseek
                0x480b7c6c                InterruptDetach
                0x480b7c74                snprintf
                0x480b7c7c                iofunc_attr_lock
                0x480b7c84                cmsReceiveMessage
                0x480b7c8c                atomic_clr_value
                0x480b7c94                read
                0x480b7c9c                tripleBufInit
                0x480b7ca4                atexit
                0x480b7cac                fmin
                0x480b7cb4                MsgReceive
                0x480b7cbc                mmap_device_memory
                0x480b7cc4                getpid
                0x480b7ccc                etasParseOptions
                0x480b7cd4                InterruptUnmask
                0x480b7cdc                sigprocmask
                0x480b7ce4                vetasDebugLog
                0x480b7cec                userWdConnect
                0x480b7cf4                mmap
                0x480b7cfc                fclose
                0x480b7d04                cJSON_GetErrorPtr
                0x480b7d0c                send@@libsocket.so.2
                0x480b7d14                SignalKill
                0x480b7d1c                etasLogCreateDebugChannel
                0x480b7d24                bsearch
                0x480b7d2c                strncat
                0x480b7d34                fopen
                0x480b7d3c                resmgr_msgread
                0x480b7d44                chmod
                0x480b7d4c                ThreadCtl
                0x480b7d54                etasLogBackendSetMinSev
                0x480b7d5c                dispatch_create
                0x480b7d64                fileno
                0x480b7d6c                pthread_create
                0x480b7d74                write
                0x480b7d7c                cmsReceiveMessageEx
                0x480b7d84                _init_libc
                0x480b7d8c                pthread_cond_signal
                0x480b7d94                SignalAction
                0x480b7d9c                close
                0x480b7da4                cmsSendMessageEx
                0x480b7dac                dispatch_handler
                0x480b7db4                dispatch_context_alloc
                0x480b7dbc                atomic_set_value
                0x480b7dc4                cmsStartAcquisition
                0x480b7dcc                fgets
                0x480b7dd4                sigaction
                0x480b7ddc                iofunc_attr_unlock
                0x480b7de4                pthread_self
                0x480b7dec                sscanf
                0x480b7df4                msync
                0x480b7dfc                strncpy
                0x480b7e04                pthread_cond_timedwait
                0x480b7e0c                iofunc_devctl_default
                0x480b7e14                tempMgrDeregisterEvent
                0x480b7e1c                etasShmemMap
                0x480b7e24                etasSetLed
                0x480b7e2c                cmsStopAcquisition
                0x480b7e34                sigaddset
                0x480b7e3c                pthread_cond_init
                0x480b7e44                cJSON_Delete
                0x480b7e4c                MsgReply
                0x480b7e54                pthread_attr_setschedpolicy
                0x480b7e5c                MsgSend
                0x480b7e64                unsetenv
                0x480b7e6c                unlink
                0x480b7e74                fflush
                0x480b7e7c                memset
                0x480b7e84                es910GetPcbCode
                0x480b7e8c                _Sin
                0x480b7e94                recvfrom@@libsocket.so.2
                0x480b7e9c                qsort
                0x480b7ea4                perror
                0x480b7eac                munmap
                0x480b7eb4                ftruncate
                0x480b7ebc                fmax
                0x480b7ec4                fprintf
                0x480b7ecc                sigtimedwait
                0x480b7ed4                fmod
                0x480b7edc                memcmp
                0x480b7ee4                vsnprintf
                0x480b7eec                sigemptyset
                0x480b7ef4                SchedCtl
                0x480b7efc                _fini_array
                0x480b7f04                iofunc_attr_init
                0x480b7f0c                iofunc_func_init
                0x480b7f14                etasLogBackendActivate
                0x480b7f1c                pthread_exit
                0x480b7f24                _preinit_array
                0x480b7f2c                cmsCloseSession
                0x480b7f34                pthread_cancel
                0x480b7f3c                siglongjmp
                0x480b7f44                cmsRegisterCanRcvId
                0x480b7f4c                __signalstub
                0x480b7f54                rand
                0x480b7f5c                pthread_setname_np
                0x480b7f64                pthread_setschedparam
                0x480b7f6c                nsec2timespec
                0x480b7f74                MsgError
                0x480b7f7c                pthread_getschedparam
                0x480b7f84                exit
                0x480b7f8c                pthread_mutex_unlock
                0x480b7f94                cmsOpenSessionEx
                0x480b7f9c                mallinfo
                0x480b7fa4                hwInfoGetPcbRevision
                0x480b7fac                strstr
                0x480b7fb4                fstat
                0x480b7fbc                strcmp
                0x480b7fc4                getopt
                0x480b7fcc                cJSON_GetObjectItem
                0x480b7fd4                tempMgrRegisterEvent
                0x480b7fdc                etasLogSetDebugChannelSeverityFilter
                0x480b7fe4                free
                0x480b7fec                etasLogSetDestination
                0x480b7ff4                atoi
                0x480b7ffc                errLog
                0x480b8004                hwInfoGetSerialNumber
                0x480b800c                fsync
                0x480b8014                userWdDisconnect
                0x480b801c                vslogf
                0x480b8024                strerror
                0x480b802c                thread_pool_create
                0x480b8034                srand
                0x480b803c                userWdService
                0x480b8044                pthread_cond_wait
                0x480b804c                cmsErrorState
                0x480b8054                strdup
                0x480b805c                dispatch_unblock
                0x480b8064                es910GetCoreClockFreq
                0x480b806c                cmsSendMessage
                0x480b8074                cmsAllocBuffer
                0x480b807c                recv@@libsocket.so.2
                0x480b8084                strcpy
                0x480b808c                InterruptAttachEvent
                0x480b8094                __deregister_frame_info
                0x480b809c                thread_pool_start

.bss            0x480b83b8    0x29abc
 *(.dynbss)
 .dynbss        0x480b83b8      0x100 C:/ETAS/Compiler/INTECRIO5.0/QNXCompiler-V6.5\target\qnx6/ppcbe-spe/lib/crt1.o
                0x480b83b8                errno
                0x480b83bc                _Stdout
                0x480b8410                _Dbl
                0x480b8458                __cpu_flags
                0x480b845c                _Stderr
                0x480b84ac                optv
                0x480b84b0                _syspage_ptr
                0x480b84b4                optarg
 *(.bss .bss.* .gnu.linkonce.b.*)
 .bss           0x480b84b8        0x0 C:/ETAS/Compiler/INTECRIO5.0/QNXCompiler-V6.5\target\qnx6/ppcbe-spe/lib/crt1.o
 .bss           0x480b84b8        0x0 C:/ETAS/Compiler/INTECRIO5.0/QNXCompiler-V6.5\target\qnx6/ppcbe-spe/lib/crti.o
 .bss           0x480b84b8       0x20 C:/ETAS/Compiler/INTECRIO5.0/QNXCompiler-V6.5\host\win32\x86/usr/lib/gcc/powerpc-unknown-nto-qnx6.5.0/4.4.2/spe/crtbegin.o
 .bss           0x480b84d8        0x8 ROOT_instances.o
 .bss           0x480b84e0        0x0 _INT_pid.pi.o
 .bss           0x480b84e0        0x0 userFuncProcessCanPayload.o
 .bss           0x480b84e0        0x0 userFuncProcessFlexRayPayload.o
 .bss           0x480b84e0        0x0 OSC/i_rtawrapper.o
 .bss           0x480b84e0        0x0 Car_State0/Car_State_instances.o
 .bss           0x480b84e0      0x290 Car_State1/Car_State1.a(Car_State.o)
 .bss           0x480b8770        0x0 Disconnections0/Disconnections_instances.o
 .bss           0x480b8770      0x290 Disconnections1/Disconnections1.a(Disconnections.o)
 .bss           0x480b8a00        0x0 Ellipse0/Ellipse_instances.o
 .bss           0x480b8a00      0x290 Ellipse1/Ellipse1.a(Ellipse.o)
 .bss           0x480b8c90        0x0 Inverters_Action0/Inverters_Action_instances.o
 .bss           0x480b8c90      0x290 Inverters_Action1/Inverters_Action1.a(Inverters_Action.o)
 .bss           0x480b8f20        0x0 Inverters_Action1/Inverters_Action1.a(Inverters_Action_data.o)
 .bss           0x480b8f20        0x0 Inverters_Data0/Inverters_Data_instances.o
 .bss           0x480b8f20      0x290 Inverters_Data1/Inverters_Data1.a(Inverters_Data.o)
 .bss           0x480b91b0        0x0 Power_Control0/Power_Control_instances.o
 .bss           0x480b91b0      0x290 Power_Control1/Power_Control1.a(Power_Control.o)
 .bss           0x480b9440        0x0 Sensors0/Sensors_instances.o
 .bss           0x480b9440      0x290 Sensors1/Sensors1.a(Sensors.o)
 .bss           0x480b96d0        0x0 Sensors1/Sensors1.a(Sensors_data.o)
 .bss           0x480b96d0        0x0 Synchronism0/Synchronism_instances.o
 .bss           0x480b96d0      0x290 Synchronism1/Synchronism1.a(Synchronism.o)
 .bss           0x480b9960        0x0 VDC0/VDC_instances.o
 .bss           0x480b9960      0x290 VDC1/VDC1.a(VDC.o)
 .bss           0x480b9bf0        0x0 SoC0/SoC_instances.o
 .bss           0x480b9bf0      0xa60 SoC1/SoC1.a(SoC.o)
 .bss           0x480ba650        0x0 SoC1/SoC1.a(SoC_data.o)
 .bss           0x480ba650        0x0 matlabsharedR2023b/matlabsharedR2023b.a(const_params.o)
 .bss           0x480ba650        0x0 matlabsharedR2023b/matlabsharedR2023b.a(look1_binlxpw.o)
 .bss           0x480ba650        0x0 matlabsharedR2023b/matlabsharedR2023b.a(look2_binlxpw.o)
 .bss           0x480ba650        0x0 matlabsharedR2023b/matlabsharedR2023b.a(rt_nonfinite.o)
 .bss           0x480ba650        0x0 matlabsharedR2023b/matlabsharedR2023b.a(rtgetinf.o)
 .bss           0x480ba650        0x0 matlabsharedR2023b/matlabsharedR2023b.a(rtgetnan.o)
 .bss           0x480ba650      0x150 OSC/osekdefs.o
 .bss           0x480ba7a0        0x0 OSC/osgen.o
 .bss           0x480ba7a0        0x0 OSC/TaskISRArchive.a(etasConfigTask.o)
 .bss           0x480ba7a0        0x0 OSC/TaskISRArchive.a(Sync_25ms.o)
 .bss           0x480ba7a0        0x0 OSC/TaskISRArchive.a(Timer_1000ms.o)
 .bss           0x480ba7a0        0x0 OSC/TaskISRArchive.a(Timer_100ms.o)
 .bss           0x480ba7a0        0x0 OSC/TaskISRArchive.a(Timer_25ms.o)
 .bss           0x480ba7a0        0x0 OSC/TaskISRArchive.a(Timer_Inv.o)
 .bss           0x480ba7a0        0x0 OSC/TaskISRArchive.a(SWT_CAN1_AP_BMS_SDC.o)
 .bss           0x480ba7a0        0x0 OSC/TaskISRArchive.a(SWT_CAN1_AP_CurrentSensor.o)
 .bss           0x480ba7a0        0x0 OSC/TaskISRArchive.a(SWT_CAN1_AP_BMS_Voltages.o)
 .bss           0x480ba7a0        0x0 OSC/TaskISRArchive.a(SWT_CAN1_AP_BMS_ChargerParameters.o)
 .bss           0x480ba7a0        0x0 OSC/TaskISRArchive.a(SWT_CAN1_AP_BMS_Temperatures.o)
 .bss           0x480ba7a0        0x0 OSC/TaskISRArchive.a(SWT_CAN1_AP_Inverter_R_Tx.o)
 .bss           0x480ba7a0        0x0 OSC/TaskISRArchive.a(SWT_CAN1_AP_Inverter_L_Tx.o)
 .bss           0x480ba7a0        0x0 OSC/TaskISRArchive.a(SWT_CAN1_AP_DASH_Mode.o)
 .bss           0x480ba7a0        0x0 OSC/TaskISRArchive.a(SWT_CAN1_NM_BMS_Keep_Alive.o)
 .bss           0x480ba7a0        0x0 OSC/TaskISRArchive.a(SWT_CAN1_AP_BMS_AIRs_State.o)
 .bss           0x480ba7a0        0x0 OSC/TaskISRArchive.a(SWT_CAN1_NM_DASH_Keep_Alive.o)
 .bss           0x480ba7a0        0x0 OSC/TaskISRArchive.a(SWT_CAN1_AP_DASH_PrechargeRequest.o)
 .bss           0x480ba7a0        0x0 OSC/TaskISRArchive.a(SWT_CAN1_AP_DASH_EnableDrive.o)
 .bss           0x480ba7a0        0x0 OSC/TaskISRArchive.a(SWT_CAN2_AP_ELLIPSE_AUTO.o)
 .bss           0x480ba7a0        0x0 OSC/TaskISRArchive.a(SWT_CAN2_AP_ELLIPSE_GPS_VEL.o)
 .bss           0x480ba7a0        0x0 OSC/TaskISRArchive.a(SWT_CAN2_MEAS_RECU_SDC.o)
 .bss           0x480ba7a0        0x0 OSC/TaskISRArchive.a(SWT_CAN2_AP_ELLIPSE_EKF_POS.o)
 .bss           0x480ba7a0        0x0 OSC/TaskISRArchive.a(SWT_CAN2_AP_ELLIPSE_IMU_ACCEL.o)
 .bss           0x480ba7a0        0x0 OSC/TaskISRArchive.a(SWT_CAN2_AP_ELLIPSE_EKF_EULER.o)
 .bss           0x480ba7a0        0x0 OSC/TaskISRArchive.a(SWT_CAN2_AP_ELLIPSE_EKF_VEL.o)
 .bss           0x480ba7a0        0x0 OSC/TaskISRArchive.a(SWT_CAN2_NM_ELLIPSE_Status.o)
 .bss           0x480ba7a0        0x0 OSC/TaskISRArchive.a(SWT_CAN2_AP_ELLIPSE_IMU_GYRO.o)
 .bss           0x480ba7a0        0x0 OSC/TaskISRArchive.a(SWT_CAN2_AP_ELLIPSE_VEL_Valid.o)
 .bss           0x480ba7a0        0x0 OSC/TaskISRArchive.a(SWT_CAN2_AP_RECU_Data.o)
 .bss           0x480ba7a0        0x0 OSC/TaskISRArchive.a(SWT_CAN2_NM_FECU_Keep_Alive.o)
 .bss           0x480ba7a0        0x0 OSC/TaskISRArchive.a(SWT_CAN2_NM_RECU_Keep_Alive.o)
 .bss           0x480ba7a0        0x0 OSC/TaskISRArchive.a(SWT_CAN2_AP_FECU_Data2.o)
 .bss           0x480ba7a0        0x0 OSC/TaskISRArchive.a(SWT_CAN2_AP_FECU_Data1.o)
 .bss           0x480ba7a0        0x0 OSC/TaskISRArchive.a(ISR_CAN1.o)
 .bss           0x480ba7a0        0x0 OSC/TaskISRArchive.a(ISR_CAN2.o)
 .bss           0x480ba7a0        0x0 OSC/etasActivateTaskIsr.o
 .bss           0x480ba7a0        0x0 OSC/etasL1Isr.o
 .bss           0x480ba7a0        0x0 OSC/etasL1Task.o
 .bss           0x480ba7a0        0x0 OSC/etasTimerIsr.o
 .bss           0x480ba7a0        0x0 OSC/etasStopOsIsr.o
 .bss           0x480ba7a0        0x0 OSC/DriverThreads.o
 .bss           0x480ba7a0        0x0 OSC/ISRFunctions.o
                0x480ba7a0                rtioIsrFuncTable
 .bss           0x480ba7a0       0x90 OSC/osc_dyn.o
                0x480ba7a0                sgTaskTable
 .bss           0x480ba830        0x0 OSC/rtaInterface.o
 .bss           0x480ba830       0x98 OSC/ETCHooks.o
                0x480ba844                rtioHookTable5
                0x480ba854                rtioHookTable9
                0x480ba834                rtioHookTable1
                0x480ba864                rtioHookTable13
                0x480ba874                rtioHookTable17
                0x480ba880                rtioHookTable20
                0x480ba890                rtioHookTable24
                0x480ba8a0                rtioHookTable28
                0x480ba8b8                rtioHookTable34
                0x480ba830                rtioHookTable0
                0x480ba840                rtioHookTable4
                0x480ba850                rtioHookTable8
                0x480ba870                rtioHookTable16
                0x480ba860                rtioHookTable12
                0x480ba89c                rtioHookTable27
                0x480ba88c                rtioHookTable23
                0x480ba8b4                rtioHookTable33
                0x480ba8c4                rtioHookTable37
                0x480ba83c                rtioHookTable3
                0x480ba84c                rtioHookTable7
                0x480ba85c                rtioHookTable11
                0x480ba86c                rtioHookTable15
                0x480ba87c                rtioHookTable19
                0x480ba888                rtioHookTable22
                0x480ba898                rtioHookTable26
                0x480ba8ac                rtioHookTable31
                0x480ba8b0                rtioHookTable32
                0x480ba8c0                rtioHookTable36
                0x480ba848                rtioHookTable6
                0x480ba838                rtioHookTable2
                0x480ba858                rtioHookTable10
                0x480ba868                rtioHookTable14
                0x480ba878                rtioHookTable18
                0x480ba884                rtioHookTable21
                0x480ba894                rtioHookTable25
                0x480ba8a4                rtioHookTable29
                0x480ba8a8                rtioHookTable30
                0x480ba8bc                rtioHookTable35
 .bss           0x480ba8c8      0x190 OSC/XbarHooks.o
                0x480ba998                crossbarHookTable33
                0x480ba8d0                crossbarHookTable3
                0x480ba91c                crossbarHookTable22
                0x480ba92c                crossbarHookTable26
                0x480ba8f8                crossbarHookTable13
                0x480ba908                crossbarHookTable17
                0x480ba8e0                crossbarHookTable7
                0x480ba8d4                crossbarHookTable4
                0x480ba9b0                crossbarHookTable34
                0x480ba948                crossbarHookTable30
                0x480ba930                crossbarHookTable27
                0x480ba920                crossbarHookTable23
                0x480ba90c                crossbarHookTable18
                0x480ba8fc                crossbarHookTable14
                0x480ba8ec                crossbarHookTable10
                0x480ba8e4                crossbarHookTable8
                0x480ba950                crossbarHookTable31
                0x480ba9b4                crossbarHookTable35
                0x480ba8c8                crossbarHookTable1
                0x480ba924                crossbarHookTable24
                0x480ba8d8                crossbarHookTable5
                0x480ba934                crossbarHookTable28
                0x480ba914                crossbarHookTable20
                0x480ba900                crossbarHookTable15
                0x480ba910                crossbarHookTable19
                0x480ba8f0                crossbarHookTable11
                0x480ba8e8                crossbarHookTable9
                0x480ba9b8                crossbarHookTable36
                0x480ba958                crossbarHookTable32
                0x480ba928                crossbarHookTable25
                0x480ba8cc                crossbarHookTable2
                0x480ba938                crossbarHookTable29
                0x480ba918                crossbarHookTable21
                0x480ba8dc                crossbarHookTable6
                0x480ba904                crossbarHookTable16
                0x480ba8f4                crossbarHookTable12
                0x480baa08                crossbarHookTable37
 .bss           0x480baa58        0x0 ETC/FormulaTable.o
 .bss           0x480baa58        0x0 ETC/DriverTable.o
 .bss           0x480baa58        0x0 ETC/MappingFunctionTable.o
 .bss           0x480baa58        0x0 ETC/RtioL1RecordTable.o
 .bss           0x480baa58       0x44 ETC/XCPTransportLayerFunctionsTable.o
                0x480baa58                transportLayerFunctionsTable
 .bss           0x480baa9c        0x8 ETC/ChecksumAlgoTables.o
                0x480baaa0                rtioRxChecksumAlgoTable
                0x480baa9c                rtioTxChecksumAlgoTable
 .bss           0x480baaa4        0x0 CBC/CopyFunctionTable.o
 .bss           0x480baaa4        0x0 CBC/CrossbarL1RecordTable.o
 .bss           0x480baaa4        0x0 C:/ETAS/Compiler/INTECRIO5.0/QNXCompiler-V6.5\host\win32\x86/usr/lib/gcc/powerpc-unknown-nto-qnx6.5.0/4.4.2/spe/libgcc.a(_fixunsdfdi.o)
 .bss           0x480baaa4        0x0 C:/ETAS/Compiler/INTECRIO5.0/QNXCompiler-V6.5\host\win32\x86/usr/lib/gcc/powerpc-unknown-nto-qnx6.5.0/4.4.2/spe/libgcc.a(_floatundidf.o)
 .bss           0x480baaa4        0x0 C:/ETAS/Compiler/INTECRIO5.0/QNXCompiler-V6.5\host\win32\x86/usr/lib/gcc/powerpc-unknown-nto-qnx6.5.0/4.4.2/spe/crtend.o
 .bss           0x480baaa4        0x0 C:/ETAS/Compiler/INTECRIO5.0/QNXCompiler-V6.5\target\qnx6/ppcbe-spe/lib/crtn.o
 *fill*         0x480baaa4        0x4 00
 .bss           0x480baaa8      0x1bc C:\Program Files (x86)\ETAS\INTECRIO5.0\Target\Etarget\ES910\libes910.a(i_rtautil.o)
 .bss           0x480bac64        0x8 C:\Program Files (x86)\ETAS\INTECRIO5.0\Target\Etarget\ES910\libes910.a(t_driverThreads.o)
 *fill*         0x480bac6c        0x4 00
 .bss           0x480bac70       0x8c C:\Program Files (x86)\ETAS\INTECRIO5.0\Target\Etarget\ES910\libes910.a(t_idle.o)
 *fill*         0x480bacfc        0x4 00
 .bss           0x480bad00      0x100 C:\Program Files (x86)\ETAS\INTECRIO5.0\Target\Etarget\ES910\libes910.a(t_l1com.o)
 .bss           0x480bae00        0x0 C:\Program Files (x86)\ETAS\INTECRIO5.0\Target\Etarget\ES910\libes910.a(t_main.o)
 .bss           0x480bae00       0x10 C:\Program Files (x86)\ETAS\INTECRIO5.0\Target\Etarget\ES910\libes910.a(t_mlog.o)
 .bss           0x480bae10      0x108 C:\Program Files (x86)\ETAS\INTECRIO5.0\Target\Etarget\ES910\libes910.a(t_qnxtargetutil.o)
 .bss           0x480baf18        0x4 C:\Program Files (x86)\ETAS\INTECRIO5.0\Target\Etarget\ES910\libes910.a(t_targetutil.o)
 .bss           0x480baf1c       0x48 C:\Program Files (x86)\ETAS\INTECRIO5.0\Target\Etarget\ES910\libes910.a(t_watchdog.o)
 .bss           0x480baf64        0xc C:\Program Files (x86)\ETAS\INTECRIO5.0\Target\Etarget\ES910\libes910.a(p_chario.o)
 .bss           0x480baf70       0x30 C:\Program Files (x86)\ETAS\INTECRIO5.0\Target\Etarget\ES910\libes910.a(t_hwTimeSync.o)
 .bss           0x480bafa0        0x2 C:\Program Files (x86)\ETAS\INTECRIO5.0\Target\Etarget\ES910\libes910.a(t_led.o)
 *fill*         0x480bafa2        0x2 00
 .bss           0x480bafa4     0x2b4c C:\Program Files (x86)\ETAS\INTECRIO5.0\Target\Etarget\ES910\libtarget.a(a_dacqui.o)
 .bss           0x480bdaf0        0x0 C:\Program Files (x86)\ETAS\INTECRIO5.0\Target\Etarget\ES910\libtarget.a(a_l1pro.o)
 .bss           0x480bdaf0        0x0 C:\Program Files (x86)\ETAS\INTECRIO5.0\Target\Etarget\ES910\libtarget.a(a_primit.o)
 .bss           0x480bdaf0        0x0 C:\Program Files (x86)\ETAS\INTECRIO5.0\Target\Etarget\ES910\libtarget.a(a_sysver.o)
 .bss           0x480bdaf0     0x9054 C:\Program Files (x86)\ETAS\INTECRIO5.0\Target\Etarget\ES910\libtarget.a(a_targma.o)
 .bss           0x480c6b44        0x0 C:\Program Files (x86)\ETAS\INTECRIO5.0\Target\Etarget\ES910\libtarget.a(i_cpyfnc.o)
 .bss           0x480c6b44        0x0 C:\Program Files (x86)\ETAS\INTECRIO5.0\Target\Etarget\ES910\libtarget.a(i_mapfnc.o)
 .bss           0x480c6b44      0x408 C:\Program Files (x86)\ETAS\INTECRIO5.0\Target\Etarget\ES910\libtarget.a(i_osman.o)
 .bss           0x480c6f4c      0x33c C:\Program Files (x86)\ETAS\INTECRIO5.0\Target\Etarget\ES910\libtarget.a(i_rtioma.o)
 .bss           0x480c7288     0x8008 C:\Program Files (x86)\ETAS\INTECRIO5.0\Target\Etarget\ES910\libtarget.a(i_salone.o)
 .bss           0x480cf290        0xc C:\Program Files (x86)\ETAS\INTECRIO5.0\Target\Etarget\ES910\libtarget.a(t_croman.o)
 .bss           0x480cf29c        0x0 C:\Program Files (x86)\ETAS\INTECRIO5.0\Target\Etarget\ES910\libtarget.a(t_crosll.o)
 *fill*         0x480cf29c        0x4 00
 .bss           0x480cf2a0    0x100cf C:\Program Files (x86)\ETAS\INTECRIO5.0\Target\Etarget\ES910\libtarget.a(t_nvram.o)
 *fill*         0x480df36f        0x1 00
 .bss           0x480df370      0x100 C:\Program Files (x86)\ETAS\INTECRIO5.0\Target\Etarget\ES910\libtarget.a(t_objlis.o)
 .bss           0x480df470       0x20 C:\Program Files (x86)\ETAS\INTECRIO5.0\Target\Etarget\ES910\libtarget.a(t_rtcros.o)
 .bss           0x480df490       0x54 C:\Program Files (x86)\ETAS\INTECRIO5.0\Target\Etarget\ES910\libtarget.a(t_sgman.o)
 .bss           0x480df4e4        0x0 C:\Program Files (x86)\ETAS\INTECRIO5.0\Target\Etarget\ES910\libtarget.a(y_primit.o)
 .bss           0x480df4e4      0x404 C:\Program Files (x86)\ETAS\INTECRIO5.0\Target\Etarget\ES910\libtarget.a(a1b_dacq.o)
                0x480df4e4                a1bDacqGroups
 .bss           0x480df8e8        0x0 C:\Program Files (x86)\ETAS\INTECRIO5.0\Target\Etarget\ES910\libtarget.a(a_contai.o)
 .bss           0x480df8e8        0x0 C:\Program Files (x86)\ETAS\INTECRIO5.0\Target\Etarget\ES910\libtarget.a(i_transf.o)
 .bss           0x480df8e8        0x0 C:\Program Files (x86)\ETAS\INTECRIO5.0\Target\Etarget\ES910\libtarget.a(t_sglow.o)
 .bss           0x480df8e8        0x0 C:\Program Files (x86)\ETAS\INTECRIO5.0\Target\Etarget\rtio\global\es910\librtio_gnu.a(comm_err.o)
 .bss           0x480df8e8        0x4 C:\Program Files (x86)\ETAS\INTECRIO5.0\Target\Etarget\rtio\global\es910\librtio_gnu.a(p_rtio.o)
 .bss           0x480df8ec      0x50c C:\Program Files (x86)\ETAS\INTECRIO5.0\Target\Etarget\rtio\global\es910\librtio_gnu.a(p_rtio_s.o)
 .bss           0x480dfdf8      0x528 C:\Program Files (x86)\ETAS\INTECRIO5.0\Target\Etarget\rtio\global\es910\librtio_gnu.a(rtio_err.o)
 .bss           0x480e0320        0x0 C:\Program Files (x86)\ETAS\INTECRIO5.0\Target\Etarget\rtio\global\es910\librtio_gnu.a(fhc_emu.o)
 .bss           0x480e0320       0x10 C:\Program Files (x86)\ETAS\INTECRIO5.0\Target\Etarget\ES910\rta_osek\librtk_s.a(ostarget.o)
 .bss           0x480e0330        0x0 C:\Program Files (x86)\ETAS\INTECRIO5.0\Target\Etarget\ES910\rta_osek\librtk_s.a(osfptgt.o)
 .bss           0x480e0330        0x0 C:\Program Files (x86)\ETAS\INTECRIO5.0\Target\Etarget\ES910\rta_osek\librtk_s.a(osiwrap1.o)
 .bss           0x480e0330        0x0 C:\Program Files (x86)\ETAS\INTECRIO5.0\Target\Etarget\ES910\rta_osek\librtk_s.a(osxdspnf.o)
 .bss           0x480e0330        0x0 C:\Program Files (x86)\ETAS\INTECRIO5.0\Target\Etarget\ES910\rta_osek\librtk_s.a(osysd1hf.o)
 .bss           0x480e0330        0x0 C:\Program Files (x86)\ETAS\INTECRIO5.0\Target\Etarget\ES910\rta_osek\librtk_s.a(osysdfhf.o)
 .bss           0x480e0330        0x0 C:\Program Files (x86)\ETAS\INTECRIO5.0\Target\Etarget\ES910\rta_osek\librtk_s.a(osysdfhi.o)
 .bss           0x480e0330        0x0 C:\Program Files (x86)\ETAS\INTECRIO5.0\Target\Etarget\ES910\rta_osek\librtk_s.a(ostgid.o)
 .bss           0x480e0330        0x0 C:\Program Files (x86)\ETAS\INTECRIO5.0\Target\Etarget\ES910\rta_osek\librtk_s.a(ostschf.o)
 .bss           0x480e0330        0x0 C:\Program Files (x86)\ETAS\INTECRIO5.0\Target\Etarget\ES910\rta_osek\librtk_s.a(osieai.o)
 .bss           0x480e0330        0x0 C:\Program Files (x86)\ETAS\INTECRIO5.0\Target\Etarget\ES910\rta_osek\librtk_s.a(osidai.o)
 .bss           0x480e0330        0x0 C:\Program Files (x86)\ETAS\INTECRIO5.0\Target\Etarget\ES910\rta_osek\librtk_s.a(osisoi.o)
 .bss           0x480e0330        0x0 C:\Program Files (x86)\ETAS\INTECRIO5.0\Target\Etarget\ES910\rta_osek\librtk_s.a(osirai.o)
 .bss           0x480e0330        0x0 C:\Program Files (x86)\ETAS\INTECRIO5.0\Target\Etarget\ES910\rta_osek\librtk_s.a(osisai.o)
 .bss           0x480e0330        0x0 C:\Program Files (x86)\ETAS\INTECRIO5.0\Target\Etarget\ES910\rta_osek\librtk_s.a(osxperr2.o)
 .bss           0x480e0330        0x0 C:\Program Files (x86)\ETAS\INTECRIO5.0\Target\Etarget\ES910\rta_osek\librtk_s.a(osxglobs.o)
 .bss           0x480e0330        0x0 C:\Program Files (x86)\ETAS\INTECRIO5.0\Target\Etarget\ES910\rta_osek\librtk_s.a(osostart.o)
 .bss           0x480e0330        0x0 C:\Program Files (x86)\ETAS\INTECRIO5.0\Target\Etarget\ES910\rta_osek\librtk_s.a(ososhuth.o)
 .bss           0x480e0330        0x0 C:\Program Files (x86)\ETAS\INTECRIO5.0\Target\Etarget\ES910\rta_osek\librtk_s.a(osttermh.o)
 .bss           0x480e0330        0x0 C:\Program Files (x86)\ETAS\INTECRIO5.0\Target\Etarget\ES910\rta_osek\librtk_s.a(ostactsf.o)
 .bss           0x480e0330        0x0 C:\Program Files (x86)\ETAS\INTECRIO5.0\Target\Etarget\ES910\rta_osek\librtk_s.a(ostactnf.o)
 .bss           0x480e0330        0x0 C:\Program Files (x86)\ETAS\INTECRIO5.0\Target\Etarget\ES910\rta_osek\librtk_s.a(osatickn.o)
 .bss           0x480e0330        0x0 C:\Program Files (x86)\ETAS\INTECRIO5.0\Target\Etarget\ES910\rta_osek\librtk_s.a(osacallb.o)
 .bss           0x480e0330        0x0 C:\Program Files (x86)\ETAS\INTECRIO5.0\Target\Etarget\ES910\rta_osek\librtk_s.a(osxdpsho.o)
 .bss           0x480e0330        0x0 C:\Program Files (x86)\ETAS\INTECRIO5.0\Target\Etarget\ES910\rta_osek\librtk_s.a(osiwrap.o)
 .bss           0x480e0330        0x0 C:\Program Files (x86)\ETAS\INTECRIO5.0\Target\Etarget\ES910\rta_osek\librtk_s.a(osxjmp.o)
 .bss           0x480e0330        0x0 C:\Program Files (x86)\ETAS\INTECRIO5.0\Target\Etarget\ES910\rta_osek\librtk_s.a(ososhutn.o)
 .bss           0x480e0330        0x0 C:\Program Files (x86)\ETAS\INTECRIO5.0\Target\Etarget\ES910\libcommon.a(p_execl1.o)
 .bss           0x480e0330        0x2 C:\Program Files (x86)\ETAS\INTECRIO5.0\Target\Etarget\ES910\libcommon.a(p_protl1.o)
 .bss           0x480e0332        0x0 C:\Program Files (x86)\ETAS\INTECRIO5.0\Target\Etarget\ES910\libcommon.a(p_stdeb.o)
 *fill*         0x480e0332        0x2 00
 .bss           0x480e0334       0x18 Car_State1/Car_State1.a(Car_State_main.o)
 .bss           0x480e034c        0x0 Car_State1/Car_State1.a(rt_sim.o)
 .bss           0x480e034c       0x18 Disconnections1/Disconnections1.a(Disconnections_main.o)
 .bss           0x480e0364        0x0 Disconnections1/Disconnections1.a(rt_sim.o)
 .bss           0x480e0364       0x18 Ellipse1/Ellipse1.a(Ellipse_main.o)
 .bss           0x480e037c        0x0 Ellipse1/Ellipse1.a(rt_sim.o)
 .bss           0x480e037c       0x18 Inverters_Action1/Inverters_Action1.a(Inverters_Action_main.o)
 .bss           0x480e0394        0x0 Inverters_Action1/Inverters_Action1.a(rt_sim.o)
 .bss           0x480e0394       0x18 Inverters_Data1/Inverters_Data1.a(Inverters_Data_main.o)
 .bss           0x480e03ac        0x0 Inverters_Data1/Inverters_Data1.a(rt_sim.o)
 .bss           0x480e03ac       0x18 Power_Control1/Power_Control1.a(Power_Control_main.o)
 .bss           0x480e03c4        0x0 Power_Control1/Power_Control1.a(rt_sim.o)
 .bss           0x480e03c4       0x18 Sensors1/Sensors1.a(Sensors_main.o)
 .bss           0x480e03dc        0x0 Sensors1/Sensors1.a(rt_sim.o)
 .bss           0x480e03dc       0x18 Synchronism1/Synchronism1.a(Synchronism_main.o)
 .bss           0x480e03f4        0x0 Synchronism1/Synchronism1.a(rt_sim.o)
 .bss           0x480e03f4       0x18 VDC1/VDC1.a(VDC_main.o)
 .bss           0x480e040c        0x0 VDC1/VDC1.a(rt_sim.o)
 .bss           0x480e040c       0x1c SoC1/SoC1.a(SoC_main.o)
 .bss           0x480e0428        0x0 SoC1/SoC1.a(rt_sim.o)
 .bss           0x480e0428        0x0 C:/Program Files (x86)/ETAS/INTECRIO5.0/Target/ETarget/rtio/es9xxcan/ES910/es9xxCan_gnu.lib(es9xxCan.o)
 .bss           0x480e0428        0x0 C:/Program Files (x86)/ETAS/INTECRIO5.0/Target/ETarget/rtio/es9xxcan/ES910/es9xxCan_gnu.lib(es9xxCanCanio.o)
 .bss           0x480e0428        0x0 C:/Program Files (x86)/ETAS/INTECRIO5.0/Target/ETarget/rtio/es9xxcan/ES910/es9xxCan_gnu.lib(es9xxCanErr.o)
 .bss           0x480e0428      0x40c C:/Program Files (x86)/ETAS/INTECRIO5.0/Target/ETarget/rtio/es9xxcan/ES910/es9xxCan_gnu.lib(es9xxCanHalBuf.o)
 .bss           0x480e0834       0x30 C:/Program Files (x86)/ETAS/INTECRIO5.0/Target/ETarget/rtio/es9xxcan/ES910/es9xxCan_gnu.lib(es9xxCanHalIfi.o)
 .bss           0x480e0864        0x0 C:/ETAS/Compiler/INTECRIO5.0/QNXCompiler-V6.5\host\win32\x86/usr/lib/gcc/powerpc-unknown-nto-qnx6.5.0/4.4.2/spe/libgcc.a(_floatdidf.o)
 .bss           0x480e0864      0x36c C:\Program Files (x86)\ETAS\INTECRIO5.0\Target\Etarget\ES910\libes910.a(t_dataset.o)
                0x480e0888                variableObjList
                0x480e0870                parameterObjList
 .bss           0x480e0bd0      0x404 C:\Program Files (x86)\ETAS\INTECRIO5.0\Target\Etarget\ES910\libtarget.a(crc32.o)
 *(COMMON)
 *fill*         0x480e0fd4        0x4 00
 COMMON         0x480e0fd8       0xd0 Car_State1/Car_State1.a(Car_State.o)
                0x480e0fd8                Car_State_B
                0x480e0ff0                Car_State_DW
                0x480e1008                Car_State_Y
                0x480e1058                Car_State_U
 COMMON         0x480e10a8      0x190 Disconnections1/Disconnections1.a(Disconnections.o)
                0x480e10a8                Disconnections_DW
                0x480e10e0                Disconnections_Y
                0x480e1158                Disconnections_U
                0x480e11d0                Disconnections_B
 COMMON         0x480e1238       0x90 Ellipse1/Ellipse1.a(Ellipse.o)
                0x480e1238                Ellipse_Y
                0x480e1248                Ellipse_U
 COMMON         0x480e12c8       0x48 Inverters_Action1/Inverters_Action1.a(Inverters_Action.o)
                0x480e12c8                Inverters_Action_DW
                0x480e12f8                Inverters_Action_U
 COMMON         0x480e1310       0xe0 Inverters_Data1/Inverters_Data1.a(Inverters_Data.o)
                0x480e1310                Inverters_Data_Y
                0x480e1380                Inverters_Data_U
                0x480e13d0                Inverters_Data_DW
 COMMON         0x480e13f0      0x130 Power_Control1/Power_Control1.a(Power_Control.o)
                0x480e13f0                Power_Control_DW
                0x480e1498                Power_Control_B
                0x480e14b8                Power_Control_U
                0x480e14f8                Power_Control_Y
 COMMON         0x480e1520       0xa0 Sensors1/Sensors1.a(Sensors.o)
                0x480e1520                Sensors_DW
                0x480e1530                Sensors_Y
                0x480e1570                Sensors_U
 COMMON         0x480e15c0       0x10 Synchronism1/Synchronism1.a(Synchronism.o)
                0x480e15c0                Synchronism_Y
 COMMON         0x480e15d0      0x210 VDC1/VDC1.a(VDC.o)
                0x480e15d0                VDC_B
                0x480e1678                VDC_U
                0x480e1758                VDC_Y
                0x480e17a8                VDC_DW
 COMMON         0x480e17e0      0x500 SoC1/SoC1.a(SoC.o)
                0x480e17e0                SoC_B
                0x480e1a48                SoC_DW
                0x480e1a78                SoC_U
                0x480e1aa0                SoC_Y
                0x480e1ac0                SoC_XDis
                0x480e1b00                SoC_X
 COMMON         0x480e1ce0        0xc OSC/osekdefs.o
                0x480e1ce0                os_serviceArgs
 COMMON         0x480e1cec      0x100 C:\Program Files (x86)\ETAS\INTECRIO5.0\Target\Etarget\ES910\libtarget.a(a_primit.o)
                0x480e1cec                userS
 COMMON         0x480e1dec       0x88 C:\Program Files (x86)\ETAS\INTECRIO5.0\Target\Etarget\ES910\rta_osek\librtk_s.a(ostarget.o)
                0x480e1dec                os_sigmasks
                0x480e1e74                . = ALIGN ((. != 0x0)?0x4:0x1)
                0x480e1e74                . = ALIGN (0x4)
                0x480e1e74                . = ALIGN (0x4)
                0x480e1e74                __end = .
                0x480e1e74                _end = .
                0x480e1e74                PROVIDE (end, .)
                0x480e1e74                . = DATA_SEGMENT_END (.)

.stab
 *(.stab)

.stabstr
 *(.stabstr)

.stab.excl
 *(.stab.excl)

.stab.exclstr
 *(.stab.exclstr)

.stab.index
 *(.stab.index)

.stab.indexstr
 *(.stab.indexstr)

.comment        0x00000000      0xd4a
 *(.comment)
 .comment       0x00000000       0x12 C:/ETAS/Compiler/INTECRIO5.0/QNXCompiler-V6.5\host\win32\x86/usr/lib/gcc/powerpc-unknown-nto-qnx6.5.0/4.4.2/spe/crtbegin.o
 .comment       0x00000012       0x12 ROOT_instances.o
 .comment       0x00000024       0x12 _INT_pid.pi.o
 .comment       0x00000036       0x12 userFuncProcessCanPayload.o
 .comment       0x00000048       0x12 userFuncProcessFlexRayPayload.o
 .comment       0x0000005a       0x12 OSC/i_rtawrapper.o
 .comment       0x0000006c       0x12 Car_State0/Car_State_instances.o
 .comment       0x0000007e       0x12 Car_State1/Car_State1.a(Car_State.o)
 .comment       0x00000090       0x12 Disconnections0/Disconnections_instances.o
 .comment       0x000000a2       0x12 Disconnections1/Disconnections1.a(Disconnections.o)
 .comment       0x000000b4       0x12 Ellipse0/Ellipse_instances.o
 .comment       0x000000c6       0x12 Ellipse1/Ellipse1.a(Ellipse.o)
 .comment       0x000000d8       0x12 Inverters_Action0/Inverters_Action_instances.o
 .comment       0x000000ea       0x12 Inverters_Action1/Inverters_Action1.a(Inverters_Action.o)
 .comment       0x000000fc       0x12 Inverters_Action1/Inverters_Action1.a(Inverters_Action_data.o)
 .comment       0x0000010e       0x12 Inverters_Data0/Inverters_Data_instances.o
 .comment       0x00000120       0x12 Inverters_Data1/Inverters_Data1.a(Inverters_Data.o)
 .comment       0x00000132       0x12 Power_Control0/Power_Control_instances.o
 .comment       0x00000144       0x12 Power_Control1/Power_Control1.a(Power_Control.o)
 .comment       0x00000156       0x12 Sensors0/Sensors_instances.o
 .comment       0x00000168       0x12 Sensors1/Sensors1.a(Sensors.o)
 .comment       0x0000017a       0x12 Sensors1/Sensors1.a(Sensors_data.o)
 .comment       0x0000018c       0x12 Synchronism0/Synchronism_instances.o
 .comment       0x0000019e       0x12 Synchronism1/Synchronism1.a(Synchronism.o)
 .comment       0x000001b0       0x12 VDC0/VDC_instances.o
 .comment       0x000001c2       0x12 VDC1/VDC1.a(VDC.o)
 .comment       0x000001d4       0x12 SoC0/SoC_instances.o
 .comment       0x000001e6       0x12 SoC1/SoC1.a(SoC.o)
 .comment       0x000001f8       0x12 SoC1/SoC1.a(SoC_data.o)
 .comment       0x0000020a       0x12 matlabsharedR2023b/matlabsharedR2023b.a(const_params.o)
 .comment       0x0000021c       0x12 matlabsharedR2023b/matlabsharedR2023b.a(look1_binlxpw.o)
 .comment       0x0000022e       0x12 matlabsharedR2023b/matlabsharedR2023b.a(look2_binlxpw.o)
 .comment       0x00000240       0x12 matlabsharedR2023b/matlabsharedR2023b.a(rt_nonfinite.o)
 .comment       0x00000252       0x12 matlabsharedR2023b/matlabsharedR2023b.a(rtgetinf.o)
 .comment       0x00000264       0x12 matlabsharedR2023b/matlabsharedR2023b.a(rtgetnan.o)
 .comment       0x00000276       0x12 OSC/osekdefs.o
 .comment       0x00000288       0x12 OSC/TaskISRArchive.a(etasConfigTask.o)
 .comment       0x0000029a       0x12 OSC/TaskISRArchive.a(Sync_25ms.o)
 .comment       0x000002ac       0x12 OSC/TaskISRArchive.a(Timer_1000ms.o)
 .comment       0x000002be       0x12 OSC/TaskISRArchive.a(Timer_100ms.o)
 .comment       0x000002d0       0x12 OSC/TaskISRArchive.a(Timer_25ms.o)
 .comment       0x000002e2       0x12 OSC/TaskISRArchive.a(Timer_Inv.o)
 .comment       0x000002f4       0x12 OSC/TaskISRArchive.a(SWT_CAN1_AP_BMS_SDC.o)
 .comment       0x00000306       0x12 OSC/TaskISRArchive.a(SWT_CAN1_AP_CurrentSensor.o)
 .comment       0x00000318       0x12 OSC/TaskISRArchive.a(SWT_CAN1_AP_BMS_Voltages.o)
 .comment       0x0000032a       0x12 OSC/TaskISRArchive.a(SWT_CAN1_AP_BMS_ChargerParameters.o)
 .comment       0x0000033c       0x12 OSC/TaskISRArchive.a(SWT_CAN1_AP_BMS_Temperatures.o)
 .comment       0x0000034e       0x12 OSC/TaskISRArchive.a(SWT_CAN1_AP_Inverter_R_Tx.o)
 .comment       0x00000360       0x12 OSC/TaskISRArchive.a(SWT_CAN1_AP_Inverter_L_Tx.o)
 .comment       0x00000372       0x12 OSC/TaskISRArchive.a(SWT_CAN1_AP_DASH_Mode.o)
 .comment       0x00000384       0x12 OSC/TaskISRArchive.a(SWT_CAN1_NM_BMS_Keep_Alive.o)
 .comment       0x00000396       0x12 OSC/TaskISRArchive.a(SWT_CAN1_AP_BMS_AIRs_State.o)
 .comment       0x000003a8       0x12 OSC/TaskISRArchive.a(SWT_CAN1_NM_DASH_Keep_Alive.o)
 .comment       0x000003ba       0x12 OSC/TaskISRArchive.a(SWT_CAN1_AP_DASH_PrechargeRequest.o)
 .comment       0x000003cc       0x12 OSC/TaskISRArchive.a(SWT_CAN1_AP_DASH_EnableDrive.o)
 .comment       0x000003de       0x12 OSC/TaskISRArchive.a(SWT_CAN2_AP_ELLIPSE_AUTO.o)
 .comment       0x000003f0       0x12 OSC/TaskISRArchive.a(SWT_CAN2_AP_ELLIPSE_GPS_VEL.o)
 .comment       0x00000402       0x12 OSC/TaskISRArchive.a(SWT_CAN2_MEAS_RECU_SDC.o)
 .comment       0x00000414       0x12 OSC/TaskISRArchive.a(SWT_CAN2_AP_ELLIPSE_EKF_POS.o)
 .comment       0x00000426       0x12 OSC/TaskISRArchive.a(SWT_CAN2_AP_ELLIPSE_IMU_ACCEL.o)
 .comment       0x00000438       0x12 OSC/TaskISRArchive.a(SWT_CAN2_AP_ELLIPSE_EKF_EULER.o)
 .comment       0x0000044a       0x12 OSC/TaskISRArchive.a(SWT_CAN2_AP_ELLIPSE_EKF_VEL.o)
 .comment       0x0000045c       0x12 OSC/TaskISRArchive.a(SWT_CAN2_NM_ELLIPSE_Status.o)
 .comment       0x0000046e       0x12 OSC/TaskISRArchive.a(SWT_CAN2_AP_ELLIPSE_IMU_GYRO.o)
 .comment       0x00000480       0x12 OSC/TaskISRArchive.a(SWT_CAN2_AP_ELLIPSE_VEL_Valid.o)
 .comment       0x00000492       0x12 OSC/TaskISRArchive.a(SWT_CAN2_AP_RECU_Data.o)
 .comment       0x000004a4       0x12 OSC/TaskISRArchive.a(SWT_CAN2_NM_FECU_Keep_Alive.o)
 .comment       0x000004b6       0x12 OSC/TaskISRArchive.a(SWT_CAN2_NM_RECU_Keep_Alive.o)
 .comment       0x000004c8       0x12 OSC/TaskISRArchive.a(SWT_CAN2_AP_FECU_Data2.o)
 .comment       0x000004da       0x12 OSC/TaskISRArchive.a(SWT_CAN2_AP_FECU_Data1.o)
 .comment       0x000004ec       0x12 OSC/TaskISRArchive.a(ISR_CAN1.o)
 .comment       0x000004fe       0x12 OSC/TaskISRArchive.a(ISR_CAN2.o)
 .comment       0x00000510       0x12 OSC/etasActivateTaskIsr.o
 .comment       0x00000522       0x12 OSC/etasL1Isr.o
 .comment       0x00000534       0x12 OSC/etasL1Task.o
 .comment       0x00000546       0x12 OSC/etasTimerIsr.o
 .comment       0x00000558       0x12 OSC/etasStopOsIsr.o
 .comment       0x0000056a       0x12 OSC/DriverThreads.o
 .comment       0x0000057c       0x12 OSC/ISRFunctions.o
 .comment       0x0000058e       0x12 OSC/osc_dyn.o
 .comment       0x000005a0       0x12 OSC/rtaInterface.o
 .comment       0x000005b2       0x12 OSC/ETCHooks.o
 .comment       0x000005c4       0x12 OSC/XbarHooks.o
 .comment       0x000005d6       0x12 ETC/FormulaTable.o
 .comment       0x000005e8       0x12 ETC/DriverTable.o
 .comment       0x000005fa       0x12 ETC/MappingFunctionTable.o
 .comment       0x0000060c       0x12 ETC/RtioL1RecordTable.o
 .comment       0x0000061e       0x12 ETC/XCPTransportLayerFunctionsTable.o
 .comment       0x00000630       0x12 ETC/ChecksumAlgoTables.o
 .comment       0x00000642       0x12 CBC/CopyFunctionTable.o
 .comment       0x00000654       0x12 CBC/CrossbarL1RecordTable.o
 .comment       0x00000666       0x12 C:/ETAS/Compiler/INTECRIO5.0/QNXCompiler-V6.5\host\win32\x86/usr/lib/gcc/powerpc-unknown-nto-qnx6.5.0/4.4.2/spe/libgcc.a(_fixunsdfdi.o)
 .comment       0x00000678       0x12 C:/ETAS/Compiler/INTECRIO5.0/QNXCompiler-V6.5\host\win32\x86/usr/lib/gcc/powerpc-unknown-nto-qnx6.5.0/4.4.2/spe/libgcc.a(_floatundidf.o)
 .comment       0x0000068a       0x12 C:/ETAS/Compiler/INTECRIO5.0/QNXCompiler-V6.5\host\win32\x86/usr/lib/gcc/powerpc-unknown-nto-qnx6.5.0/4.4.2/spe/crtend.o
 .comment       0x0000069c       0x12 C:\Program Files (x86)\ETAS\INTECRIO5.0\Target\Etarget\ES910\libes910.a(i_rtautil.o)
 .comment       0x000006ae       0x12 C:\Program Files (x86)\ETAS\INTECRIO5.0\Target\Etarget\ES910\libes910.a(t_driverThreads.o)
 .comment       0x000006c0       0x12 C:\Program Files (x86)\ETAS\INTECRIO5.0\Target\Etarget\ES910\libes910.a(t_idle.o)
 .comment       0x000006d2       0x12 C:\Program Files (x86)\ETAS\INTECRIO5.0\Target\Etarget\ES910\libes910.a(t_l1com.o)
 .comment       0x000006e4       0x12 C:\Program Files (x86)\ETAS\INTECRIO5.0\Target\Etarget\ES910\libes910.a(t_main.o)
 .comment       0x000006f6       0x12 C:\Program Files (x86)\ETAS\INTECRIO5.0\Target\Etarget\ES910\libes910.a(t_mlog.o)
 .comment       0x00000708       0x12 C:\Program Files (x86)\ETAS\INTECRIO5.0\Target\Etarget\ES910\libes910.a(t_qnxtargetutil.o)
 .comment       0x0000071a       0x12 C:\Program Files (x86)\ETAS\INTECRIO5.0\Target\Etarget\ES910\libes910.a(t_targetutil.o)
 .comment       0x0000072c       0x12 C:\Program Files (x86)\ETAS\INTECRIO5.0\Target\Etarget\ES910\libes910.a(t_watchdog.o)
 .comment       0x0000073e       0x12 C:\Program Files (x86)\ETAS\INTECRIO5.0\Target\Etarget\ES910\libes910.a(p_chario.o)
 .comment       0x00000750       0x12 C:\Program Files (x86)\ETAS\INTECRIO5.0\Target\Etarget\ES910\libes910.a(t_hwTimeSync.o)
 .comment       0x00000762       0x12 C:\Program Files (x86)\ETAS\INTECRIO5.0\Target\Etarget\ES910\libes910.a(t_led.o)
 .comment       0x00000774       0x12 C:\Program Files (x86)\ETAS\INTECRIO5.0\Target\Etarget\ES910\libtarget.a(a_dacqui.o)
 .comment       0x00000786       0x12 C:\Program Files (x86)\ETAS\INTECRIO5.0\Target\Etarget\ES910\libtarget.a(a_l1pro.o)
 .comment       0x00000798       0x12 C:\Program Files (x86)\ETAS\INTECRIO5.0\Target\Etarget\ES910\libtarget.a(a_primit.o)
 .comment       0x000007aa       0x12 C:\Program Files (x86)\ETAS\INTECRIO5.0\Target\Etarget\ES910\libtarget.a(a_sysver.o)
 .comment       0x000007bc       0x12 C:\Program Files (x86)\ETAS\INTECRIO5.0\Target\Etarget\ES910\libtarget.a(a_targma.o)
 .comment       0x000007ce       0x12 C:\Program Files (x86)\ETAS\INTECRIO5.0\Target\Etarget\ES910\libtarget.a(i_cpyfnc.o)
 .comment       0x000007e0       0x12 C:\Program Files (x86)\ETAS\INTECRIO5.0\Target\Etarget\ES910\libtarget.a(i_mapfnc.o)
 .comment       0x000007f2       0x12 C:\Program Files (x86)\ETAS\INTECRIO5.0\Target\Etarget\ES910\libtarget.a(i_osman.o)
 .comment       0x00000804       0x12 C:\Program Files (x86)\ETAS\INTECRIO5.0\Target\Etarget\ES910\libtarget.a(i_rtioma.o)
 .comment       0x00000816       0x12 C:\Program Files (x86)\ETAS\INTECRIO5.0\Target\Etarget\ES910\libtarget.a(i_salone.o)
 .comment       0x00000828       0x12 C:\Program Files (x86)\ETAS\INTECRIO5.0\Target\Etarget\ES910\libtarget.a(t_croman.o)
 .comment       0x0000083a       0x12 C:\Program Files (x86)\ETAS\INTECRIO5.0\Target\Etarget\ES910\libtarget.a(t_crosll.o)
 .comment       0x0000084c       0x12 C:\Program Files (x86)\ETAS\INTECRIO5.0\Target\Etarget\ES910\libtarget.a(t_nvram.o)
 .comment       0x0000085e       0x12 C:\Program Files (x86)\ETAS\INTECRIO5.0\Target\Etarget\ES910\libtarget.a(t_objlis.o)
 .comment       0x00000870       0x12 C:\Program Files (x86)\ETAS\INTECRIO5.0\Target\Etarget\ES910\libtarget.a(t_rtcros.o)
 .comment       0x00000882       0x12 C:\Program Files (x86)\ETAS\INTECRIO5.0\Target\Etarget\ES910\libtarget.a(t_sgman.o)
 .comment       0x00000894       0x12 C:\Program Files (x86)\ETAS\INTECRIO5.0\Target\Etarget\ES910\libtarget.a(y_primit.o)
 .comment       0x000008a6       0x12 C:\Program Files (x86)\ETAS\INTECRIO5.0\Target\Etarget\ES910\libtarget.a(a1b_dacq.o)
 .comment       0x000008b8       0x12 C:\Program Files (x86)\ETAS\INTECRIO5.0\Target\Etarget\ES910\libtarget.a(a_contai.o)
 .comment       0x000008ca       0x12 C:\Program Files (x86)\ETAS\INTECRIO5.0\Target\Etarget\ES910\libtarget.a(i_transf.o)
 .comment       0x000008dc       0x12 C:\Program Files (x86)\ETAS\INTECRIO5.0\Target\Etarget\ES910\libtarget.a(t_sglow.o)
 .comment       0x000008ee       0x12 C:\Program Files (x86)\ETAS\INTECRIO5.0\Target\Etarget\rtio\global\es910\librtio_gnu.a(comm_err.o)
 .comment       0x00000900       0x12 C:\Program Files (x86)\ETAS\INTECRIO5.0\Target\Etarget\rtio\global\es910\librtio_gnu.a(p_rtio.o)
 .comment       0x00000912       0x12 C:\Program Files (x86)\ETAS\INTECRIO5.0\Target\Etarget\rtio\global\es910\librtio_gnu.a(p_rtio_s.o)
 .comment       0x00000924       0x12 C:\Program Files (x86)\ETAS\INTECRIO5.0\Target\Etarget\rtio\global\es910\librtio_gnu.a(rtio_err.o)
 .comment       0x00000936       0x12 C:\Program Files (x86)\ETAS\INTECRIO5.0\Target\Etarget\rtio\global\es910\librtio_gnu.a(fhc_emu.o)
 .comment       0x00000948       0x12 C:\Program Files (x86)\ETAS\INTECRIO5.0\Target\Etarget\ES910\rta_osek\librtk_s.a(ostarget.o)
 .comment       0x0000095a       0x12 C:\Program Files (x86)\ETAS\INTECRIO5.0\Target\Etarget\ES910\rta_osek\librtk_s.a(osfptgt.o)
 .comment       0x0000096c       0x12 C:\Program Files (x86)\ETAS\INTECRIO5.0\Target\Etarget\ES910\rta_osek\librtk_s.a(osiwrap1.o)
 .comment       0x0000097e       0x12 C:\Program Files (x86)\ETAS\INTECRIO5.0\Target\Etarget\ES910\rta_osek\librtk_s.a(osxdspnf.o)
 .comment       0x00000990       0x12 C:\Program Files (x86)\ETAS\INTECRIO5.0\Target\Etarget\ES910\rta_osek\librtk_s.a(osysd1hf.o)
 .comment       0x000009a2       0x12 C:\Program Files (x86)\ETAS\INTECRIO5.0\Target\Etarget\ES910\rta_osek\librtk_s.a(osysdfhf.o)
 .comment       0x000009b4       0x12 C:\Program Files (x86)\ETAS\INTECRIO5.0\Target\Etarget\ES910\rta_osek\librtk_s.a(osysdfhi.o)
 .comment       0x000009c6       0x12 C:\Program Files (x86)\ETAS\INTECRIO5.0\Target\Etarget\ES910\rta_osek\librtk_s.a(ostgid.o)
 .comment       0x000009d8       0x12 C:\Program Files (x86)\ETAS\INTECRIO5.0\Target\Etarget\ES910\rta_osek\librtk_s.a(ostschf.o)
 .comment       0x000009ea       0x12 C:\Program Files (x86)\ETAS\INTECRIO5.0\Target\Etarget\ES910\rta_osek\librtk_s.a(osieai.o)
 .comment       0x000009fc       0x12 C:\Program Files (x86)\ETAS\INTECRIO5.0\Target\Etarget\ES910\rta_osek\librtk_s.a(osidai.o)
 .comment       0x00000a0e       0x12 C:\Program Files (x86)\ETAS\INTECRIO5.0\Target\Etarget\ES910\rta_osek\librtk_s.a(osisoi.o)
 .comment       0x00000a20       0x12 C:\Program Files (x86)\ETAS\INTECRIO5.0\Target\Etarget\ES910\rta_osek\librtk_s.a(osirai.o)
 .comment       0x00000a32       0x12 C:\Program Files (x86)\ETAS\INTECRIO5.0\Target\Etarget\ES910\rta_osek\librtk_s.a(osisai.o)
 .comment       0x00000a44       0x12 C:\Program Files (x86)\ETAS\INTECRIO5.0\Target\Etarget\ES910\rta_osek\librtk_s.a(osxperr2.o)
 .comment       0x00000a56       0x12 C:\Program Files (x86)\ETAS\INTECRIO5.0\Target\Etarget\ES910\rta_osek\librtk_s.a(osxglobs.o)
 .comment       0x00000a68       0x12 C:\Program Files (x86)\ETAS\INTECRIO5.0\Target\Etarget\ES910\rta_osek\librtk_s.a(osostart.o)
 .comment       0x00000a7a       0x12 C:\Program Files (x86)\ETAS\INTECRIO5.0\Target\Etarget\ES910\rta_osek\librtk_s.a(ososhuth.o)
 .comment       0x00000a8c       0x12 C:\Program Files (x86)\ETAS\INTECRIO5.0\Target\Etarget\ES910\rta_osek\librtk_s.a(osttermh.o)
 .comment       0x00000a9e       0x12 C:\Program Files (x86)\ETAS\INTECRIO5.0\Target\Etarget\ES910\rta_osek\librtk_s.a(ostactsf.o)
 .comment       0x00000ab0       0x12 C:\Program Files (x86)\ETAS\INTECRIO5.0\Target\Etarget\ES910\rta_osek\librtk_s.a(ostactnf.o)
 .comment       0x00000ac2       0x12 C:\Program Files (x86)\ETAS\INTECRIO5.0\Target\Etarget\ES910\rta_osek\librtk_s.a(osatickn.o)
 .comment       0x00000ad4       0x12 C:\Program Files (x86)\ETAS\INTECRIO5.0\Target\Etarget\ES910\rta_osek\librtk_s.a(osacallb.o)
 .comment       0x00000ae6       0x12 C:\Program Files (x86)\ETAS\INTECRIO5.0\Target\Etarget\ES910\rta_osek\librtk_s.a(osxdpsho.o)
 .comment       0x00000af8       0x12 C:\Program Files (x86)\ETAS\INTECRIO5.0\Target\Etarget\ES910\rta_osek\librtk_s.a(osiwrap.o)
 .comment       0x00000b0a       0x12 C:\Program Files (x86)\ETAS\INTECRIO5.0\Target\Etarget\ES910\rta_osek\librtk_s.a(ososhutn.o)
 .comment       0x00000b1c       0x12 C:\Program Files (x86)\ETAS\INTECRIO5.0\Target\Etarget\ES910\libcommon.a(p_execl1.o)
 .comment       0x00000b2e       0x12 C:\Program Files (x86)\ETAS\INTECRIO5.0\Target\Etarget\ES910\libcommon.a(p_protl1.o)
 .comment       0x00000b40       0x12 C:\Program Files (x86)\ETAS\INTECRIO5.0\Target\Etarget\ES910\libcommon.a(p_stdeb.o)
 .comment       0x00000b52       0x12 Car_State1/Car_State1.a(Car_State_main.o)
 .comment       0x00000b64       0x12 Car_State1/Car_State1.a(rt_sim.o)
 .comment       0x00000b76       0x12 Disconnections1/Disconnections1.a(Disconnections_main.o)
 .comment       0x00000b88       0x12 Disconnections1/Disconnections1.a(rt_sim.o)
 .comment       0x00000b9a       0x12 Ellipse1/Ellipse1.a(Ellipse_main.o)
 .comment       0x00000bac       0x12 Ellipse1/Ellipse1.a(rt_sim.o)
 .comment       0x00000bbe       0x12 Inverters_Action1/Inverters_Action1.a(Inverters_Action_main.o)
 .comment       0x00000bd0       0x12 Inverters_Action1/Inverters_Action1.a(rt_sim.o)
 .comment       0x00000be2       0x12 Inverters_Data1/Inverters_Data1.a(Inverters_Data_main.o)
 .comment       0x00000bf4       0x12 Inverters_Data1/Inverters_Data1.a(rt_sim.o)
 .comment       0x00000c06       0x12 Power_Control1/Power_Control1.a(Power_Control_main.o)
 .comment       0x00000c18       0x12 Power_Control1/Power_Control1.a(rt_sim.o)
 .comment       0x00000c2a       0x12 Sensors1/Sensors1.a(Sensors_main.o)
 .comment       0x00000c3c       0x12 Sensors1/Sensors1.a(rt_sim.o)
 .comment       0x00000c4e       0x12 Synchronism1/Synchronism1.a(Synchronism_main.o)
 .comment       0x00000c60       0x12 Synchronism1/Synchronism1.a(rt_sim.o)
 .comment       0x00000c72       0x12 VDC1/VDC1.a(VDC_main.o)
 .comment       0x00000c84       0x12 VDC1/VDC1.a(rt_sim.o)
 .comment       0x00000c96       0x12 SoC1/SoC1.a(SoC_main.o)
 .comment       0x00000ca8       0x12 SoC1/SoC1.a(rt_sim.o)
 .comment       0x00000cba       0x12 C:/Program Files (x86)/ETAS/INTECRIO5.0/Target/ETarget/rtio/es9xxcan/ES910/es9xxCan_gnu.lib(es9xxCan.o)
 .comment       0x00000ccc       0x12 C:/Program Files (x86)/ETAS/INTECRIO5.0/Target/ETarget/rtio/es9xxcan/ES910/es9xxCan_gnu.lib(es9xxCanCanio.o)
 .comment       0x00000cde       0x12 C:/Program Files (x86)/ETAS/INTECRIO5.0/Target/ETarget/rtio/es9xxcan/ES910/es9xxCan_gnu.lib(es9xxCanErr.o)
 .comment       0x00000cf0       0x12 C:/Program Files (x86)/ETAS/INTECRIO5.0/Target/ETarget/rtio/es9xxcan/ES910/es9xxCan_gnu.lib(es9xxCanHalBuf.o)
 .comment       0x00000d02       0x12 C:/Program Files (x86)/ETAS/INTECRIO5.0/Target/ETarget/rtio/es9xxcan/ES910/es9xxCan_gnu.lib(es9xxCanHalIfi.o)
 .comment       0x00000d14       0x12 C:/ETAS/Compiler/INTECRIO5.0/QNXCompiler-V6.5\host\win32\x86/usr/lib/gcc/powerpc-unknown-nto-qnx6.5.0/4.4.2/spe/libgcc.a(_floatdidf.o)
 .comment       0x00000d26       0x12 C:\Program Files (x86)\ETAS\INTECRIO5.0\Target\Etarget\ES910\libes910.a(t_dataset.o)
 .comment       0x00000d38       0x12 C:\Program Files (x86)\ETAS\INTECRIO5.0\Target\Etarget\ES910\libtarget.a(crc32.o)

.debug
 *(.debug)

.line
 *(.line)

.debug_srcinfo
 *(.debug_srcinfo)

.debug_sfnames
 *(.debug_sfnames)

.debug_aranges  0x00000000       0x60
 *(.debug_aranges)
 .debug_aranges
                0x00000000       0x20 C:/ETAS/Compiler/INTECRIO5.0/QNXCompiler-V6.5\host\win32\x86/usr/lib/gcc/powerpc-unknown-nto-qnx6.5.0/4.4.2/spe/libgcc.a(_fixunsdfdi.o)
 .debug_aranges
                0x00000020       0x20 C:/ETAS/Compiler/INTECRIO5.0/QNXCompiler-V6.5\host\win32\x86/usr/lib/gcc/powerpc-unknown-nto-qnx6.5.0/4.4.2/spe/libgcc.a(_floatundidf.o)
 .debug_aranges
                0x00000040       0x20 C:/ETAS/Compiler/INTECRIO5.0/QNXCompiler-V6.5\host\win32\x86/usr/lib/gcc/powerpc-unknown-nto-qnx6.5.0/4.4.2/spe/libgcc.a(_floatdidf.o)

.debug_pubnames
                0x00000000       0x69
 *(.debug_pubnames)
 .debug_pubnames
                0x00000000       0x23 C:/ETAS/Compiler/INTECRIO5.0/QNXCompiler-V6.5\host\win32\x86/usr/lib/gcc/powerpc-unknown-nto-qnx6.5.0/4.4.2/spe/libgcc.a(_fixunsdfdi.o)
 .debug_pubnames
                0x00000023       0x24 C:/ETAS/Compiler/INTECRIO5.0/QNXCompiler-V6.5\host\win32\x86/usr/lib/gcc/powerpc-unknown-nto-qnx6.5.0/4.4.2/spe/libgcc.a(_floatundidf.o)
 .debug_pubnames
                0x00000047       0x22 C:/ETAS/Compiler/INTECRIO5.0/QNXCompiler-V6.5\host\win32\x86/usr/lib/gcc/powerpc-unknown-nto-qnx6.5.0/4.4.2/spe/libgcc.a(_floatdidf.o)

.debug_info     0x00000000      0x2c0
 *(.debug_info .gnu.linkonce.wi.*)
 .debug_info    0x00000000      0x102 C:/ETAS/Compiler/INTECRIO5.0/QNXCompiler-V6.5\host\win32\x86/usr/lib/gcc/powerpc-unknown-nto-qnx6.5.0/4.4.2/spe/libgcc.a(_fixunsdfdi.o)
 .debug_info    0x00000102       0xdf C:/ETAS/Compiler/INTECRIO5.0/QNXCompiler-V6.5\host\win32\x86/usr/lib/gcc/powerpc-unknown-nto-qnx6.5.0/4.4.2/spe/libgcc.a(_floatundidf.o)
 .debug_info    0x000001e1       0xdf C:/ETAS/Compiler/INTECRIO5.0/QNXCompiler-V6.5\host\win32\x86/usr/lib/gcc/powerpc-unknown-nto-qnx6.5.0/4.4.2/spe/libgcc.a(_floatdidf.o)

.debug_abbrev   0x00000000      0x175
 *(.debug_abbrev)
 .debug_abbrev  0x00000000       0x8b C:/ETAS/Compiler/INTECRIO5.0/QNXCompiler-V6.5\host\win32\x86/usr/lib/gcc/powerpc-unknown-nto-qnx6.5.0/4.4.2/spe/libgcc.a(_fixunsdfdi.o)
 .debug_abbrev  0x0000008b       0x75 C:/ETAS/Compiler/INTECRIO5.0/QNXCompiler-V6.5\host\win32\x86/usr/lib/gcc/powerpc-unknown-nto-qnx6.5.0/4.4.2/spe/libgcc.a(_floatundidf.o)
 .debug_abbrev  0x00000100       0x75 C:/ETAS/Compiler/INTECRIO5.0/QNXCompiler-V6.5\host\win32\x86/usr/lib/gcc/powerpc-unknown-nto-qnx6.5.0/4.4.2/spe/libgcc.a(_floatdidf.o)

.debug_line     0x00000000      0x143
 *(.debug_line)
 .debug_line    0x00000000       0x6f C:/ETAS/Compiler/INTECRIO5.0/QNXCompiler-V6.5\host\win32\x86/usr/lib/gcc/powerpc-unknown-nto-qnx6.5.0/4.4.2/spe/libgcc.a(_fixunsdfdi.o)
 .debug_line    0x0000006f       0x6a C:/ETAS/Compiler/INTECRIO5.0/QNXCompiler-V6.5\host\win32\x86/usr/lib/gcc/powerpc-unknown-nto-qnx6.5.0/4.4.2/spe/libgcc.a(_floatundidf.o)
 .debug_line    0x000000d9       0x6a C:/ETAS/Compiler/INTECRIO5.0/QNXCompiler-V6.5\host\win32\x86/usr/lib/gcc/powerpc-unknown-nto-qnx6.5.0/4.4.2/spe/libgcc.a(_floatdidf.o)

.debug_frame
 *(.debug_frame)

.debug_str      0x00000000      0x13b
 *(.debug_str)
 .debug_str     0x00000000      0x121 C:/ETAS/Compiler/INTECRIO5.0/QNXCompiler-V6.5\host\win32\x86/usr/lib/gcc/powerpc-unknown-nto-qnx6.5.0/4.4.2/spe/libgcc.a(_fixunsdfdi.o)
                                0x167 (size before relaxing)
 .debug_str     0x00000121        0xe C:/ETAS/Compiler/INTECRIO5.0/QNXCompiler-V6.5\host\win32\x86/usr/lib/gcc/powerpc-unknown-nto-qnx6.5.0/4.4.2/spe/libgcc.a(_floatundidf.o)
                                0x160 (size before relaxing)
 .debug_str     0x0000012f        0xc C:/ETAS/Compiler/INTECRIO5.0/QNXCompiler-V6.5\host\win32\x86/usr/lib/gcc/powerpc-unknown-nto-qnx6.5.0/4.4.2/spe/libgcc.a(_floatdidf.o)
                                0x15d (size before relaxing)

.debug_loc      0x00000000       0xd4
 *(.debug_loc)
 .debug_loc     0x00000000       0x32 C:/ETAS/Compiler/INTECRIO5.0/QNXCompiler-V6.5\host\win32\x86/usr/lib/gcc/powerpc-unknown-nto-qnx6.5.0/4.4.2/spe/libgcc.a(_fixunsdfdi.o)
 .debug_loc     0x00000032       0x51 C:/ETAS/Compiler/INTECRIO5.0/QNXCompiler-V6.5\host\win32\x86/usr/lib/gcc/powerpc-unknown-nto-qnx6.5.0/4.4.2/spe/libgcc.a(_floatundidf.o)
 .debug_loc     0x00000083       0x51 C:/ETAS/Compiler/INTECRIO5.0/QNXCompiler-V6.5\host\win32\x86/usr/lib/gcc/powerpc-unknown-nto-qnx6.5.0/4.4.2/spe/libgcc.a(_floatdidf.o)

.debug_macinfo
 *(.debug_macinfo)

.debug_weaknames
 *(.debug_weaknames)

.debug_funcnames
 *(.debug_funcnames)

.debug_typenames
 *(.debug_typenames)

.debug_varnames
 *(.debug_varnames)

.debug_pubtypes
 *(.debug_pubtypes)

.debug_ranges
 *(.debug_ranges)

.gnu.attributes
                0x00000000       0x12
 *(.gnu.attributes)
 .gnu.attributes
                0x00000000       0x14 C:/ETAS/Compiler/INTECRIO5.0/QNXCompiler-V6.5\host\win32\x86/usr/lib/gcc/powerpc-unknown-nto-qnx6.5.0/4.4.2/spe/crtbegin.o
 .gnu.attributes
                0x00000014       0x14 ROOT_instances.o
 .gnu.attributes
                0x00000028       0x14 _INT_pid.pi.o
 .gnu.attributes
                0x0000003c       0x14 userFuncProcessCanPayload.o
 .gnu.attributes
                0x00000050       0x14 userFuncProcessFlexRayPayload.o
 .gnu.attributes
                0x00000064       0x14 OSC/i_rtawrapper.o
 .gnu.attributes
                0x00000078       0x14 Car_State0/Car_State_instances.o
 .gnu.attributes
                0x0000008c       0x14 Car_State1/Car_State1.a(Car_State.o)
 .gnu.attributes
                0x000000a0       0x14 Disconnections0/Disconnections_instances.o
 .gnu.attributes
                0x000000b4       0x14 Disconnections1/Disconnections1.a(Disconnections.o)
 .gnu.attributes
                0x000000c8       0x14 Ellipse0/Ellipse_instances.o
 .gnu.attributes
                0x000000dc       0x14 Ellipse1/Ellipse1.a(Ellipse.o)
 .gnu.attributes
                0x000000f0       0x14 Inverters_Action0/Inverters_Action_instances.o
 .gnu.attributes
                0x00000104       0x14 Inverters_Action1/Inverters_Action1.a(Inverters_Action.o)
 .gnu.attributes
                0x00000118       0x14 Inverters_Action1/Inverters_Action1.a(Inverters_Action_data.o)
 .gnu.attributes
                0x0000012c       0x14 Inverters_Data0/Inverters_Data_instances.o
 .gnu.attributes
                0x00000140       0x14 Inverters_Data1/Inverters_Data1.a(Inverters_Data.o)
 .gnu.attributes
                0x00000154       0x14 Power_Control0/Power_Control_instances.o
 .gnu.attributes
                0x00000168       0x14 Power_Control1/Power_Control1.a(Power_Control.o)
 .gnu.attributes
                0x0000017c       0x14 Sensors0/Sensors_instances.o
 .gnu.attributes
                0x00000190       0x14 Sensors1/Sensors1.a(Sensors.o)
 .gnu.attributes
                0x000001a4       0x14 Sensors1/Sensors1.a(Sensors_data.o)
 .gnu.attributes
                0x000001b8       0x14 Synchronism0/Synchronism_instances.o
 .gnu.attributes
                0x000001cc       0x14 Synchronism1/Synchronism1.a(Synchronism.o)
 .gnu.attributes
                0x000001e0       0x14 VDC0/VDC_instances.o
 .gnu.attributes
                0x000001f4       0x14 VDC1/VDC1.a(VDC.o)
 .gnu.attributes
                0x00000208       0x14 SoC0/SoC_instances.o
 .gnu.attributes
                0x0000021c       0x14 SoC1/SoC1.a(SoC.o)
 .gnu.attributes
                0x00000230       0x14 SoC1/SoC1.a(SoC_data.o)
 .gnu.attributes
                0x00000244       0x14 matlabsharedR2023b/matlabsharedR2023b.a(const_params.o)
 .gnu.attributes
                0x00000258       0x14 matlabsharedR2023b/matlabsharedR2023b.a(look1_binlxpw.o)
 .gnu.attributes
                0x0000026c       0x14 matlabsharedR2023b/matlabsharedR2023b.a(look2_binlxpw.o)
 .gnu.attributes
                0x00000280       0x14 matlabsharedR2023b/matlabsharedR2023b.a(rt_nonfinite.o)
 .gnu.attributes
                0x00000294       0x14 matlabsharedR2023b/matlabsharedR2023b.a(rtgetinf.o)
 .gnu.attributes
                0x000002a8       0x14 matlabsharedR2023b/matlabsharedR2023b.a(rtgetnan.o)
 .gnu.attributes
                0x000002bc       0x14 OSC/osekdefs.o
 .gnu.attributes
                0x000002d0       0x14 OSC/TaskISRArchive.a(etasConfigTask.o)
 .gnu.attributes
                0x000002e4       0x14 OSC/TaskISRArchive.a(Sync_25ms.o)
 .gnu.attributes
                0x000002f8       0x14 OSC/TaskISRArchive.a(Timer_1000ms.o)
 .gnu.attributes
                0x0000030c       0x14 OSC/TaskISRArchive.a(Timer_100ms.o)
 .gnu.attributes
                0x00000320       0x14 OSC/TaskISRArchive.a(Timer_25ms.o)
 .gnu.attributes
                0x00000334       0x14 OSC/TaskISRArchive.a(Timer_Inv.o)
 .gnu.attributes
                0x00000348       0x14 OSC/TaskISRArchive.a(SWT_CAN1_AP_BMS_SDC.o)
 .gnu.attributes
                0x0000035c       0x14 OSC/TaskISRArchive.a(SWT_CAN1_AP_CurrentSensor.o)
 .gnu.attributes
                0x00000370       0x14 OSC/TaskISRArchive.a(SWT_CAN1_AP_BMS_Voltages.o)
 .gnu.attributes
                0x00000384       0x14 OSC/TaskISRArchive.a(SWT_CAN1_AP_BMS_ChargerParameters.o)
 .gnu.attributes
                0x00000398       0x14 OSC/TaskISRArchive.a(SWT_CAN1_AP_BMS_Temperatures.o)
 .gnu.attributes
                0x000003ac       0x14 OSC/TaskISRArchive.a(SWT_CAN1_AP_Inverter_R_Tx.o)
 .gnu.attributes
                0x000003c0       0x14 OSC/TaskISRArchive.a(SWT_CAN1_AP_Inverter_L_Tx.o)
 .gnu.attributes
                0x000003d4       0x14 OSC/TaskISRArchive.a(SWT_CAN1_AP_DASH_Mode.o)
 .gnu.attributes
                0x000003e8       0x14 OSC/TaskISRArchive.a(SWT_CAN1_NM_BMS_Keep_Alive.o)
 .gnu.attributes
                0x000003fc       0x14 OSC/TaskISRArchive.a(SWT_CAN1_AP_BMS_AIRs_State.o)
 .gnu.attributes
                0x00000410       0x14 OSC/TaskISRArchive.a(SWT_CAN1_NM_DASH_Keep_Alive.o)
 .gnu.attributes
                0x00000424       0x14 OSC/TaskISRArchive.a(SWT_CAN1_AP_DASH_PrechargeRequest.o)
 .gnu.attributes
                0x00000438       0x14 OSC/TaskISRArchive.a(SWT_CAN1_AP_DASH_EnableDrive.o)
 .gnu.attributes
                0x0000044c       0x14 OSC/TaskISRArchive.a(SWT_CAN2_AP_ELLIPSE_AUTO.o)
 .gnu.attributes
                0x00000460       0x14 OSC/TaskISRArchive.a(SWT_CAN2_AP_ELLIPSE_GPS_VEL.o)
 .gnu.attributes
                0x00000474       0x14 OSC/TaskISRArchive.a(SWT_CAN2_MEAS_RECU_SDC.o)
 .gnu.attributes
                0x00000488       0x14 OSC/TaskISRArchive.a(SWT_CAN2_AP_ELLIPSE_EKF_POS.o)
 .gnu.attributes
                0x0000049c       0x14 OSC/TaskISRArchive.a(SWT_CAN2_AP_ELLIPSE_IMU_ACCEL.o)
 .gnu.attributes
                0x000004b0       0x14 OSC/TaskISRArchive.a(SWT_CAN2_AP_ELLIPSE_EKF_EULER.o)
 .gnu.attributes
                0x000004c4       0x14 OSC/TaskISRArchive.a(SWT_CAN2_AP_ELLIPSE_EKF_VEL.o)
 .gnu.attributes
                0x000004d8       0x14 OSC/TaskISRArchive.a(SWT_CAN2_NM_ELLIPSE_Status.o)
 .gnu.attributes
                0x000004ec       0x14 OSC/TaskISRArchive.a(SWT_CAN2_AP_ELLIPSE_IMU_GYRO.o)
 .gnu.attributes
                0x00000500       0x14 OSC/TaskISRArchive.a(SWT_CAN2_AP_ELLIPSE_VEL_Valid.o)
 .gnu.attributes
                0x00000514       0x14 OSC/TaskISRArchive.a(SWT_CAN2_AP_RECU_Data.o)
 .gnu.attributes
                0x00000528       0x14 OSC/TaskISRArchive.a(SWT_CAN2_NM_FECU_Keep_Alive.o)
 .gnu.attributes
                0x0000053c       0x14 OSC/TaskISRArchive.a(SWT_CAN2_NM_RECU_Keep_Alive.o)
 .gnu.attributes
                0x00000550       0x14 OSC/TaskISRArchive.a(SWT_CAN2_AP_FECU_Data2.o)
 .gnu.attributes
                0x00000564       0x14 OSC/TaskISRArchive.a(SWT_CAN2_AP_FECU_Data1.o)
 .gnu.attributes
                0x00000578       0x14 OSC/TaskISRArchive.a(ISR_CAN1.o)
 .gnu.attributes
                0x0000058c       0x14 OSC/TaskISRArchive.a(ISR_CAN2.o)
 .gnu.attributes
                0x000005a0       0x14 OSC/etasActivateTaskIsr.o
 .gnu.attributes
                0x000005b4       0x14 OSC/etasL1Isr.o
 .gnu.attributes
                0x000005c8       0x14 OSC/etasL1Task.o
 .gnu.attributes
                0x000005dc       0x14 OSC/etasTimerIsr.o
 .gnu.attributes
                0x000005f0       0x14 OSC/etasStopOsIsr.o
 .gnu.attributes
                0x00000604       0x14 OSC/DriverThreads.o
 .gnu.attributes
                0x00000618       0x14 OSC/ISRFunctions.o
 .gnu.attributes
                0x0000062c       0x14 OSC/osc_dyn.o
 .gnu.attributes
                0x00000640       0x14 OSC/rtaInterface.o
 .gnu.attributes
                0x00000654       0x14 OSC/ETCHooks.o
 .gnu.attributes
                0x00000668       0x14 OSC/XbarHooks.o
 .gnu.attributes
                0x0000067c       0x14 ETC/FormulaTable.o
 .gnu.attributes
                0x00000690       0x14 ETC/DriverTable.o
 .gnu.attributes
                0x000006a4       0x14 ETC/MappingFunctionTable.o
 .gnu.attributes
                0x000006b8       0x14 ETC/RtioL1RecordTable.o
 .gnu.attributes
                0x000006cc       0x14 ETC/XCPTransportLayerFunctionsTable.o
 .gnu.attributes
                0x000006e0       0x14 ETC/ChecksumAlgoTables.o
 .gnu.attributes
                0x000006f4       0x14 CBC/CopyFunctionTable.o
 .gnu.attributes
                0x00000708       0x14 CBC/CrossbarL1RecordTable.o
 .gnu.attributes
                0x0000071c       0x14 C:/ETAS/Compiler/INTECRIO5.0/QNXCompiler-V6.5\host\win32\x86/usr/lib/gcc/powerpc-unknown-nto-qnx6.5.0/4.4.2/spe/libgcc.a(_fixunsdfdi.o)
 .gnu.attributes
                0x00000730       0x14 C:/ETAS/Compiler/INTECRIO5.0/QNXCompiler-V6.5\host\win32\x86/usr/lib/gcc/powerpc-unknown-nto-qnx6.5.0/4.4.2/spe/libgcc.a(_floatundidf.o)
 .gnu.attributes
                0x00000744       0x14 C:/ETAS/Compiler/INTECRIO5.0/QNXCompiler-V6.5\host\win32\x86/usr/lib/gcc/powerpc-unknown-nto-qnx6.5.0/4.4.2/spe/crtend.o
 .gnu.attributes
                0x00000758       0x14 C:\Program Files (x86)\ETAS\INTECRIO5.0\Target\Etarget\ES910\libes910.a(i_rtautil.o)
 .gnu.attributes
                0x0000076c       0x14 C:\Program Files (x86)\ETAS\INTECRIO5.0\Target\Etarget\ES910\libes910.a(t_driverThreads.o)
 .gnu.attributes
                0x00000780       0x14 C:\Program Files (x86)\ETAS\INTECRIO5.0\Target\Etarget\ES910\libes910.a(t_idle.o)
 .gnu.attributes
                0x00000794       0x14 C:\Program Files (x86)\ETAS\INTECRIO5.0\Target\Etarget\ES910\libes910.a(t_l1com.o)
 .gnu.attributes
                0x000007a8       0x14 C:\Program Files (x86)\ETAS\INTECRIO5.0\Target\Etarget\ES910\libes910.a(t_main.o)
 .gnu.attributes
                0x000007bc       0x14 C:\Program Files (x86)\ETAS\INTECRIO5.0\Target\Etarget\ES910\libes910.a(t_mlog.o)
 .gnu.attributes
                0x000007d0       0x14 C:\Program Files (x86)\ETAS\INTECRIO5.0\Target\Etarget\ES910\libes910.a(t_qnxtargetutil.o)
 .gnu.attributes
                0x000007e4       0x14 C:\Program Files (x86)\ETAS\INTECRIO5.0\Target\Etarget\ES910\libes910.a(t_targetutil.o)
 .gnu.attributes
                0x000007f8       0x14 C:\Program Files (x86)\ETAS\INTECRIO5.0\Target\Etarget\ES910\libes910.a(t_watchdog.o)
 .gnu.attributes
                0x0000080c       0x14 C:\Program Files (x86)\ETAS\INTECRIO5.0\Target\Etarget\ES910\libes910.a(p_chario.o)
 .gnu.attributes
                0x00000820       0x14 C:\Program Files (x86)\ETAS\INTECRIO5.0\Target\Etarget\ES910\libes910.a(t_hwTimeSync.o)
 .gnu.attributes
                0x00000834       0x14 C:\Program Files (x86)\ETAS\INTECRIO5.0\Target\Etarget\ES910\libes910.a(t_led.o)
 .gnu.attributes
                0x00000848       0x14 C:\Program Files (x86)\ETAS\INTECRIO5.0\Target\Etarget\ES910\libtarget.a(a_dacqui.o)
 .gnu.attributes
                0x0000085c       0x14 C:\Program Files (x86)\ETAS\INTECRIO5.0\Target\Etarget\ES910\libtarget.a(a_l1pro.o)
 .gnu.attributes
                0x00000870       0x14 C:\Program Files (x86)\ETAS\INTECRIO5.0\Target\Etarget\ES910\libtarget.a(a_primit.o)
 .gnu.attributes
                0x00000884       0x14 C:\Program Files (x86)\ETAS\INTECRIO5.0\Target\Etarget\ES910\libtarget.a(a_sysver.o)
 .gnu.attributes
                0x00000898       0x14 C:\Program Files (x86)\ETAS\INTECRIO5.0\Target\Etarget\ES910\libtarget.a(a_targma.o)
 .gnu.attributes
                0x000008ac       0x14 C:\Program Files (x86)\ETAS\INTECRIO5.0\Target\Etarget\ES910\libtarget.a(i_cpyfnc.o)
 .gnu.attributes
                0x000008c0       0x14 C:\Program Files (x86)\ETAS\INTECRIO5.0\Target\Etarget\ES910\libtarget.a(i_mapfnc.o)
 .gnu.attributes
                0x000008d4       0x14 C:\Program Files (x86)\ETAS\INTECRIO5.0\Target\Etarget\ES910\libtarget.a(i_osman.o)
 .gnu.attributes
                0x000008e8       0x14 C:\Program Files (x86)\ETAS\INTECRIO5.0\Target\Etarget\ES910\libtarget.a(i_rtioma.o)
 .gnu.attributes
                0x000008fc       0x14 C:\Program Files (x86)\ETAS\INTECRIO5.0\Target\Etarget\ES910\libtarget.a(i_salone.o)
 .gnu.attributes
                0x00000910       0x14 C:\Program Files (x86)\ETAS\INTECRIO5.0\Target\Etarget\ES910\libtarget.a(t_croman.o)
 .gnu.attributes
                0x00000924       0x14 C:\Program Files (x86)\ETAS\INTECRIO5.0\Target\Etarget\ES910\libtarget.a(t_crosll.o)
 .gnu.attributes
                0x00000938       0x14 C:\Program Files (x86)\ETAS\INTECRIO5.0\Target\Etarget\ES910\libtarget.a(t_nvram.o)
 .gnu.attributes
                0x0000094c       0x14 C:\Program Files (x86)\ETAS\INTECRIO5.0\Target\Etarget\ES910\libtarget.a(t_objlis.o)
 .gnu.attributes
                0x00000960       0x14 C:\Program Files (x86)\ETAS\INTECRIO5.0\Target\Etarget\ES910\libtarget.a(t_rtcros.o)
 .gnu.attributes
                0x00000974       0x14 C:\Program Files (x86)\ETAS\INTECRIO5.0\Target\Etarget\ES910\libtarget.a(t_sgman.o)
 .gnu.attributes
                0x00000988       0x14 C:\Program Files (x86)\ETAS\INTECRIO5.0\Target\Etarget\ES910\libtarget.a(y_primit.o)
 .gnu.attributes
                0x0000099c       0x14 C:\Program Files (x86)\ETAS\INTECRIO5.0\Target\Etarget\ES910\libtarget.a(a1b_dacq.o)
 .gnu.attributes
                0x000009b0       0x14 C:\Program Files (x86)\ETAS\INTECRIO5.0\Target\Etarget\ES910\libtarget.a(a_contai.o)
 .gnu.attributes
                0x000009c4       0x14 C:\Program Files (x86)\ETAS\INTECRIO5.0\Target\Etarget\ES910\libtarget.a(i_transf.o)
 .gnu.attributes
                0x000009d8       0x14 C:\Program Files (x86)\ETAS\INTECRIO5.0\Target\Etarget\ES910\libtarget.a(t_sglow.o)
 .gnu.attributes
                0x000009ec       0x14 C:\Program Files (x86)\ETAS\INTECRIO5.0\Target\Etarget\rtio\global\es910\librtio_gnu.a(comm_err.o)
 .gnu.attributes
                0x00000a00       0x14 C:\Program Files (x86)\ETAS\INTECRIO5.0\Target\Etarget\rtio\global\es910\librtio_gnu.a(p_rtio.o)
 .gnu.attributes
                0x00000a14       0x14 C:\Program Files (x86)\ETAS\INTECRIO5.0\Target\Etarget\rtio\global\es910\librtio_gnu.a(p_rtio_s.o)
 .gnu.attributes
                0x00000a28       0x14 C:\Program Files (x86)\ETAS\INTECRIO5.0\Target\Etarget\rtio\global\es910\librtio_gnu.a(rtio_err.o)
 .gnu.attributes
                0x00000a3c       0x14 C:\Program Files (x86)\ETAS\INTECRIO5.0\Target\Etarget\rtio\global\es910\librtio_gnu.a(fhc_emu.o)
 .gnu.attributes
                0x00000a50       0x14 C:\Program Files (x86)\ETAS\INTECRIO5.0\Target\Etarget\ES910\rta_osek\librtk_s.a(ostarget.o)
 .gnu.attributes
                0x00000a64       0x14 C:\Program Files (x86)\ETAS\INTECRIO5.0\Target\Etarget\ES910\rta_osek\librtk_s.a(osfptgt.o)
 .gnu.attributes
                0x00000a78       0x14 C:\Program Files (x86)\ETAS\INTECRIO5.0\Target\Etarget\ES910\rta_osek\librtk_s.a(osiwrap1.o)
 .gnu.attributes
                0x00000a8c       0x14 C:\Program Files (x86)\ETAS\INTECRIO5.0\Target\Etarget\ES910\rta_osek\librtk_s.a(osxdspnf.o)
 .gnu.attributes
                0x00000aa0       0x14 C:\Program Files (x86)\ETAS\INTECRIO5.0\Target\Etarget\ES910\rta_osek\librtk_s.a(osysd1hf.o)
 .gnu.attributes
                0x00000ab4       0x14 C:\Program Files (x86)\ETAS\INTECRIO5.0\Target\Etarget\ES910\rta_osek\librtk_s.a(osysdfhf.o)
 .gnu.attributes
                0x00000ac8       0x14 C:\Program Files (x86)\ETAS\INTECRIO5.0\Target\Etarget\ES910\rta_osek\librtk_s.a(osysdfhi.o)
 .gnu.attributes
                0x00000adc       0x14 C:\Program Files (x86)\ETAS\INTECRIO5.0\Target\Etarget\ES910\rta_osek\librtk_s.a(ostgid.o)
 .gnu.attributes
                0x00000af0       0x14 C:\Program Files (x86)\ETAS\INTECRIO5.0\Target\Etarget\ES910\rta_osek\librtk_s.a(ostschf.o)
 .gnu.attributes
                0x00000b04       0x14 C:\Program Files (x86)\ETAS\INTECRIO5.0\Target\Etarget\ES910\rta_osek\librtk_s.a(osieai.o)
 .gnu.attributes
                0x00000b18       0x14 C:\Program Files (x86)\ETAS\INTECRIO5.0\Target\Etarget\ES910\rta_osek\librtk_s.a(osidai.o)
 .gnu.attributes
                0x00000b2c       0x14 C:\Program Files (x86)\ETAS\INTECRIO5.0\Target\Etarget\ES910\rta_osek\librtk_s.a(osisoi.o)
 .gnu.attributes
                0x00000b40       0x14 C:\Program Files (x86)\ETAS\INTECRIO5.0\Target\Etarget\ES910\rta_osek\librtk_s.a(osirai.o)
 .gnu.attributes
                0x00000b54       0x14 C:\Program Files (x86)\ETAS\INTECRIO5.0\Target\Etarget\ES910\rta_osek\librtk_s.a(osisai.o)
 .gnu.attributes
                0x00000b68       0x14 C:\Program Files (x86)\ETAS\INTECRIO5.0\Target\Etarget\ES910\rta_osek\librtk_s.a(osxperr2.o)
 .gnu.attributes
                0x00000b7c       0x14 C:\Program Files (x86)\ETAS\INTECRIO5.0\Target\Etarget\ES910\rta_osek\librtk_s.a(osxglobs.o)
 .gnu.attributes
                0x00000b90       0x14 C:\Program Files (x86)\ETAS\INTECRIO5.0\Target\Etarget\ES910\rta_osek\librtk_s.a(osostart.o)
 .gnu.attributes
                0x00000ba4       0x14 C:\Program Files (x86)\ETAS\INTECRIO5.0\Target\Etarget\ES910\rta_osek\librtk_s.a(ososhuth.o)
 .gnu.attributes
                0x00000bb8       0x14 C:\Program Files (x86)\ETAS\INTECRIO5.0\Target\Etarget\ES910\rta_osek\librtk_s.a(osttermh.o)
 .gnu.attributes
                0x00000bcc       0x14 C:\Program Files (x86)\ETAS\INTECRIO5.0\Target\Etarget\ES910\rta_osek\librtk_s.a(ostactsf.o)
 .gnu.attributes
                0x00000be0       0x14 C:\Program Files (x86)\ETAS\INTECRIO5.0\Target\Etarget\ES910\rta_osek\librtk_s.a(ostactnf.o)
 .gnu.attributes
                0x00000bf4       0x14 C:\Program Files (x86)\ETAS\INTECRIO5.0\Target\Etarget\ES910\rta_osek\librtk_s.a(osatickn.o)
 .gnu.attributes
                0x00000c08       0x14 C:\Program Files (x86)\ETAS\INTECRIO5.0\Target\Etarget\ES910\rta_osek\librtk_s.a(osacallb.o)
 .gnu.attributes
                0x00000c1c       0x14 C:\Program Files (x86)\ETAS\INTECRIO5.0\Target\Etarget\ES910\rta_osek\librtk_s.a(osxdpsho.o)
 .gnu.attributes
                0x00000c30       0x14 C:\Program Files (x86)\ETAS\INTECRIO5.0\Target\Etarget\ES910\rta_osek\librtk_s.a(osiwrap.o)
 .gnu.attributes
                0x00000c44       0x14 C:\Program Files (x86)\ETAS\INTECRIO5.0\Target\Etarget\ES910\rta_osek\librtk_s.a(ososhutn.o)
 .gnu.attributes
                0x00000c58       0x14 C:\Program Files (x86)\ETAS\INTECRIO5.0\Target\Etarget\ES910\libcommon.a(p_execl1.o)
 .gnu.attributes
                0x00000c6c       0x14 C:\Program Files (x86)\ETAS\INTECRIO5.0\Target\Etarget\ES910\libcommon.a(p_protl1.o)
 .gnu.attributes
                0x00000c80       0x14 C:\Program Files (x86)\ETAS\INTECRIO5.0\Target\Etarget\ES910\libcommon.a(p_stdeb.o)
 .gnu.attributes
                0x00000c94       0x14 Car_State1/Car_State1.a(Car_State_main.o)
 .gnu.attributes
                0x00000ca8       0x14 Car_State1/Car_State1.a(rt_sim.o)
 .gnu.attributes
                0x00000cbc       0x14 Disconnections1/Disconnections1.a(Disconnections_main.o)
 .gnu.attributes
                0x00000cd0       0x14 Disconnections1/Disconnections1.a(rt_sim.o)
 .gnu.attributes
                0x00000ce4       0x14 Ellipse1/Ellipse1.a(Ellipse_main.o)
 .gnu.attributes
                0x00000cf8       0x14 Ellipse1/Ellipse1.a(rt_sim.o)
 .gnu.attributes
                0x00000d0c       0x14 Inverters_Action1/Inverters_Action1.a(Inverters_Action_main.o)
 .gnu.attributes
                0x00000d20       0x14 Inverters_Action1/Inverters_Action1.a(rt_sim.o)
 .gnu.attributes
                0x00000d34       0x14 Inverters_Data1/Inverters_Data1.a(Inverters_Data_main.o)
 .gnu.attributes
                0x00000d48       0x14 Inverters_Data1/Inverters_Data1.a(rt_sim.o)
 .gnu.attributes
                0x00000d5c       0x14 Power_Control1/Power_Control1.a(Power_Control_main.o)
 .gnu.attributes
                0x00000d70       0x14 Power_Control1/Power_Control1.a(rt_sim.o)
 .gnu.attributes
                0x00000d84       0x14 Sensors1/Sensors1.a(Sensors_main.o)
 .gnu.attributes
                0x00000d98       0x14 Sensors1/Sensors1.a(rt_sim.o)
 .gnu.attributes
                0x00000dac       0x14 Synchronism1/Synchronism1.a(Synchronism_main.o)
 .gnu.attributes
                0x00000dc0       0x14 Synchronism1/Synchronism1.a(rt_sim.o)
 .gnu.attributes
                0x00000dd4       0x14 VDC1/VDC1.a(VDC_main.o)
 .gnu.attributes
                0x00000de8       0x14 VDC1/VDC1.a(rt_sim.o)
 .gnu.attributes
                0x00000dfc       0x14 SoC1/SoC1.a(SoC_main.o)
 .gnu.attributes
                0x00000e10       0x14 SoC1/SoC1.a(rt_sim.o)
 .gnu.attributes
                0x00000e24       0x14 C:/Program Files (x86)/ETAS/INTECRIO5.0/Target/ETarget/rtio/es9xxcan/ES910/es9xxCan_gnu.lib(es9xxCan.o)
 .gnu.attributes
                0x00000e38       0x14 C:/Program Files (x86)/ETAS/INTECRIO5.0/Target/ETarget/rtio/es9xxcan/ES910/es9xxCan_gnu.lib(es9xxCanCanio.o)
 .gnu.attributes
                0x00000e4c       0x14 C:/Program Files (x86)/ETAS/INTECRIO5.0/Target/ETarget/rtio/es9xxcan/ES910/es9xxCan_gnu.lib(es9xxCanErr.o)
 .gnu.attributes
                0x00000e60       0x14 C:/Program Files (x86)/ETAS/INTECRIO5.0/Target/ETarget/rtio/es9xxcan/ES910/es9xxCan_gnu.lib(es9xxCanHalBuf.o)
 .gnu.attributes
                0x00000e74       0x14 C:/Program Files (x86)/ETAS/INTECRIO5.0/Target/ETarget/rtio/es9xxcan/ES910/es9xxCan_gnu.lib(es9xxCanHalIfi.o)
 .gnu.attributes
                0x00000e88       0x14 C:/ETAS/Compiler/INTECRIO5.0/QNXCompiler-V6.5\host\win32\x86/usr/lib/gcc/powerpc-unknown-nto-qnx6.5.0/4.4.2/spe/libgcc.a(_floatdidf.o)
 .gnu.attributes
                0x00000e9c       0x14 C:\Program Files (x86)\ETAS\INTECRIO5.0\Target\Etarget\ES910\libes910.a(t_dataset.o)
 .gnu.attributes
                0x00000eb0       0x14 C:\Program Files (x86)\ETAS\INTECRIO5.0\Target\Etarget\ES910\libtarget.a(crc32.o)

/DISCARD/
 *(.note.GNU-stack)
 *(.gnu_debuglink)
                0x00000000                enableLogFlg = 0x0
                0x00000000                rtioCrossbarEnableLogFlg = 0x0
                0x00000000                disableNvramAutoUpdateFlg = 0x0
                0x00000000                etkNumWriteRetries = 0x0
                0x00000000                etkWriteRetryInterval = 0x0
START GROUP
LOAD ROOT_instances.o
LOAD _INT_pid.pi.o
LOAD userFuncProcessCanPayload.o
LOAD userFuncProcessFlexRayPayload.o
LOAD OSC/i_rtawrapper.o
LOAD Car_State0/Car_State_instances.o
LOAD Car_State1/Car_State1.a
LOAD Disconnections0/Disconnections_instances.o
LOAD Disconnections1/Disconnections1.a
LOAD Ellipse0/Ellipse_instances.o
LOAD Ellipse1/Ellipse1.a
LOAD Inverters_Action0/Inverters_Action_instances.o
LOAD Inverters_Action1/Inverters_Action1.a
LOAD Inverters_Data0/Inverters_Data_instances.o
LOAD Inverters_Data1/Inverters_Data1.a
LOAD Power_Control0/Power_Control_instances.o
LOAD Power_Control1/Power_Control1.a
LOAD Sensors0/Sensors_instances.o
LOAD Sensors1/Sensors1.a
LOAD Synchronism0/Synchronism_instances.o
LOAD Synchronism1/Synchronism1.a
LOAD VDC0/VDC_instances.o
LOAD VDC1/VDC1.a
LOAD SoC0/SoC_instances.o
LOAD SoC1/SoC1.a
LOAD matlabsharedR2023b/matlabsharedR2023b.a
LOAD OSC/osekdefs.o
LOAD OSC/osgen.o
LOAD OSC/TaskISRArchive.a
LOAD OSC/etasActivateTaskIsr.o
LOAD OSC/etasL1Isr.o
LOAD OSC/etasL1Task.o
LOAD OSC/etasTimerIsr.o
LOAD OSC/etasStopOsIsr.o
LOAD OSC/DriverThreads.o
LOAD OSC/ISRFunctions.o
LOAD OSC/osc_dyn.o
LOAD OSC/rtaInterface.o
LOAD OSC/ETCHooks.o
LOAD OSC/XbarHooks.o
LOAD C:/Program Files (x86)/ETAS/INTECRIO5.0/Target/ETarget/rtio/es9xxcan/ES910/es9xxCan_gnu.lib
LOAD ETC/FormulaTable.o
LOAD ETC/DriverTable.o
LOAD ETC/MappingFunctionTable.o
LOAD ETC/RtioL1RecordTable.o
LOAD ETC/XCPTransportLayerFunctionsTable.o
LOAD ETC/ChecksumAlgoTables.o
LOAD CBC/CopyFunctionTable.o
LOAD CBC/CrossbarL1RecordTable.o
LOAD C:\ETAS\Compiler\INTECRIO5.0\QNXCompiler-V6.5\target\qnx6\ppcbe-spe\lib/libc.so
LOAD C:\ETAS\Compiler\INTECRIO5.0\QNXCompiler-V6.5\target\qnx6\ppcbe-spe\lib\libc.a
LOAD C:/ETAS/Compiler/INTECRIO5.0/QNXCompiler-V6.5\host\win32\x86/usr/lib/gcc/powerpc-unknown-nto-qnx6.5.0/4.4.2/spe/libgcc.a
LOAD C:/ETAS/Compiler/INTECRIO5.0/QNXCompiler-V6.5\host\win32\x86/usr/lib/gcc/powerpc-unknown-nto-qnx6.5.0/4.4.2/spe/crtend.o
LOAD C:/ETAS/Compiler/INTECRIO5.0/QNXCompiler-V6.5\target\qnx6/ppcbe-spe/lib/crtn.o
LOAD C:\Program Files (x86)\ETAS\INTECRIO5.0\Target\Etarget\ES910\libes910.a
LOAD C:\Program Files (x86)\ETAS\INTECRIO5.0\Target\Etarget\ES910\libtarget.a
LOAD C:\Program Files (x86)\ETAS\INTECRIO5.0\Target\Etarget\rtio\global\es910\librtio_gnu.a
LOAD C:\Program Files (x86)\ETAS\INTECRIO5.0\Target\Etarget\ES910\rta_osek\librtk_s.a
LOAD C:\Program Files (x86)\ETAS\INTECRIO5.0\Target\Etarget\ES910\libcommon.a
LOAD C:\Program Files (x86)\ETAS\INTECRIO5.0\Target\Etarget\ES910\libintpol.a
LOAD C:\Program Files (x86)\ETAS\INTECRIO5.0\Target\Etarget\ES910\libintpolascetse.a
LOAD C:\Program Files (x86)\ETAS\INTECRIO5.0\Target\Etarget\ES910/liblin.so
LOAD C:\Program Files (x86)\ETAS\INTECRIO5.0\Target\Etarget\ES910/libcan.so
LOAD C:\Program Files (x86)\ETAS\INTECRIO5.0\Target\Etarget\ES910/libtriplebuf.so
LOAD C:\Program Files (x86)\ETAS\INTECRIO5.0\Target\Etarget\ES910/libudpServer.so
LOAD C:\Program Files (x86)\ETAS\INTECRIO5.0\Target\Etarget\ES910/libosekwd.so
LOAD C:\Program Files (x86)\ETAS\INTECRIO5.0\Target\Etarget\ES910/libuserwd.so
LOAD C:\Program Files (x86)\ETAS\INTECRIO5.0\Target\Etarget\ES910/libhwinfo.so
LOAD C:\Program Files (x86)\ETAS\INTECRIO5.0\Target\Etarget\ES910/libincarequest.so
LOAD C:\Program Files (x86)\ETAS\INTECRIO5.0\Target\Etarget\ES910/libclktime.so
LOAD C:\Program Files (x86)\ETAS\INTECRIO5.0\Target\Etarget\ES910/libetas.so
LOAD C:\Program Files (x86)\ETAS\INTECRIO5.0\Target\Etarget\ES910/libcJSON.so
LOAD C:\Users\joser\AppData\Roaming\ETAS\INTECRIO5.0\ETARGET\ES910\libmatlabstaticR2023b_gnu.a
LOAD C:\ETAS\Compiler\INTECRIO5.0\QNXCompiler-V6.5\target\qnx6\ppcbe-spe\lib/libsocket.so
LOAD C:\ETAS\Compiler\INTECRIO5.0\QNXCompiler-V6.5\target\qnx6\ppcbe-spe\lib/libm.so
LOAD C:\ETAS\Compiler\INTECRIO5.0\QNXCompiler-V6.5\target\qnx6\ppcbe-spe\lib/libc.so
END GROUP
OUTPUT(System_rom.l elf32-powerpc)

.PPC.EMB.apuinfo
                0x00000000       0x20
 .PPC.EMB.apuinfo
                0x00000000       0x1c ROOT_instances.o
 .PPC.EMB.apuinfo
                0x0000001c       0x1c Car_State1/Car_State1.a(Car_State.o)
 .PPC.EMB.apuinfo
                0x00000038       0x1c Disconnections1/Disconnections1.a(Disconnections.o)
 .PPC.EMB.apuinfo
                0x00000054       0x1c Ellipse1/Ellipse1.a(Ellipse.o)
 .PPC.EMB.apuinfo
                0x00000070       0x1c Inverters_Action1/Inverters_Action1.a(Inverters_Action.o)
 .PPC.EMB.apuinfo
                0x0000008c       0x1c Inverters_Data1/Inverters_Data1.a(Inverters_Data.o)
 .PPC.EMB.apuinfo
                0x000000a8       0x1c Power_Control1/Power_Control1.a(Power_Control.o)
 .PPC.EMB.apuinfo
                0x000000c4       0x1c Sensors1/Sensors1.a(Sensors.o)
 .PPC.EMB.apuinfo
                0x000000e0       0x1c Synchronism1/Synchronism1.a(Synchronism.o)
 .PPC.EMB.apuinfo
                0x000000fc       0x1c VDC1/VDC1.a(VDC.o)
 .PPC.EMB.apuinfo
                0x00000118       0x1c SoC1/SoC1.a(SoC.o)
 .PPC.EMB.apuinfo
                0x00000134       0x1c matlabsharedR2023b/matlabsharedR2023b.a(look1_binlxpw.o)
 .PPC.EMB.apuinfo
                0x00000150       0x1c matlabsharedR2023b/matlabsharedR2023b.a(look2_binlxpw.o)
 .PPC.EMB.apuinfo
                0x0000016c       0x1c matlabsharedR2023b/matlabsharedR2023b.a(rt_nonfinite.o)
 .PPC.EMB.apuinfo
                0x00000188       0x18 matlabsharedR2023b/matlabsharedR2023b.a(rtgetinf.o)
 .PPC.EMB.apuinfo
                0x000001a0       0x1c matlabsharedR2023b/matlabsharedR2023b.a(rtgetnan.o)
 .PPC.EMB.apuinfo
                0x000001bc       0x1c C:/ETAS/Compiler/INTECRIO5.0/QNXCompiler-V6.5\host\win32\x86/usr/lib/gcc/powerpc-unknown-nto-qnx6.5.0/4.4.2/spe/libgcc.a(_fixunsdfdi.o)
 .PPC.EMB.apuinfo
                0x000001d8       0x1c C:/ETAS/Compiler/INTECRIO5.0/QNXCompiler-V6.5\host\win32\x86/usr/lib/gcc/powerpc-unknown-nto-qnx6.5.0/4.4.2/spe/libgcc.a(_floatundidf.o)
 .PPC.EMB.apuinfo
                0x000001f4       0x1c C:\Program Files (x86)\ETAS\INTECRIO5.0\Target\Etarget\ES910\libes910.a(i_rtautil.o)
 .PPC.EMB.apuinfo
                0x00000210       0x20 C:\Program Files (x86)\ETAS\INTECRIO5.0\Target\Etarget\ES910\libes910.a(t_idle.o)
 .PPC.EMB.apuinfo
                0x00000230       0x18 C:\Program Files (x86)\ETAS\INTECRIO5.0\Target\Etarget\ES910\libes910.a(t_mlog.o)
 .PPC.EMB.apuinfo
                0x00000248       0x18 C:\Program Files (x86)\ETAS\INTECRIO5.0\Target\Etarget\ES910\libes910.a(t_qnxtargetutil.o)
 .PPC.EMB.apuinfo
                0x00000260       0x1c C:\Program Files (x86)\ETAS\INTECRIO5.0\Target\Etarget\ES910\libes910.a(t_targetutil.o)
 .PPC.EMB.apuinfo
                0x0000027c       0x20 C:\Program Files (x86)\ETAS\INTECRIO5.0\Target\Etarget\ES910\libtarget.a(a_dacqui.o)
 .PPC.EMB.apuinfo
                0x0000029c       0x20 C:\Program Files (x86)\ETAS\INTECRIO5.0\Target\Etarget\ES910\libtarget.a(a_primit.o)
 .PPC.EMB.apuinfo
                0x000002bc       0x20 C:\Program Files (x86)\ETAS\INTECRIO5.0\Target\Etarget\ES910\libtarget.a(a_targma.o)
 .PPC.EMB.apuinfo
                0x000002dc       0x1c C:\Program Files (x86)\ETAS\INTECRIO5.0\Target\Etarget\ES910\libtarget.a(i_cpyfnc.o)
 .PPC.EMB.apuinfo
                0x000002f8       0x20 C:\Program Files (x86)\ETAS\INTECRIO5.0\Target\Etarget\ES910\libtarget.a(i_mapfnc.o)
 .PPC.EMB.apuinfo
                0x00000318       0x18 C:\Program Files (x86)\ETAS\INTECRIO5.0\Target\Etarget\ES910\libtarget.a(i_osman.o)
 .PPC.EMB.apuinfo
                0x00000330       0x20 C:\Program Files (x86)\ETAS\INTECRIO5.0\Target\Etarget\ES910\libtarget.a(i_rtioma.o)
 .PPC.EMB.apuinfo
                0x00000350       0x18 C:\Program Files (x86)\ETAS\INTECRIO5.0\Target\Etarget\ES910\libtarget.a(t_croman.o)
 .PPC.EMB.apuinfo
                0x00000368       0x18 C:\Program Files (x86)\ETAS\INTECRIO5.0\Target\Etarget\ES910\libtarget.a(t_crosll.o)
 .PPC.EMB.apuinfo
                0x00000380       0x18 C:\Program Files (x86)\ETAS\INTECRIO5.0\Target\Etarget\ES910\libtarget.a(t_objlis.o)
 .PPC.EMB.apuinfo
                0x00000398       0x20 C:\Program Files (x86)\ETAS\INTECRIO5.0\Target\Etarget\ES910\libtarget.a(t_rtcros.o)
 .PPC.EMB.apuinfo
                0x000003b8       0x20 C:\Program Files (x86)\ETAS\INTECRIO5.0\Target\Etarget\ES910\libtarget.a(t_sgman.o)
 .PPC.EMB.apuinfo
                0x000003d8       0x18 C:\Program Files (x86)\ETAS\INTECRIO5.0\Target\Etarget\ES910\libtarget.a(y_primit.o)
 .PPC.EMB.apuinfo
                0x000003f0       0x20 C:\Program Files (x86)\ETAS\INTECRIO5.0\Target\Etarget\ES910\libtarget.a(a1b_dacq.o)
 .PPC.EMB.apuinfo
                0x00000410       0x18 C:\Program Files (x86)\ETAS\INTECRIO5.0\Target\Etarget\ES910\libtarget.a(a_contai.o)
 .PPC.EMB.apuinfo
                0x00000428       0x1c C:\Program Files (x86)\ETAS\INTECRIO5.0\Target\Etarget\ES910\libtarget.a(t_sglow.o)
 .PPC.EMB.apuinfo
                0x00000444       0x18 C:\Program Files (x86)\ETAS\INTECRIO5.0\Target\Etarget\rtio\global\es910\librtio_gnu.a(p_rtio_s.o)
 .PPC.EMB.apuinfo
                0x0000045c       0x18 C:\Program Files (x86)\ETAS\INTECRIO5.0\Target\Etarget\ES910\rta_osek\librtk_s.a(ostarget.o)
 .PPC.EMB.apuinfo
                0x00000474       0x18 C:\Program Files (x86)\ETAS\INTECRIO5.0\Target\Etarget\ES910\rta_osek\librtk_s.a(osysdfhf.o)
 .PPC.EMB.apuinfo
                0x0000048c       0x18 C:\Program Files (x86)\ETAS\INTECRIO5.0\Target\Etarget\ES910\rta_osek\librtk_s.a(osysdfhi.o)
 .PPC.EMB.apuinfo
                0x000004a4       0x18 C:\Program Files (x86)\ETAS\INTECRIO5.0\Target\Etarget\ES910\rta_osek\librtk_s.a(osxjmp.o)
 .PPC.EMB.apuinfo
                0x000004bc       0x18 C:\Program Files (x86)\ETAS\INTECRIO5.0\Target\Etarget\ES910\libcommon.a(p_protl1.o)
 .PPC.EMB.apuinfo
                0x000004d4       0x18 Car_State1/Car_State1.a(Car_State_main.o)
 .PPC.EMB.apuinfo
                0x000004ec       0x1c Car_State1/Car_State1.a(rt_sim.o)
 .PPC.EMB.apuinfo
                0x00000508       0x18 Disconnections1/Disconnections1.a(Disconnections_main.o)
 .PPC.EMB.apuinfo
                0x00000520       0x1c Disconnections1/Disconnections1.a(rt_sim.o)
 .PPC.EMB.apuinfo
                0x0000053c       0x18 Ellipse1/Ellipse1.a(Ellipse_main.o)
 .PPC.EMB.apuinfo
                0x00000554       0x1c Ellipse1/Ellipse1.a(rt_sim.o)
 .PPC.EMB.apuinfo
                0x00000570       0x18 Inverters_Action1/Inverters_Action1.a(Inverters_Action_main.o)
 .PPC.EMB.apuinfo
                0x00000588       0x1c Inverters_Action1/Inverters_Action1.a(rt_sim.o)
 .PPC.EMB.apuinfo
                0x000005a4       0x18 Inverters_Data1/Inverters_Data1.a(Inverters_Data_main.o)
 .PPC.EMB.apuinfo
                0x000005bc       0x1c Inverters_Data1/Inverters_Data1.a(rt_sim.o)
 .PPC.EMB.apuinfo
                0x000005d8       0x18 Power_Control1/Power_Control1.a(Power_Control_main.o)
 .PPC.EMB.apuinfo
                0x000005f0       0x1c Power_Control1/Power_Control1.a(rt_sim.o)
 .PPC.EMB.apuinfo
                0x0000060c       0x18 Sensors1/Sensors1.a(Sensors_main.o)
 .PPC.EMB.apuinfo
                0x00000624       0x1c Sensors1/Sensors1.a(rt_sim.o)
 .PPC.EMB.apuinfo
                0x00000640       0x18 Synchronism1/Synchronism1.a(Synchronism_main.o)
 .PPC.EMB.apuinfo
                0x00000658       0x1c Synchronism1/Synchronism1.a(rt_sim.o)
 .PPC.EMB.apuinfo
                0x00000674       0x18 VDC1/VDC1.a(VDC_main.o)
 .PPC.EMB.apuinfo
                0x0000068c       0x1c VDC1/VDC1.a(rt_sim.o)
 .PPC.EMB.apuinfo
                0x000006a8       0x1c SoC1/SoC1.a(SoC_main.o)
 .PPC.EMB.apuinfo
                0x000006c4       0x1c SoC1/SoC1.a(rt_sim.o)
 .PPC.EMB.apuinfo
                0x000006e0       0x18 C:/Program Files (x86)/ETAS/INTECRIO5.0/Target/ETarget/rtio/es9xxcan/ES910/es9xxCan_gnu.lib(es9xxCanCanio.o)
 .PPC.EMB.apuinfo
                0x000006f8       0x18 C:/Program Files (x86)/ETAS/INTECRIO5.0/Target/ETarget/rtio/es9xxcan/ES910/es9xxCan_gnu.lib(es9xxCanHalBuf.o)
 .PPC.EMB.apuinfo
                0x00000710       0x1c C:/ETAS/Compiler/INTECRIO5.0/QNXCompiler-V6.5\host\win32\x86/usr/lib/gcc/powerpc-unknown-nto-qnx6.5.0/4.4.2/spe/libgcc.a(_floatdidf.o)
 .PPC.EMB.apuinfo
                0x0000072c       0x18 C:\Program Files (x86)\ETAS\INTECRIO5.0\Target\Etarget\ES910\libes910.a(t_dataset.o)
