Archive member included because of file (symbol)

Accel_Data_ETR071/Accel_Data_ETR071.a(Accel_Data_ETR07.o)
                              Accel_Data_ETR070/Accel_Data_ETR07_instances.o (Accel_Data_ETR07_U)
Accel_Data_ETR071/Accel_Data_ETR071.a(Accel_Data_ETR07_data.o)
                              Accel_Data_ETR070/Accel_Data_ETR07_instances.o (Accel_Data_ETR07_P)
Car_State_ETR071/Car_State_ETR071.a(Car_State_ETR07.o)
                              Car_State_ETR070/Car_State_ETR07_instances.o (Car_State_ETR07_DW)
Car_State_ETR071/Car_State_ETR071.a(Car_State_ETR07_data.o)
                              Car_State_ETR070/Car_State_ETR07_instances.o (Car_State_ETR07_P)
Disconnections_ETR071/Disconnections_ETR071.a(Disconnections_ETR07.o)
                              Disconnections_ETR070/Disconnections_ETR07_instances.o (Disconnections_ETR07_DW)
Disconnections_ETR071/Disconnections_ETR071.a(Disconnections_ETR07_data.o)
                              Disconnections_ETR070/Disconnections_ETR07_instances.o (Disconnections_ETR07_P)
inverters_action_ETR071/inverters_action_ETR071.a(inverters_action_ETR07.o)
                              inverters_action_ETR070/inverters_action_ETR07_instances.o (inverters_action_ETR07_U)
inverters_action_ETR071/inverters_action_ETR071.a(inverters_action_ETR07_data.o)
                              inverters_action_ETR070/inverters_action_ETR07_instances.o (inverters_action_ETR07_P)
Inverters_Data_ETR071/Inverters_Data_ETR071.a(Inverters_Data_ETR07.o)
                              Inverters_Data_ETR070/Inverters_Data_ETR07_instances.o (Inverters_Data_ETR07_U)
Inverters_Data_ETR071/Inverters_Data_ETR071.a(Inverters_Data_ETR07_data.o)
                              Inverters_Data_ETR070/Inverters_Data_ETR07_instances.o (Inverters_Data_ETR07_P)
LVD_Data_ETR071/LVD_Data_ETR071.a(LVD_Data_ETR07.o)
                              LVD_Data_ETR070/LVD_Data_ETR07_instances.o (LVD_Data_ETR07_DW)
LVD_Data_ETR071/LVD_Data_ETR071.a(LVD_Data_ETR07_data.o)
                              LVD_Data_ETR070/LVD_Data_ETR07_instances.o (LVD_Data_ETR07_P)
Pedals_Susp_Sensors_ETR071/Pedals_Susp_Sensors_ETR071.a(Pedals_Susp_Sensors_ETR07.o)
                              Pedals_Susp_Sensors_ETR070/Pedals_Susp_Sensors_ETR07_instances.o (Pedals_Susp_Sensors_ETR07_U)
Pedals_Susp_Sensors_ETR071/Pedals_Susp_Sensors_ETR071.a(Pedals_Susp_Sensors_ETR07_data.o)
                              Pedals_Susp_Sensors_ETR070/Pedals_Susp_Sensors_ETR07_instances.o (Pedals_Susp_Sensors_ETR07_P)
Racing_Mode_ETR071/Racing_Mode_ETR071.a(Racing_Mode_ETR07.o)
                              Racing_Mode_ETR070/Racing_Mode_ETR07_instances.o (Racing_Mode_ETR07_B)
Racing_Mode_ETR071/Racing_Mode_ETR071.a(Racing_Mode_ETR07_data.o)
                              Racing_Mode_ETR070/Racing_Mode_ETR07_instances.o (Racing_Mode_ETR07_P)
Synchronism_ETR071/Synchronism_ETR071.a(Synchronism_ETR07.o)
                              Synchronism_ETR070/Synchronism_ETR07_instances.o (Synchronism_ETR07_DW)
Synchronism_ETR071/Synchronism_ETR071.a(Synchronism_ETR07_data.o)
                              Synchronism_ETR070/Synchronism_ETR07_instances.o (Synchronism_ETR07_P)
Torque_Control_ETR071/Torque_Control_ETR071.a(Torque_Control_ETR07.o)
                              Torque_Control_ETR070/Torque_Control_ETR07_instances.o (Torque_Control_ETR07_DW)
Torque_Control_ETR071/Torque_Control_ETR071.a(Torque_Control_ETR07_data.o)
                              Torque_Control_ETR070/Torque_Control_ETR07_instances.o (Torque_Control_ETR07_P)
matlabsharedR2017b/matlabsharedR2017b.a(rt_nonfinite.o)
                              inverters_action_ETR071/inverters_action_ETR071.a(inverters_action_ETR07.o) (rtIsInf)
matlabsharedR2017b/matlabsharedR2017b.a(mldivide_u4svsr16.o)
                              Torque_Control_ETR071/Torque_Control_ETR071.a(Torque_Control_ETR07.o) (mldivide_u4svSR16)
matlabsharedR2017b/matlabsharedR2017b.a(polyfit_vylrx3xp.o)
                              Torque_Control_ETR071/Torque_Control_ETR071.a(Torque_Control_ETR07.o) (polyfit_vYlRX3XP)
matlabsharedR2017b/matlabsharedR2017b.a(rt_powd_snf.o)
                              Inverters_Data_ETR071/Inverters_Data_ETR071.a(Inverters_Data_ETR07.o) (rt_powd_snf)
matlabsharedR2017b/matlabsharedR2017b.a(xgeqp3_bpnhoopt.o)
                              matlabsharedR2017b/matlabsharedR2017b.a(mldivide_u4svsr16.o) (xgeqp3_BPnHOoPT)
matlabsharedR2017b/matlabsharedR2017b.a(xgeqp3_wlxeyd7k.o)
                              matlabsharedR2017b/matlabsharedR2017b.a(polyfit_vylrx3xp.o) (xgeqp3_wlXEYd7k)
matlabsharedR2017b/matlabsharedR2017b.a(xnrm2_5mghfn4r.o)
                              matlabsharedR2017b/matlabsharedR2017b.a(xgeqp3_wlxeyd7k.o) (xnrm2_5MGhfn4R)
matlabsharedR2017b/matlabsharedR2017b.a(xnrm2_ecih3nop.o)
                              matlabsharedR2017b/matlabsharedR2017b.a(xgeqp3_bpnhoopt.o) (xnrm2_eCIH3nOp)
matlabsharedR2017b/matlabsharedR2017b.a(xnrm2_kgimahi2.o)
                              matlabsharedR2017b/matlabsharedR2017b.a(xgeqp3_bpnhoopt.o) (xnrm2_KgImAhi2)
matlabsharedR2017b/matlabsharedR2017b.a(xnrm2_uobmrgas.o)
                              matlabsharedR2017b/matlabsharedR2017b.a(xgeqp3_wlxeyd7k.o) (xnrm2_uObmRgAs)
matlabsharedR2017b/matlabsharedR2017b.a(rtgetinf.o)
                              matlabsharedR2017b/matlabsharedR2017b.a(rt_nonfinite.o) (rtGetInf)
matlabsharedR2017b/matlabsharedR2017b.a(rtgetnan.o)
                              matlabsharedR2017b/matlabsharedR2017b.a(rt_nonfinite.o) (rtGetNaN)
matlabsharedR2017b/matlabsharedR2017b.a(rt_hypotd_snf.o)
                              matlabsharedR2017b/matlabsharedR2017b.a(xgeqp3_bpnhoopt.o) (rt_hypotd_snf)
OSC/TaskISRArchive.a(etasConfigTask.o)
                              OSC/osekdefs.o (osek_task_e_etasConfigTask)
OSC/TaskISRArchive.a(Sync_25ms.o)
                              OSC/osekdefs.o (osek_task_e_Sync_25ms)
OSC/TaskISRArchive.a(Timer_1000ms.o)
                              OSC/osekdefs.o (osek_task_e_Timer_1000ms)
OSC/TaskISRArchive.a(Timer_100ms.o)
                              OSC/osekdefs.o (osek_task_e_Timer_100ms)
OSC/TaskISRArchive.a(Timer_25ms.o)
                              OSC/osekdefs.o (osek_task_e_Timer_25ms)
OSC/TaskISRArchive.a(Timer_Inv.o)
                              OSC/osekdefs.o (osek_task_e_Timer_Inv)
OSC/TaskISRArchive.a(SWT_CAN1_AP_BMS_ChargerParameters.o)
                              OSC/osekdefs.o (osek_task_e_SWT_CAN1_AP_BMS_ChargerParameters)
OSC/TaskISRArchive.a(SWT_CAN1_AP_BMS_BatteryTemperatures.o)
                              OSC/osekdefs.o (osek_task_e_SWT_CAN1_AP_BMS_BatteryTemperatures)
OSC/TaskISRArchive.a(SWT_CAN1_AP_BMS_AIRs_State.o)
                              OSC/osekdefs.o (osek_task_e_SWT_CAN1_AP_BMS_AIRs_State)
OSC/TaskISRArchive.a(SWT_CAN1_AP_BMS_Current_SOC_SOH.o)
                              OSC/osekdefs.o (osek_task_e_SWT_CAN1_AP_BMS_Current_SOC_SOH)
OSC/TaskISRArchive.a(SWT_CAN1_AP_BMS_StateAndFailReport.o)
                              OSC/osekdefs.o (osek_task_e_SWT_CAN1_AP_BMS_StateAndFailReport)
OSC/TaskISRArchive.a(SWT_CAN1_AP_BMS_Voltages.o)
                              OSC/osekdefs.o (osek_task_e_SWT_CAN1_AP_BMS_Voltages)
OSC/TaskISRArchive.a(SWT_CAN1_AP_BMS_OnBoardTemperatures.o)
                              OSC/osekdefs.o (osek_task_e_SWT_CAN1_AP_BMS_OnBoardTemperatures)
OSC/TaskISRArchive.a(SWT_CAN1_AP_Inverter_R_Tx.o)
                              OSC/osekdefs.o (osek_task_e_SWT_CAN1_AP_Inverter_R_Tx)
OSC/TaskISRArchive.a(SWT_CAN1_AP_Inverter_L_Tx.o)
                              OSC/osekdefs.o (osek_task_e_SWT_CAN1_AP_Inverter_L_Tx)
OSC/TaskISRArchive.a(SWT_CAN1_AP_DASH_CustomMode.o)
                              OSC/osekdefs.o (osek_task_e_SWT_CAN1_AP_DASH_CustomMode)
OSC/TaskISRArchive.a(SWT_CAN1_AP_DASH_Mode.o)
                              OSC/osekdefs.o (osek_task_e_SWT_CAN1_AP_DASH_Mode)
OSC/TaskISRArchive.a(SWT_CAN1_NM_BMS_Keep_Alive.o)
                              OSC/osekdefs.o (osek_task_e_SWT_CAN1_NM_BMS_Keep_Alive)
OSC/TaskISRArchive.a(SWT_CAN1_NM_DASH_Keep_Alive.o)
                              OSC/osekdefs.o (osek_task_e_SWT_CAN1_NM_DASH_Keep_Alive)
OSC/TaskISRArchive.a(SWT_CAN1_AP_DASH_TorqueLockOn.o)
                              OSC/osekdefs.o (osek_task_e_SWT_CAN1_AP_DASH_TorqueLockOn)
OSC/TaskISRArchive.a(SWT_CAN1_AP_DASH_PrechargeRequest.o)
                              OSC/osekdefs.o (osek_task_e_SWT_CAN1_AP_DASH_PrechargeRequest)
OSC/TaskISRArchive.a(SWT_CAN1_AP_DASH_EnableDrive.o)
                              OSC/osekdefs.o (osek_task_e_SWT_CAN1_AP_DASH_EnableDrive)
OSC/TaskISRArchive.a(SWT_CAN1_AP_SHUTDOWN_State.o)
                              OSC/osekdefs.o (osek_task_e_SWT_CAN1_AP_SHUTDOWN_State)
OSC/TaskISRArchive.a(SWT_CAN1_NM_SHUTDOWN_Keep_Alive.o)
                              OSC/osekdefs.o (osek_task_e_SWT_CAN1_NM_SHUTDOWN_Keep_Alive)
OSC/TaskISRArchive.a(SWT_CAN2_AP_LV_Derivation_LVData.o)
                              OSC/osekdefs.o (osek_task_e_SWT_CAN2_AP_LV_Derivation_LVData)
OSC/TaskISRArchive.a(SWT_CAN2_AP_ACCEL_R_Data2.o)
                              OSC/osekdefs.o (osek_task_e_SWT_CAN2_AP_ACCEL_R_Data2)
OSC/TaskISRArchive.a(SWT_CAN2_NM_LV_Derivation_Keep_Alive.o)
                              OSC/osekdefs.o (osek_task_e_SWT_CAN2_NM_LV_Derivation_Keep_Alive)
OSC/TaskISRArchive.a(SWT_CAN2_AP_ACCEL_F_Data.o)
                              OSC/osekdefs.o (osek_task_e_SWT_CAN2_AP_ACCEL_F_Data)
OSC/TaskISRArchive.a(SWT_CAN2_NM_ACCEL_F_Keep_Alive.o)
                              OSC/osekdefs.o (osek_task_e_SWT_CAN2_NM_ACCEL_F_Keep_Alive)
OSC/TaskISRArchive.a(SWT_CAN2_NM_ACCEL_R_Keep_Alive.o)
                              OSC/osekdefs.o (osek_task_e_SWT_CAN2_NM_ACCEL_R_Keep_Alive)
OSC/TaskISRArchive.a(SWT_CAN2_AP_ACCEL_R_Data.o)
                              OSC/osekdefs.o (osek_task_e_SWT_CAN2_AP_ACCEL_R_Data)
OSC/TaskISRArchive.a(SWT_CAN2_AP_ADCAN_Data2.o)
                              OSC/osekdefs.o (osek_task_e_SWT_CAN2_AP_ADCAN_Data2)
OSC/TaskISRArchive.a(SWT_CAN2_AP_ADCAN_Data1.o)
                              OSC/osekdefs.o (osek_task_e_SWT_CAN2_AP_ADCAN_Data1)
OSC/TaskISRArchive.a(SWT_CAN2_NM_ADCAN_Keep_Alive.o)
                              OSC/osekdefs.o (osek_task_e_SWT_CAN2_NM_ADCAN_Keep_Alive)
OSC/TaskISRArchive.a(SWT_CAN2_AP_ELIPSE_VelAngular.o)
                              OSC/osekdefs.o (osek_task_e_SWT_CAN2_AP_ELIPSE_VelAngular)
OSC/TaskISRArchive.a(SWT_CAN2_AP_ELIPSE_VelBody.o)
                              OSC/osekdefs.o (osek_task_e_SWT_CAN2_AP_ELIPSE_VelBody)
OSC/TaskISRArchive.a(SWT_CAN1_AP_BMS_Current_SOC.o)
                              OSC/osekdefs.o (osek_task_e_SWT_CAN1_AP_BMS_Current_SOC)
OSC/TaskISRArchive.a(SWT_CAN1_AP_BMS_Current_SOC_SOH1.o)
                              OSC/osekdefs.o (osek_task_e_SWT_CAN1_AP_BMS_Current_SOC_SOH1)
OSC/TaskISRArchive.a(SWT_CAN1_AP_BMS_OnBoardTemperatures1.o)
                              OSC/osekdefs.o (osek_task_e_SWT_CAN1_AP_BMS_OnBoardTemperatures1)
OSC/TaskISRArchive.a(NewISR.o)
                              OSC/osekdefs.o (osek_isr_e_NewISR)
OSC/TaskISRArchive.a(NewISR1.o)
                              OSC/osekdefs.o (osek_isr_e_NewISR1)
C:/ETAS/Compiler/INTECRIO4.7/QNXCompiler-V6.5\host\win32\x86/usr/lib/gcc/powerpc-unknown-nto-qnx6.5.0/4.4.2/spe/libgcc.a(_fixunsdfdi.o)
                              ROOT_instances.o (__fixunsdfdi)
C:/ETAS/Compiler/INTECRIO4.7/QNXCompiler-V6.5\host\win32\x86/usr/lib/gcc/powerpc-unknown-nto-qnx6.5.0/4.4.2/spe/libgcc.a(_floatundidf.o)
                              ROOT_instances.o (__floatundidf)
C:\Program Files (x86)\ETAS\INTECRIO4.7\Target\Etarget\ES910\libes910.a(i_rtautil.o)
                              ROOT_instances.o (os_dT)
C:\Program Files (x86)\ETAS\INTECRIO4.7\Target\Etarget\ES910\libes910.a(t_driverThreads.o)
                              OSC/DriverThreads.o (etasSetNumberOfDriverThreads)
C:\Program Files (x86)\ETAS\INTECRIO4.7\Target\Etarget\ES910\libes910.a(t_idle.o)
                              C:\Program Files (x86)\ETAS\INTECRIO4.7\Target\Etarget\ES910\libes910.a(i_rtautil.o) (signalShutdownHookTermination)
C:\Program Files (x86)\ETAS\INTECRIO4.7\Target\Etarget\ES910\libes910.a(t_l1com.o)
                              C:\Program Files (x86)\ETAS\INTECRIO4.7\Target\Etarget\ES910\libes910.a(i_rtautil.o) (l1SetBusyState)
C:\Program Files (x86)\ETAS\INTECRIO4.7\Target\Etarget\ES910\libes910.a(t_main.o)
                              C:/ETAS/Compiler/INTECRIO4.7/QNXCompiler-V6.5\target\qnx6/ppcbe-spe/lib/crt1.o (main)
C:\Program Files (x86)\ETAS\INTECRIO4.7\Target\Etarget\ES910\libes910.a(t_mlog.o)
                              C:\Program Files (x86)\ETAS\INTECRIO4.7\Target\Etarget\ES910\libes910.a(i_rtautil.o) (getDrvLogChan)
C:\Program Files (x86)\ETAS\INTECRIO4.7\Target\Etarget\ES910\libes910.a(t_qnxtargetutil.o)
                              C:\Program Files (x86)\ETAS\INTECRIO4.7\Target\Etarget\ES910\libes910.a(t_main.o) (qnxSetBootFromFlash)
C:\Program Files (x86)\ETAS\INTECRIO4.7\Target\Etarget\ES910\libes910.a(t_targetutil.o)
                              ROOT_instances.o (GetSystemTimeLow)
C:\Program Files (x86)\ETAS\INTECRIO4.7\Target\Etarget\ES910\libes910.a(t_watchdog.o)
                              C:\Program Files (x86)\ETAS\INTECRIO4.7\Target\Etarget\ES910\libes910.a(t_main.o) (wdSetApplicationName)
C:\Program Files (x86)\ETAS\INTECRIO4.7\Target\Etarget\ES910\libes910.a(p_chario.o)
                              C:\Program Files (x86)\ETAS\INTECRIO4.7\Target\Etarget\ES910\libes910.a(t_main.o) (IOLogOn)
C:\Program Files (x86)\ETAS\INTECRIO4.7\Target\Etarget\ES910\libes910.a(t_hwTimeSync.o)
                              C:\Program Files (x86)\ETAS\INTECRIO4.7\Target\Etarget\ES910\libes910.a(t_main.o) (es9xxTimeSyncInit)
C:\Program Files (x86)\ETAS\INTECRIO4.7\Target\Etarget\ES910\libes910.a(t_led.o)
                              C:\Program Files (x86)\ETAS\INTECRIO4.7\Target\Etarget\ES910\libes910.a(t_main.o) (ledsOff)
C:\Program Files (x86)\ETAS\INTECRIO4.7\Target\Etarget\ES910\libtarget.a(a_dacqui.o)
                              C:\Program Files (x86)\ETAS\INTECRIO4.7\Target\Etarget\ES910\libes910.a(i_rtautil.o) (getLogSimulationTime)
C:\Program Files (x86)\ETAS\INTECRIO4.7\Target\Etarget\ES910\libtarget.a(a_l1pro.o)
                              C:\Program Files (x86)\ETAS\INTECRIO4.7\Target\Etarget\ES910\libes910.a(t_l1com.o) (forwardToProcess)
C:\Program Files (x86)\ETAS\INTECRIO4.7\Target\Etarget\ES910\libtarget.a(a_primit.o)
                              C:\Program Files (x86)\ETAS\INTECRIO4.7\Target\Etarget\ES910\libtarget.a(a_dacqui.o) (getBasicType)
C:\Program Files (x86)\ETAS\INTECRIO4.7\Target\Etarget\ES910\libtarget.a(a_sysver.o)
                              C:\Program Files (x86)\ETAS\INTECRIO4.7\Target\Etarget\ES910\libes910.a(t_l1com.o) (getSystemLibCid)
C:\Program Files (x86)\ETAS\INTECRIO4.7\Target\Etarget\ES910\libtarget.a(a_targma.o)
                              C:\Program Files (x86)\ETAS\INTECRIO4.7\Target\Etarget\ES910\libes910.a(t_main.o) (setTargetL1BufferSize)
C:\Program Files (x86)\ETAS\INTECRIO4.7\Target\Etarget\ES910\libtarget.a(i_cpyfnc.o)
                              CBC/CopyFunctionTable.o (copyPlainToFloat)
C:\Program Files (x86)\ETAS\INTECRIO4.7\Target\Etarget\ES910\libtarget.a(i_mapfnc.o)
                              ETC/MappingFunctionTable.o (var2BufGenFrameMotorolaReal32)
C:\Program Files (x86)\ETAS\INTECRIO4.7\Target\Etarget\ES910\libtarget.a(i_osman.o)
                              OSC/osc_dyn.o (etasInitOsProcess)
C:\Program Files (x86)\ETAS\INTECRIO4.7\Target\Etarget\ES910\libtarget.a(i_rtioma.o)
                              C:\Program Files (x86)\ETAS\INTECRIO4.7\Target\Etarget\ES910\libes910.a(t_main.o) (rtioSetLogPort)
C:\Program Files (x86)\ETAS\INTECRIO4.7\Target\Etarget\ES910\libtarget.a(i_salone.o)
                              C:\Program Files (x86)\ETAS\INTECRIO4.7\Target\Etarget\ES910\libtarget.a(i_osman.o) (playbackConfigL1Records)
C:\Program Files (x86)\ETAS\INTECRIO4.7\Target\Etarget\ES910\libtarget.a(t_croman.o)
                              C:\Program Files (x86)\ETAS\INTECRIO4.7\Target\Etarget\ES910\libes910.a(t_main.o) (crossbarSetLogPort)
C:\Program Files (x86)\ETAS\INTECRIO4.7\Target\Etarget\ES910\libtarget.a(t_nvram.o)
                              C:\Program Files (x86)\ETAS\INTECRIO4.7\Target\Etarget\ES910\libes910.a(t_idle.o) (nvramUpdateMemoryBackground)
C:\Program Files (x86)\ETAS\INTECRIO4.7\Target\Etarget\ES910\libtarget.a(t_objlis.o)
                              C:\Program Files (x86)\ETAS\INTECRIO4.7\Target\Etarget\ES910\libtarget.a(t_nvram.o) (createObjList)
C:\Program Files (x86)\ETAS\INTECRIO4.7\Target\Etarget\ES910\libtarget.a(t_rtcros.o)
                              C:\Program Files (x86)\ETAS\INTECRIO4.7\Target\Etarget\ES910\libes910.a(t_main.o) (rtcrosSetLogPort)
C:\Program Files (x86)\ETAS\INTECRIO4.7\Target\Etarget\ES910\libtarget.a(t_sgman.o)
                              OSC/TaskISRArchive.a(etasConfigTask.o) (sgHook)
C:\Program Files (x86)\ETAS\INTECRIO4.7\Target\Etarget\ES910\libtarget.a(y_primit.o)
                              Racing_Mode_ETR070/Racing_Mode_ETR07_instances.o (initInstance_vectorWrapper)
C:\Program Files (x86)\ETAS\INTECRIO4.7\Target\Etarget\ES910\libtarget.a(a1b_dacq.o)
                              C:\Program Files (x86)\ETAS\INTECRIO4.7\Target\Etarget\ES910\libtarget.a(a_dacqui.o) (storeA1bDataForGroup)
C:\Program Files (x86)\ETAS\INTECRIO4.7\Target\Etarget\ES910\libtarget.a(a_contai.o)
                              C:\Program Files (x86)\ETAS\INTECRIO4.7\Target\Etarget\ES910\libtarget.a(i_rtioma.o) (dListRewindHead)
C:\Program Files (x86)\ETAS\INTECRIO4.7\Target\Etarget\ES910\libtarget.a(t_sglow.o)
                              C:\Program Files (x86)\ETAS\INTECRIO4.7\Target\Etarget\ES910\libtarget.a(t_sgman.o) (getChannelNr)
C:\Program Files (x86)\ETAS\INTECRIO4.7\Target\Etarget\rtio\global\es910\librtio_gnu.a(comm_err.o)
                              C:\Program Files (x86)\ETAS\INTECRIO4.7\Target\Etarget\ES910\libtarget.a(i_rtioma.o) (commErrMessages)
C:\Program Files (x86)\ETAS\INTECRIO4.7\Target\Etarget\rtio\global\es910\librtio_gnu.a(p_rtio.o)
                              C:\Program Files (x86)\ETAS\INTECRIO4.7\Target\Etarget\ES910\libes910.a(t_main.o) (rtioSignalHwAccessEnd)
C:\Program Files (x86)\ETAS\INTECRIO4.7\Target\Etarget\rtio\global\es910\librtio_gnu.a(p_rtio_s.o)
                              C:\Program Files (x86)\ETAS\INTECRIO4.7\Target\Etarget\ES910\libes910.a(t_hwTimeSync.o) (es910RtioGetFpgaRegsGlobal)
C:\Program Files (x86)\ETAS\INTECRIO4.7\Target\Etarget\rtio\global\es910\librtio_gnu.a(rtio_err.o)
                              C:\Program Files (x86)\ETAS\INTECRIO4.7\Target\Etarget\ES910\libtarget.a(i_rtioma.o) (installCommErrMessages)
C:\Program Files (x86)\ETAS\INTECRIO4.7\Target\Etarget\ES910\rta_osek\librtk_s.a(ostarget.o)
                              C:\Program Files (x86)\ETAS\INTECRIO4.7\Target\Etarget\ES910\libes910.a(t_watchdog.o) (os_get_sw_int_info)
C:\Program Files (x86)\ETAS\INTECRIO4.7\Target\Etarget\ES910\rta_osek\librtk_s.a(osfptgt.o)
                              OSC/osekdefs.o (os_fp_save)
C:\Program Files (x86)\ETAS\INTECRIO4.7\Target\Etarget\ES910\rta_osek\librtk_s.a(osiwrap1.o)
                              C:\Program Files (x86)\ETAS\INTECRIO4.7\Target\Etarget\ES910\rta_osek\librtk_s.a(ostarget.o) (os_cat1_wrapper)
C:\Program Files (x86)\ETAS\INTECRIO4.7\Target\Etarget\ES910\rta_osek\librtk_s.a(osxdspnf.o)
                              OSC/osekdefs.o (osek_dispatchN2F)
C:\Program Files (x86)\ETAS\INTECRIO4.7\Target\Etarget\ES910\rta_osek\librtk_s.a(osysd1hf.o)
                              OSC/osekdefs.o (os_fdispH1)
C:\Program Files (x86)\ETAS\INTECRIO4.7\Target\Etarget\ES910\rta_osek\librtk_s.a(osysdfhf.o)
                              OSC/osekdefs.o (os_fdispH2F)
C:\Program Files (x86)\ETAS\INTECRIO4.7\Target\Etarget\ES910\rta_osek\librtk_s.a(osysdfhi.o)
                              OSC/osekdefs.o (os_idispH2F)
C:\Program Files (x86)\ETAS\INTECRIO4.7\Target\Etarget\ES910\rta_osek\librtk_s.a(ostgid.o)
                              C:\Program Files (x86)\ETAS\INTECRIO4.7\Target\Etarget\ES910\libes910.a(i_rtautil.o) (GetTaskID)
C:\Program Files (x86)\ETAS\INTECRIO4.7\Target\Etarget\ES910\rta_osek\librtk_s.a(ostschf.o)
                              OSC/i_rtawrapper.o (ScheduleSW2F)
C:\Program Files (x86)\ETAS\INTECRIO4.7\Target\Etarget\ES910\rta_osek\librtk_s.a(osieai.o)
                              C:\Program Files (x86)\ETAS\INTECRIO4.7\Target\Etarget\ES910\libtarget.a(i_rtioma.o) (EnableAllInterrupts)
C:\Program Files (x86)\ETAS\INTECRIO4.7\Target\Etarget\ES910\rta_osek\librtk_s.a(osidai.o)
                              C:\Program Files (x86)\ETAS\INTECRIO4.7\Target\Etarget\ES910\libtarget.a(i_rtioma.o) (DisableAllInterrupts)
C:\Program Files (x86)\ETAS\INTECRIO4.7\Target\Etarget\ES910\rta_osek\librtk_s.a(osisoi.o)
                              OSC/osekdefs.o (SuspendOSInterrupts)
C:\Program Files (x86)\ETAS\INTECRIO4.7\Target\Etarget\ES910\rta_osek\librtk_s.a(osirai.o)
                              C:\Program Files (x86)\ETAS\INTECRIO4.7\Target\Etarget\ES910\libes910.a(i_rtautil.o) (ResumeAllInterrupts)
C:\Program Files (x86)\ETAS\INTECRIO4.7\Target\Etarget\ES910\rta_osek\librtk_s.a(osisai.o)
                              C:\Program Files (x86)\ETAS\INTECRIO4.7\Target\Etarget\ES910\libes910.a(i_rtautil.o) (SuspendAllInterrupts)
C:\Program Files (x86)\ETAS\INTECRIO4.7\Target\Etarget\ES910\rta_osek\librtk_s.a(osxperr2.o)
                              OSC/osekdefs.o (os_pre_errorhook2)
C:\Program Files (x86)\ETAS\INTECRIO4.7\Target\Etarget\ES910\rta_osek\librtk_s.a(osxglobs.o)
                              C:\Program Files (x86)\ETAS\INTECRIO4.7\Target\Etarget\ES910\rta_osek\librtk_s.a(osxperr2.o) (osek_in_error_hook)
C:\Program Files (x86)\ETAS\INTECRIO4.7\Target\Etarget\ES910\rta_osek\librtk_s.a(osostart.o)
                              C:\Program Files (x86)\ETAS\INTECRIO4.7\Target\Etarget\ES910\libes910.a(i_rtautil.o) (StartOS)
C:\Program Files (x86)\ETAS\INTECRIO4.7\Target\Etarget\ES910\rta_osek\librtk_s.a(ososhuth.o)
                              OSC/i_rtawrapper.o (ShutdownOSH)
C:\Program Files (x86)\ETAS\INTECRIO4.7\Target\Etarget\ES910\rta_osek\librtk_s.a(osttermh.o)
                              OSC/TaskISRArchive.a(etasConfigTask.o) (TerminateTaskH)
C:\Program Files (x86)\ETAS\INTECRIO4.7\Target\Etarget\ES910\rta_osek\librtk_s.a(ostactsf.o)
                              OSC/i_rtawrapper.o (ActivateTaskSW2F)
C:\Program Files (x86)\ETAS\INTECRIO4.7\Target\Etarget\ES910\rta_osek\librtk_s.a(ostactnf.o)
                              OSC/etasL1Isr.o (ActivateTaskNS2F)
C:\Program Files (x86)\ETAS\INTECRIO4.7\Target\Etarget\ES910\rta_osek\librtk_s.a(osatickn.o)
                              OSC/osekdefs.o (osek_tick_alarm)
C:\Program Files (x86)\ETAS\INTECRIO4.7\Target\Etarget\ES910\rta_osek\librtk_s.a(osacallb.o)
                              OSC/osekdefs.o (osek_alarm_callback)
C:\Program Files (x86)\ETAS\INTECRIO4.7\Target\Etarget\ES910\rta_osek\librtk_s.a(osxdpsho.o)
                              C:\Program Files (x86)\ETAS\INTECRIO4.7\Target\Etarget\ES910\rta_osek\librtk_s.a(osysdfhf.o) (os_pre_ShutdownOS)
C:\Program Files (x86)\ETAS\INTECRIO4.7\Target\Etarget\ES910\rta_osek\librtk_s.a(osiwrap.o)
                              C:\Program Files (x86)\ETAS\INTECRIO4.7\Target\Etarget\ES910\rta_osek\librtk_s.a(ostarget.o) (os_wrapper)
C:\Program Files (x86)\ETAS\INTECRIO4.7\Target\Etarget\ES910\rta_osek\librtk_s.a(osxjmp.o)
                              C:\Program Files (x86)\ETAS\INTECRIO4.7\Target\Etarget\ES910\rta_osek\librtk_s.a(osysd1hf.o) (os_setjmp)
C:\Program Files (x86)\ETAS\INTECRIO4.7\Target\Etarget\ES910\rta_osek\librtk_s.a(ososhutn.o)
                              C:\Program Files (x86)\ETAS\INTECRIO4.7\Target\Etarget\ES910\rta_osek\librtk_s.a(osxdpsho.o) (ShutdownOSN)
C:\Program Files (x86)\ETAS\INTECRIO4.7\Target\Etarget\ES910\libcommon.a(p_execl1.o)
                              C:\Program Files (x86)\ETAS\INTECRIO4.7\Target\Etarget\ES910\libtarget.a(a_targma.o) (getNumberOfMethods)
C:\Program Files (x86)\ETAS\INTECRIO4.7\Target\Etarget\ES910\libcommon.a(p_protl1.o)
                              C:\Program Files (x86)\ETAS\INTECRIO4.7\Target\Etarget\ES910\libes910.a(t_l1com.o) (newL1Message)
C:\Program Files (x86)\ETAS\INTECRIO4.7\Target\Etarget\ES910\libcommon.a(p_stdeb.o)
                              C:\Program Files (x86)\ETAS\INTECRIO4.7\Target\Etarget\ES910\libtarget.a(a_targma.o) (asdClearString)
Accel_Data_ETR071/Accel_Data_ETR071.a(Accel_Data_ETR07_main.o)
                              OSC/osc_dyn.o (irt_Terminate_Accel_Data_ETR07)
Accel_Data_ETR071/Accel_Data_ETR071.a(rt_sim.o)
                              Accel_Data_ETR071/Accel_Data_ETR071.a(Accel_Data_ETR07_main.o) (rt_SimInitTimingEngine_Accel_Data_ETR07)
Car_State_ETR071/Car_State_ETR071.a(Car_State_ETR07_main.o)
                              OSC/osc_dyn.o (irt_Terminate_Car_State_ETR07)
Car_State_ETR071/Car_State_ETR071.a(rt_sim.o)
                              Car_State_ETR071/Car_State_ETR071.a(Car_State_ETR07_main.o) (rt_SimInitTimingEngine_Car_State_ETR07)
Disconnections_ETR071/Disconnections_ETR071.a(Disconnections_ETR07_main.o)
                              OSC/osc_dyn.o (irt_Terminate_Disconnections_ETR07)
Disconnections_ETR071/Disconnections_ETR071.a(rt_sim.o)
                              Disconnections_ETR071/Disconnections_ETR071.a(Disconnections_ETR07_main.o) (rt_SimInitTimingEngine_Disconnections_ETR07)
inverters_action_ETR071/inverters_action_ETR071.a(inverters_action_ETR07_main.o)
                              OSC/osc_dyn.o (irt_Terminate_inverters_action_ETR07)
inverters_action_ETR071/inverters_action_ETR071.a(rt_sim.o)
                              inverters_action_ETR071/inverters_action_ETR071.a(inverters_action_ETR07_main.o) (rt_SimInitTimingEngine_inverters_action_ETR07)
Inverters_Data_ETR071/Inverters_Data_ETR071.a(Inverters_Data_ETR07_main.o)
                              OSC/osc_dyn.o (irt_Terminate_Inverters_Data_ETR07)
Inverters_Data_ETR071/Inverters_Data_ETR071.a(rt_sim.o)
                              Inverters_Data_ETR071/Inverters_Data_ETR071.a(Inverters_Data_ETR07_main.o) (rt_SimInitTimingEngine_Inverters_Data_ETR07)
Pedals_Susp_Sensors_ETR071/Pedals_Susp_Sensors_ETR071.a(Pedals_Susp_Sensors_ETR07_main.o)
                              OSC/osc_dyn.o (irt_Terminate_Pedals_Susp_Sensors_ETR07)
Pedals_Susp_Sensors_ETR071/Pedals_Susp_Sensors_ETR071.a(rt_sim.o)
                              Pedals_Susp_Sensors_ETR071/Pedals_Susp_Sensors_ETR071.a(Pedals_Susp_Sensors_ETR07_main.o) (rt_SimInitTimingEngine_Pedals_Susp_Sensors_ETR07)
Racing_Mode_ETR071/Racing_Mode_ETR071.a(Racing_Mode_ETR07_main.o)
                              OSC/osc_dyn.o (irt_Terminate_Racing_Mode_ETR07)
Racing_Mode_ETR071/Racing_Mode_ETR071.a(rt_sim.o)
                              Racing_Mode_ETR071/Racing_Mode_ETR071.a(Racing_Mode_ETR07_main.o) (rt_SimInitTimingEngine_Racing_Mode_ETR07)
Synchronism_ETR071/Synchronism_ETR071.a(Synchronism_ETR07_main.o)
                              OSC/osc_dyn.o (irt_Terminate_Synchronism_ETR07)
Synchronism_ETR071/Synchronism_ETR071.a(rt_sim.o)
                              Synchronism_ETR071/Synchronism_ETR071.a(Synchronism_ETR07_main.o) (rt_SimInitTimingEngine_Synchronism_ETR07)
Torque_Control_ETR071/Torque_Control_ETR071.a(Torque_Control_ETR07_main.o)
                              OSC/osc_dyn.o (irt_Terminate_Torque_Control_ETR07)
Torque_Control_ETR071/Torque_Control_ETR071.a(rt_sim.o)
                              Torque_Control_ETR071/Torque_Control_ETR071.a(Torque_Control_ETR07_main.o) (rt_SimInitTimingEngine_Torque_Control_ETR07)
C:/Program Files (x86)/ETAS/INTECRIO4.7/Target/ETarget/rtio/es9xxcan/ES910/es9xxCan_gnu.lib(es9xxCan.o)
                              ETC/DriverTable.o (CanIRQ0MultiAnalyze)
C:/Program Files (x86)/ETAS/INTECRIO4.7/Target/ETarget/rtio/es9xxcan/ES910/es9xxCan_gnu.lib(es9xxCanCanio.o)
                              C:/Program Files (x86)/ETAS/INTECRIO4.7/Target/ETarget/rtio/es9xxcan/ES910/es9xxCan_gnu.lib(es9xxCan.o) (es9xxCanCanioExit)
C:/Program Files (x86)/ETAS/INTECRIO4.7/Target/ETarget/rtio/es9xxcan/ES910/es9xxCan_gnu.lib(es9xxCanErr.o)
                              C:/Program Files (x86)/ETAS/INTECRIO4.7/Target/ETarget/rtio/es9xxcan/ES910/es9xxCan_gnu.lib(es9xxCan.o) (es9xxCanErrMessages)
C:/Program Files (x86)/ETAS/INTECRIO4.7/Target/ETarget/rtio/es9xxcan/ES910/es9xxCan_gnu.lib(es9xxCanHalBuf.o)
                              C:/Program Files (x86)/ETAS/INTECRIO4.7/Target/ETarget/rtio/es9xxcan/ES910/es9xxCan_gnu.lib(es9xxCan.o) (es9xxCanHalBufIrqAck)
C:/Program Files (x86)/ETAS/INTECRIO4.7/Target/ETarget/rtio/es9xxcan/ES910/es9xxCan_gnu.lib(es9xxCanHalIfi.o)
                              C:/Program Files (x86)/ETAS/INTECRIO4.7/Target/ETarget/rtio/es9xxcan/ES910/es9xxCan_gnu.lib(es9xxCan.o) (es9xxCanHalIfiDetectHW)
C:/ETAS/Compiler/INTECRIO4.7/QNXCompiler-V6.5\host\win32\x86/usr/lib/gcc/powerpc-unknown-nto-qnx6.5.0/4.4.2/spe/libgcc.a(_floatdidf.o)
                              C:\Program Files (x86)\ETAS\INTECRIO4.7\Target\Etarget\ES910\libtarget.a(i_mapfnc.o) (__floatdidf)
C:\Program Files (x86)\ETAS\INTECRIO4.7\Target\Etarget\ES910\libes910.a(t_dataset.o)
                              C:\Program Files (x86)\ETAS\INTECRIO4.7\Target\Etarget\ES910\libtarget.a(a_targma.o) (dsetGetErrorString)
C:\Program Files (x86)\ETAS\INTECRIO4.7\Target\Etarget\ES910\libtarget.a(a_crc32.o)
                              C:\Program Files (x86)\ETAS\INTECRIO4.7\Target\Etarget\ES910\libes910.a(t_dataset.o) (crc32Init)

Allocating common symbols
Common symbol       size              file

os_stack_base       0x4               C:\Program Files (x86)\ETAS\INTECRIO4.7\Target\Etarget\ES910\rta_osek\librtk_s.a(ostarget.o)
ptrthread6Dtm       0x4               OSC/DriverThreads.o
ptrthread17Dtm      0x4               OSC/DriverThreads.o
os_highest_sigmask  0x8               C:\Program Files (x86)\ETAS\INTECRIO4.7\Target\Etarget\ES910\rta_osek\librtk_s.a(ostarget.o)
osek_suspend_all_prev
                    0x4               C:\Program Files (x86)\ETAS\INTECRIO4.7\Target\Etarget\ES910\rta_osek\librtk_s.a(osisai.o)
ptrthread12Dtm      0x4               OSC/DriverThreads.o
ptrthread24Dtm      0x4               OSC/DriverThreads.o
ptrthread30Dtm      0x4               OSC/DriverThreads.o
ptrthread32Dtm      0x4               OSC/DriverThreads.o
ptrthread19Dtm      0x4               OSC/DriverThreads.o
Accel_Data_ETR07_B  0x48              Accel_Data_ETR071/Accel_Data_ETR071.a(Accel_Data_ETR07.o)
ptrthread4Dtm       0x4               OSC/DriverThreads.o
os_os_sigmask       0x8               C:\Program Files (x86)\ETAS\INTECRIO4.7\Target\Etarget\ES910\rta_osek\librtk_s.a(ostarget.o)
os_user_sigmask     0x8               C:\Program Files (x86)\ETAS\INTECRIO4.7\Target\Etarget\ES910\rta_osek\librtk_s.a(ostarget.o)
ptrthread10Dtm      0x4               OSC/DriverThreads.o
ptrthreadEtasL1TaskDtm
                    0x4               OSC/DriverThreads.o
Pedals_Susp_Sensors_ETR07_Y
                    0x40              Pedals_Susp_Sensors_ETR071/Pedals_Susp_Sensors_ETR071.a(Pedals_Susp_Sensors_ETR07.o)
osek_suspend_prev   0x4               C:\Program Files (x86)\ETAS\INTECRIO4.7\Target\Etarget\ES910\rta_osek\librtk_s.a(osisoi.o)
rtInfF              0x4               matlabsharedR2017b/matlabsharedR2017b.a(rt_nonfinite.o)
Car_State_ETR07_M_  0x230             Car_State_ETR071/Car_State_ETR071.a(Car_State_ETR07.o)
LVD_Data_ETR07_DW   0x10              LVD_Data_ETR071/LVD_Data_ETR071.a(LVD_Data_ETR07.o)
Disconnections_ETR07_B
                    0x38              Disconnections_ETR071/Disconnections_ETR071.a(Disconnections_ETR07.o)
ptrthread9Dtm       0x4               OSC/DriverThreads.o
LVD_Data_ETR07_U    0x8               LVD_Data_ETR071/LVD_Data_ETR071.a(LVD_Data_ETR07.o)
rtaOsekThreadPrio   0x4               C:\Program Files (x86)\ETAS\INTECRIO4.7\Target\Etarget\ES910\libes910.a(t_main.o)
Car_State_ETR07_Y   0x58              Car_State_ETR071/Car_State_ETR071.a(Car_State_ETR07.o)
Car_State_ETR07_U   0xe8              Car_State_ETR071/Car_State_ETR071.a(Car_State_ETR07.o)
Racing_Mode_ETR07_M_
                    0x230             Racing_Mode_ETR071/Racing_Mode_ETR071.a(Racing_Mode_ETR07.o)
LVD_Data_ETR07_Y    0x8               LVD_Data_ETR071/LVD_Data_ETR071.a(LVD_Data_ETR07.o)
ptrthread15Dtm      0x4               OSC/DriverThreads.o
ptrthread7Dtm       0x4               OSC/DriverThreads.o
rtNaN               0x8               matlabsharedR2017b/matlabsharedR2017b.a(rt_nonfinite.o)
ptrthread29Dtm      0x4               OSC/DriverThreads.o
ptrthread1Dtm       0x4               OSC/DriverThreads.o
inverters_action_ETR07_DW
                    0x30              inverters_action_ETR071/inverters_action_ETR071.a(inverters_action_ETR07.o)
rtNaNF              0x4               matlabsharedR2017b/matlabsharedR2017b.a(rt_nonfinite.o)
ptrthread13Dtm      0x4               OSC/DriverThreads.o
ptrthread22Dtm      0x4               OSC/DriverThreads.o
Racing_Mode_ETR07_B
                    0xa0              Racing_Mode_ETR071/Racing_Mode_ETR071.a(Racing_Mode_ETR07.o)
ptrthread20Dtm      0x4               OSC/DriverThreads.o
Car_State_ETR07_DW  0x10              Car_State_ETR071/Car_State_ETR071.a(Car_State_ETR07.o)
ptrthread34Dtm      0x4               OSC/DriverThreads.o
Disconnections_ETR07_M_
                    0x230             Disconnections_ETR071/Disconnections_ETR071.a(Disconnections_ETR07.o)
Synchronism_ETR07_M_
                    0x230             Synchronism_ETR071/Synchronism_ETR071.a(Synchronism_ETR07.o)
Synchronism_ETR07_DW
                    0x8               Synchronism_ETR071/Synchronism_ETR071.a(Synchronism_ETR07.o)
rtMinusInf          0x8               matlabsharedR2017b/matlabsharedR2017b.a(rt_nonfinite.o)
rtInf               0x8               matlabsharedR2017b/matlabsharedR2017b.a(rt_nonfinite.o)
userS               0x100             C:\Program Files (x86)\ETAS\INTECRIO4.7\Target\Etarget\ES910\libtarget.a(a_primit.o)
ptrthread18Dtm      0x4               OSC/DriverThreads.o
ptrthreadEtasConfigTaskDtm
                    0x4               OSC/DriverThreads.o
Torque_Control_ETR07_X
                    0x8               Torque_Control_ETR071/Torque_Control_ETR071.a(Torque_Control_ETR07.o)
ptrthread27Dtm      0x4               OSC/DriverThreads.o
ptrthread25Dtm      0x4               OSC/DriverThreads.o
ptrthread11Dtm      0x4               OSC/DriverThreads.o
ptrthread3Dtm       0x4               OSC/DriverThreads.o
inverters_action_ETR07_B
                    0x5               inverters_action_ETR071/inverters_action_ETR071.a(inverters_action_ETR07.o)
ptrthread5Dtm       0x4               OSC/DriverThreads.o
Accel_Data_ETR07_M_
                    0x230             Accel_Data_ETR071/Accel_Data_ETR071.a(Accel_Data_ETR07.o)
ptrthread31Dtm      0x4               OSC/DriverThreads.o
rtMinusInfF         0x4               matlabsharedR2017b/matlabsharedR2017b.a(rt_nonfinite.o)
Disconnections_ETR07_U
                    0x88              Disconnections_ETR071/Disconnections_ETR071.a(Disconnections_ETR07.o)
inverters_action_ETR07_M_
                    0x230             inverters_action_ETR071/inverters_action_ETR071.a(inverters_action_ETR07.o)
Disconnections_ETR07_Y
                    0x90              Disconnections_ETR071/Disconnections_ETR071.a(Disconnections_ETR07.o)
os_dT               0x4               C:\Program Files (x86)\ETAS\INTECRIO4.7\Target\Etarget\ES910\libes910.a(i_rtautil.o)
ptrthread33Dtm      0x4               OSC/DriverThreads.o
ptrthreadEtasIsrDtm
                    0x4               OSC/DriverThreads.o
Torque_Control_ETR07_U
                    0x138             Torque_Control_ETR071/Torque_Control_ETR071.a(Torque_Control_ETR07.o)
os_current_ipl      0x4               C:\Program Files (x86)\ETAS\INTECRIO4.7\Target\Etarget\ES910\rta_osek\librtk_s.a(ostarget.o)
Disconnections_ETR07_DW
                    0x90              Disconnections_ETR071/Disconnections_ETR071.a(Disconnections_ETR07.o)
os_sigmasks         0x88              C:\Program Files (x86)\ETAS\INTECRIO4.7\Target\Etarget\ES910\rta_osek\librtk_s.a(ostarget.o)
ptrthread8Dtm       0x4               OSC/DriverThreads.o
ptrthread0Dtm       0x4               OSC/DriverThreads.o
osek_cur_mode       0x4               C:\Program Files (x86)\ETAS\INTECRIO4.7\Target\Etarget\ES910\rta_osek\librtk_s.a(osxglobs.o)
Pedals_Susp_Sensors_ETR07_M_
                    0x230             Pedals_Susp_Sensors_ETR071/Pedals_Susp_Sensors_ETR071.a(Pedals_Susp_Sensors_ETR07.o)
ptrthread2Dtm       0x4               OSC/DriverThreads.o
Accel_Data_ETR07_Y  0x50              Accel_Data_ETR071/Accel_Data_ETR071.a(Accel_Data_ETR07.o)
Inverters_Data_ETR07_Y
                    0xb8              Inverters_Data_ETR071/Inverters_Data_ETR071.a(Inverters_Data_ETR07.o)
etasResMgrIdT       0x4               C:\Program Files (x86)\ETAS\INTECRIO4.7\Target\Etarget\ES910\libes910.a(t_l1com.o)
Torque_Control_ETR07_Y
                    0x100             Torque_Control_ETR071/Torque_Control_ETR071.a(Torque_Control_ETR07.o)
ptrthread28Dtm      0x4               OSC/DriverThreads.o
ptrthread16Dtm      0x4               OSC/DriverThreads.o
Accel_Data_ETR07_U  0x40              Accel_Data_ETR071/Accel_Data_ETR071.a(Accel_Data_ETR07.o)
ptrthread23Dtm      0x4               OSC/DriverThreads.o
ptrthread14Dtm      0x4               OSC/DriverThreads.o
Synchronism_ETR07_Y
                    0x10              Synchronism_ETR071/Synchronism_ETR071.a(Synchronism_ETR07.o)
Torque_Control_ETR07_DW
                    0xd0              Torque_Control_ETR071/Torque_Control_ETR071.a(Torque_Control_ETR07.o)
osek_all_prev       0x4               C:\Program Files (x86)\ETAS\INTECRIO4.7\Target\Etarget\ES910\rta_osek\librtk_s.a(osidai.o)
os_serviceArgs      0xc               OSC/osekdefs.o
osek_running_task   0x4               C:\Program Files (x86)\ETAS\INTECRIO4.7\Target\Etarget\ES910\rta_osek\librtk_s.a(osxglobs.o)
Inverters_Data_ETR07_U
                    0x80              Inverters_Data_ETR071/Inverters_Data_ETR071.a(Inverters_Data_ETR07.o)
ptrthread21Dtm      0x4               OSC/DriverThreads.o
inverters_action_ETR07_U
                    0x18              inverters_action_ETR071/inverters_action_ETR071.a(inverters_action_ETR07.o)
Accel_Data_ETR07_DW
                    0x40              Accel_Data_ETR071/Accel_Data_ETR071.a(Accel_Data_ETR07.o)
Car_State_ETR07_B   0x8               Car_State_ETR071/Car_State_ETR071.a(Car_State_ETR07.o)
Torque_Control_ETR07_M_
                    0x298             Torque_Control_ETR071/Torque_Control_ETR071.a(Torque_Control_ETR07.o)
inverters_action_ETR07_Y
                    0x7               inverters_action_ETR071/inverters_action_ETR071.a(inverters_action_ETR07.o)
LVD_Data_ETR07_M_   0x230             LVD_Data_ETR071/LVD_Data_ETR071.a(LVD_Data_ETR07.o)
Torque_Control_ETR07_B
                    0x15f0            Torque_Control_ETR071/Torque_Control_ETR071.a(Torque_Control_ETR07.o)
Pedals_Susp_Sensors_ETR07_U
                    0x38              Pedals_Susp_Sensors_ETR071/Pedals_Susp_Sensors_ETR071.a(Pedals_Susp_Sensors_ETR07.o)
Inverters_Data_ETR07_M_
                    0x230             Inverters_Data_ETR071/Inverters_Data_ETR071.a(Inverters_Data_ETR07.o)
ptrthread26Dtm      0x4               OSC/DriverThreads.o
Racing_Mode_ETR07_Y
                    0x58              Racing_Mode_ETR071/Racing_Mode_ETR071.a(Racing_Mode_ETR07.o)
Racing_Mode_ETR07_U
                    0x18              Racing_Mode_ETR071/Racing_Mode_ETR071.a(Racing_Mode_ETR07.o)
os_serviceId        0x4               OSC/osekdefs.o

Memory Configuration

Name             Origin             Length             Attributes
*default*        0x00000000         0xffffffff

Linker script and memory map

LOAD C:/ETAS/Compiler/INTECRIO4.7/QNXCompiler-V6.5\target\qnx6/ppcbe-spe/lib/crt1.o
LOAD C:/ETAS/Compiler/INTECRIO4.7/QNXCompiler-V6.5\target\qnx6/ppcbe-spe/lib/crti.o
LOAD C:/ETAS/Compiler/INTECRIO4.7/QNXCompiler-V6.5\host\win32\x86/usr/lib/gcc/powerpc-unknown-nto-qnx6.5.0/4.4.2/spe/crtbegin.o
LOAD C:\ETAS\Compiler\INTECRIO4.7\QNXCompiler-V6.5\target\qnx6\ppcbe-spe\lib\gcc\4.4.2/libcpp.so
                0x00000000                PROVIDE (__stack, 0x0)
                0x00000000                PROVIDE (___stack, 0x0)
                0x48040000                PROVIDE (__executable_start, 0x48040000)
                0x480400f4                . = (0x48040000 + SIZEOF_HEADERS)

.interp         0x480400f4       0x14
 *(.interp)
 .interp        0x480400f4       0x14 C:/ETAS/Compiler/INTECRIO4.7/QNXCompiler-V6.5\target\qnx6/ppcbe-spe/lib/crt1.o

.note           0x48040110       0x18
 .note          0x48040110       0x18 C:/ETAS/Compiler/INTECRIO4.7/QNXCompiler-V6.5\target\qnx6/ppcbe-spe/lib/crtn.o

.note.gnu.build-id
 *(.note.gnu.build-id)

.hash           0x48040128      0x68c
 *(.hash)
 .hash          0x48040128      0x68c C:/ETAS/Compiler/INTECRIO4.7/QNXCompiler-V6.5\target\qnx6/ppcbe-spe/lib/crt1.o

.gnu.hash
 *(.gnu.hash)

.dynsym         0x480407b4      0xdc0
 *(.dynsym)
 .dynsym        0x480407b4      0xdc0 C:/ETAS/Compiler/INTECRIO4.7/QNXCompiler-V6.5\target\qnx6/ppcbe-spe/lib/crt1.o

.dynstr         0x48041574      0xb92
 *(.dynstr)
 .dynstr        0x48041574      0xb92 C:/ETAS/Compiler/INTECRIO4.7/QNXCompiler-V6.5\target\qnx6/ppcbe-spe/lib/crt1.o

.gnu.version    0x48042106      0x1b8
 *(.gnu.version)
 .gnu.version   0x48042106      0x1b8 C:/ETAS/Compiler/INTECRIO4.7/QNXCompiler-V6.5\target\qnx6/ppcbe-spe/lib/crt1.o

.gnu.version_d  0x480422c0        0x0 load address 0x480422be
 *(.gnu.version_d)
 .gnu.version_d
                0x00000000        0x0 C:/ETAS/Compiler/INTECRIO4.7/QNXCompiler-V6.5\target\qnx6/ppcbe-spe/lib/crt1.o

.gnu.version_r  0x480422c0       0x20
 *(.gnu.version_r)
 .gnu.version_r
                0x480422c0       0x20 C:/ETAS/Compiler/INTECRIO4.7/QNXCompiler-V6.5\target\qnx6/ppcbe-spe/lib/crt1.o

.rel.dyn
 *(.rel.init)
 *(.rel.text .rel.text.* .rel.gnu.linkonce.t.*)
 *(.rel.fini)
 *(.rel.rodata .rel.rodata.* .rel.gnu.linkonce.r.*)
 *(.rel.data.rel.ro* .rel.gnu.linkonce.d.rel.ro.*)
 *(.rel.data .rel.data.* .rel.gnu.linkonce.d.*)
 *(.rel.tdata .rel.tdata.* .rel.gnu.linkonce.td.*)
 *(.rel.tbss .rel.tbss.* .rel.gnu.linkonce.tb.*)
 *(.rel.ctors)
 *(.rel.dtors)
 *(.rel.got)
 *(.rel.sdata .rel.sdata.* .rel.gnu.linkonce.s.*)
 *(.rel.sbss .rel.sbss.* .rel.gnu.linkonce.sb.*)
 *(.rel.sdata2 .rel.sdata2.* .rel.gnu.linkonce.s2.*)
 *(.rel.sbss2 .rel.sbss2.* .rel.gnu.linkonce.sb2.*)
 *(.rel.bss .rel.bss.* .rel.gnu.linkonce.b.*)

.rela.dyn       0x480422e0       0x90
 *(.rela.init)
 *(.rela.text .rela.text.* .rela.gnu.linkonce.t.*)
 .rela.text     0x00000000        0x0 C:/ETAS/Compiler/INTECRIO4.7/QNXCompiler-V6.5\target\qnx6/ppcbe-spe/lib/crt1.o
 *(.rela.fini)
 *(.rela.rodata .rela.rodata.* .rela.gnu.linkonce.r.*)
 .rela.rodata   0x00000000        0x0 C:/ETAS/Compiler/INTECRIO4.7/QNXCompiler-V6.5\target\qnx6/ppcbe-spe/lib/crt1.o
 *(.rela.data .rela.data.* .rela.gnu.linkonce.d.*)
 .rela.data     0x00000000        0x0 C:/ETAS/Compiler/INTECRIO4.7/QNXCompiler-V6.5\target\qnx6/ppcbe-spe/lib/crt1.o
 *(.rela.tdata .rela.tdata.* .rela.gnu.linkonce.td.*)
 *(.rela.tbss .rela.tbss.* .rela.gnu.linkonce.tb.*)
 *(.rela.ctors)
 *(.rela.dtors)
 *(.rela.got)
 .rela.got      0x480422e0       0x30 C:/ETAS/Compiler/INTECRIO4.7/QNXCompiler-V6.5\target\qnx6/ppcbe-spe/lib/crt1.o
 *(.rela.got1)
 *(.rela.got2)
 *(.rela.sdata .rela.sdata.* .rela.gnu.linkonce.s.*)
 *(.rela.sbss .rela.sbss.* .rela.gnu.linkonce.sb.*)
 .rela.sbss     0x00000000        0x0 C:/ETAS/Compiler/INTECRIO4.7/QNXCompiler-V6.5\target\qnx6/ppcbe-spe/lib/crt1.o
 *(.rela.sdata2 .rela.sdata2.* .rela.gnu.linkonce.s2.*)
 *(.rela.sbss2 .rela.sbss2.* .rela.gnu.linkonce.sb2.*)
 *(.rela.bss .rela.bss.* .rela.gnu.linkonce.b.*)
 .rela.bss      0x48042310       0x60 C:/ETAS/Compiler/INTECRIO4.7/QNXCompiler-V6.5\target\qnx6/ppcbe-spe/lib/crt1.o
 .rela.os_pid   0x00000000        0x0 C:/ETAS/Compiler/INTECRIO4.7/QNXCompiler-V6.5\target\qnx6/ppcbe-spe/lib/crt1.o
 .rela.os_intvec
                0x00000000        0x0 C:/ETAS/Compiler/INTECRIO4.7/QNXCompiler-V6.5\target\qnx6/ppcbe-spe/lib/crt1.o

.rel.plt
 *(.rel.plt)

.rela.plt       0x48042370      0x900
 *(.rela.plt)
 .rela.plt      0x48042370      0x900 C:/ETAS/Compiler/INTECRIO4.7/QNXCompiler-V6.5\target\qnx6/ppcbe-spe/lib/crt1.o

.init           0x48042c70       0x24
 *(.init)
 .init          0x48042c70        0xc C:/ETAS/Compiler/INTECRIO4.7/QNXCompiler-V6.5\target\qnx6/ppcbe-spe/lib/crti.o
                0x48042c70                _init
 .init          0x48042c7c        0x4 C:/ETAS/Compiler/INTECRIO4.7/QNXCompiler-V6.5\host\win32\x86/usr/lib/gcc/powerpc-unknown-nto-qnx6.5.0/4.4.2/spe/crtbegin.o
 .init          0x48042c80        0x4 C:/ETAS/Compiler/INTECRIO4.7/QNXCompiler-V6.5\host\win32\x86/usr/lib/gcc/powerpc-unknown-nto-qnx6.5.0/4.4.2/spe/crtend.o
 .init          0x48042c84       0x10 C:/ETAS/Compiler/INTECRIO4.7/QNXCompiler-V6.5\target\qnx6/ppcbe-spe/lib/crtn.o

.text           0x48042c94    0x575a0
                0x48042c94                _btext = .
 *(.text .stub .text.* .gnu.linkonce.t.*)
 .text          0x48042c94      0x118 C:/ETAS/Compiler/INTECRIO4.7/QNXCompiler-V6.5\target\qnx6/ppcbe-spe/lib/crt1.o
                0x48042c94                _start
 .text          0x48042dac        0x0 C:/ETAS/Compiler/INTECRIO4.7/QNXCompiler-V6.5\target\qnx6/ppcbe-spe/lib/crti.o
 .text          0x48042dac      0x1b8 C:/ETAS/Compiler/INTECRIO4.7/QNXCompiler-V6.5\host\win32\x86/usr/lib/gcc/powerpc-unknown-nto-qnx6.5.0/4.4.2/spe/crtbegin.o
 .text          0x48042f64      0x24c ROOT_instances.o
                0x4804310c                initializeYukonModel
                0x48042fb4                getSystemTimeS
                0x48042f7c                getModelIdentificationString
                0x48042f90                getDeltaT
                0x48042f64                getIntecrioVersionNumber
                0x48043094                os_setDeltaT
                0x48042f88                getBuildEnvironment
                0x48042f70                getBuildEnvironmentVersion
 .text          0x480431b0        0x0 _INT_pid.pi.o
 .text          0x480431b0        0x8 userFuncProcessCanPayload.o
                0x480431b4                userCanTxHookV2
                0x480431b0                userCanRxHookV2
 .text          0x480431b8        0x8 userFuncProcessFlexRayPayload.o
                0x480431bc                userFlexRayPDURxHook
                0x480431b8                userFlexRayPDUTxHook
 .text          0x480431c0       0x60 OSC/i_rtawrapper.o
                0x48043200                rtaActivateTask
                0x480431e0                rtaSchedule
                0x480431c0                rtaShutdownOS
 .text          0x48043220      0x43c Accel_Data_ETR070/Accel_Data_ETR07_instances.o
                0x48043220                setDeltaT_Accel_Data_ETR07
                0x48043630                initModel_RTWTop_Accel_Data_ETR07
                0x480432c8                initClass_RTWTop_Accel_Data_ETR07
                0x48043280                initInstance_RTWTop_Accel_Data_ETR07
 .text          0x4804365c      0x4fc Accel_Data_ETR071/Accel_Data_ETR071.a(Accel_Data_ETR07.o)
                0x480439b8                Accel_Data_ETR07
                0x48043944                MdlStart_Accel_Data_ETR07
                0x480438c0                MdlUpdate_Accel_Data_ETR07
                0x480436a4                Accel_Data_ETR07_LowPass
                0x48043938                MdlInitializeSizes_Accel_Data_ETR07
                0x4804365c                Accel_Data__AccDataConversionFX
                0x480436f0                MdlOutputs_Accel_Data_ETR07
                0x48043690                Accel_Data_ETR07_LowPass_Start
                0x480439b4                MdlTerminate_Accel_Data_ETR07
                0x48043940                MdlInitialize_Accel_Data_ETR07
                0x4804393c                MdlInitializeSampleTimes_Accel_Data_ETR07
 .text          0x48043b58        0x0 Accel_Data_ETR071/Accel_Data_ETR071.a(Accel_Data_ETR07_data.o)
 .text          0x48043b58      0x564 Car_State_ETR070/Car_State_ETR07_instances.o
                0x48043c00                initClass_RTWTop_Car_State_ETR07
                0x48043b58                setDeltaT_Car_State_ETR07
                0x48044090                initModel_RTWTop_Car_State_ETR07
                0x48043bb8                initInstance_RTWTop_Car_State_ETR07
 .text          0x480440bc      0xcc8 Car_State_ETR071/Car_State_ETR071.a(Car_State_ETR07.o)
                0x48044158                MdlInitializeSizes_Car_State_ETR07
                0x48044160                MdlInitialize_Car_State_ETR07
                0x480440d4                Car_State_ETR07_Failure
                0x480440c8                Car_State_ETR07_FALSE
                0x480441bc                MdlTerminate_Car_State_ETR07
                0x480440e0                MdlUpdate_Car_State_ETR07
                0x48044164                MdlStart_Car_State_ETR07
                0x480441c0                Car_State_ETR07
                0x4804415c                MdlInitializeSampleTimes_Car_State_ETR07
                0x480440bc                Car_State_ETR07_TRUE
                0x4804432c                MdlOutputs_Car_State_ETR07
 .text          0x48044d84        0x0 Car_State_ETR071/Car_State_ETR071.a(Car_State_ETR07_data.o)
 .text          0x48044d84      0x908 Disconnections_ETR070/Disconnections_ETR07_instances.o
                0x48044d84                setDeltaT_Disconnections_ETR07
                0x48044de4                initInstance_RTWTop_Disconnections_ETR07
                0x48045660                initModel_RTWTop_Disconnections_ETR07
                0x48044e2c                initClass_RTWTop_Disconnections_ETR07
 .text          0x4804568c      0xdc0 Disconnections_ETR071/Disconnections_ETR071.a(Disconnections_ETR07.o)
                0x480462c4                Disconnections_ETR07
                0x480461dc                MdlStart_Disconnections_ETR07
                0x480462c0                MdlTerminate_Disconnections_ETR07
                0x4804568c                Disconnections_ET_Reset_counter
                0x480461d8                MdlInitialize_Disconnections_ETR07
                0x48045698                Disconnections_ET_Error_Counter
                0x480456d0                Disconnections_ETR07_Others
                0x480461d0                MdlInitializeSizes_Disconnections_ETR07
                0x480461d4                MdlInitializeSampleTimes_Disconnections_ETR07
                0x480456ec                MdlOutputs_Disconnections_ETR07
                0x480456ac                Disconnections_ETR07_CAN_OK
                0x48046158                MdlUpdate_Disconnections_ETR07
 .text          0x4804644c        0x0 Disconnections_ETR071/Disconnections_ETR071.a(Disconnections_ETR07_data.o)
 .text          0x4804644c      0x404 inverters_action_ETR070/inverters_action_ETR07_instances.o
                0x48046824                initModel_RTWTop_inverters_action_ETR07
                0x4804644c                setDeltaT_inverters_action_ETR07
                0x480464ac                initInstance_RTWTop_inverters_action_ETR07
                0x480464f4                initClass_RTWTop_inverters_action_ETR07
 .text          0x48046850      0xfa8 inverters_action_ETR071/inverters_action_ETR071.a(inverters_action_ETR07.o)
                0x4804687c                inverte_DisableDriveEnableDrive
                0x480469ac                MdlInitializeSampleTimes_inverters_action_ETR07
                0x480469a8                MdlInitializeSizes_inverters_action_ETR07
                0x480468f8                inverters_action_ETR07_bypass
                0x4804706c                MdlOutputs_inverters_action_ETR07
                0x48046914                MdlUpdate_inverters_action_ETR07
                0x48046850                inverters_actio_EnumerationDone
                0x48046d90                inverters_action_TorqueCommand0
                0x480469b0                MdlInitialize_inverters_action_ETR07
                0x48046908                inverters_acti_ResetEnumeration
                0x48046bb8                inverters_ac_RegisterEnumerator
                0x480468d4                inverters_acti_ActionnotDefined
                0x48046ef0                inverters_action__TorqueCommand
                0x480469b4                MdlStart_inverters_action_ETR07
                0x48046868                inverters_action_ET_Unsubscribe
                0x48046a18                MdlTerminate_inverters_action_ETR07
                0x48046a1c                inverters_action_ETR07
 .text          0x480477f8        0x0 inverters_action_ETR071/inverters_action_ETR071.a(inverters_action_ETR07_data.o)
 .text          0x480477f8      0x718 Inverters_Data_ETR070/Inverters_Data_ETR07_instances.o
                0x48047858                initInstance_RTWTop_Inverters_Data_ETR07
                0x48047ee4                initModel_RTWTop_Inverters_Data_ETR07
                0x480477f8                setDeltaT_Inverters_Data_ETR07
                0x480478a0                initClass_RTWTop_Inverters_Data_ETR07
 .text          0x48047f10      0x70c Inverters_Data_ETR071/Inverters_Data_ETR071.a(Inverters_Data_ETR07.o)
                0x48047f10                MdlUpdate_Inverters_Data_ETR07
                0x48047f98                MdlTerminate_Inverters_Data_ETR07
                0x48047f88                MdlInitializeSizes_Inverters_Data_ETR07
                0x48047f90                MdlInitialize_Inverters_Data_ETR07
                0x48047f8c                MdlInitializeSampleTimes_Inverters_Data_ETR07
                0x48047f9c                Inverters_Data_ETR07
                0x480480d8                MdlOutputs_Inverters_Data_ETR07
                0x48047f94                MdlStart_Inverters_Data_ETR07
 .text          0x4804861c        0x0 Inverters_Data_ETR071/Inverters_Data_ETR071.a(Inverters_Data_ETR07_data.o)
 .text          0x4804861c      0x210 LVD_Data_ETR070/LVD_Data_ETR07_instances.o
                0x4804867c                initInstance_RTWTop_LVD_Data_ETR07
                0x48048800                initModel_RTWTop_LVD_Data_ETR07
                0x480486c4                initClass_RTWTop_LVD_Data_ETR07
                0x4804861c                setDeltaT_LVD_Data_ETR07
 .text          0x4804882c      0x258 LVD_Data_ETR071/LVD_Data_ETR071.a(LVD_Data_ETR07.o)
                0x48048928                MdlStart_LVD_Data_ETR07
                0x48048950                LVD_Data_ETR07
                0x480488a4                MdlUpdate_LVD_Data_ETR07
                0x48048920                MdlInitializeSampleTimes_LVD_Data_ETR07
                0x48048924                MdlInitialize_LVD_Data_ETR07
                0x4804882c                MdlOutputs_LVD_Data_ETR07
                0x4804891c                MdlInitializeSizes_LVD_Data_ETR07
                0x4804894c                MdlTerminate_LVD_Data_ETR07
 .text          0x48048a84        0x0 LVD_Data_ETR071/LVD_Data_ETR071.a(LVD_Data_ETR07_data.o)
 .text          0x48048a84      0x444 Pedals_Susp_Sensors_ETR070/Pedals_Susp_Sensors_ETR07_instances.o
                0x48048e9c                initModel_RTWTop_Pedals_Susp_Sensors_ETR07
                0x48048a84                setDeltaT_Pedals_Susp_Sensors_ETR07
                0x48048b2c                initClass_RTWTop_Pedals_Susp_Sensors_ETR07
                0x48048ae4                initInstance_RTWTop_Pedals_Susp_Sensors_ETR07
 .text          0x48048ec8      0x358 Pedals_Susp_Sensors_ETR071/Pedals_Susp_Sensors_ETR071.a(Pedals_Susp_Sensors_ETR07.o)
                0x480490c4                Pedals_Susp_Sensors_ETR07
                0x480490b0                MdlInitializeSizes_Pedals_Susp_Sensors_ETR07
                0x480490b4                MdlInitializeSampleTimes_Pedals_Susp_Sensors_ETR07
                0x48049038                MdlUpdate_Pedals_Susp_Sensors_ETR07
                0x480490b8                MdlInitialize_Pedals_Susp_Sensors_ETR07
                0x48048ec8                MdlOutputs_Pedals_Susp_Sensors_ETR07
                0x480490c0                MdlTerminate_Pedals_Susp_Sensors_ETR07
                0x480490bc                MdlStart_Pedals_Susp_Sensors_ETR07
 .text          0x48049220        0x0 Pedals_Susp_Sensors_ETR071/Pedals_Susp_Sensors_ETR071.a(Pedals_Susp_Sensors_ETR07_data.o)
 .text          0x48049220      0x5a8 Racing_Mode_ETR070/Racing_Mode_ETR07_instances.o
                0x48049220                setDeltaT_Racing_Mode_ETR07
                0x4804979c                initModel_RTWTop_Racing_Mode_ETR07
                0x480492c8                initClass_RTWTop_Racing_Mode_ETR07
                0x48049280                initInstance_RTWTop_Racing_Mode_ETR07
 .text          0x480497c8      0xc00 Racing_Mode_ETR071/Racing_Mode_ETR071.a(Racing_Mode_ETR07.o)
                0x480499d8                MdlTerminate_Racing_Mode_ETR07
                0x480497c8                Racing_Mode_ETR0_WorkshopTest01
                0x48049874                MdlUpdate_Racing_Mode_ETR07
                0x4804981c                Racing_Mode_ET_SKF_Initial_Init
                0x48049828                Racing_Mode_ETR07_SKF_Initial
                0x48049858                Racing__Max_Regenerative_Torque
                0x480499dc                Racing_Mode_ETR07
                0x4804984c                Ra_Max_Regenerative_Torque_Init
                0x480498f4                MdlInitialize_Racing_Mode_ETR07
                0x480498f8                MdlStart_Racing_Mode_ETR07
                0x480498f0                MdlInitializeSampleTimes_Racing_Mode_ETR07
                0x480498ec                MdlInitializeSizes_Racing_Mode_ETR07
                0x48049b38                MdlOutputs_Racing_Mode_ETR07
 .text          0x4804a3c8        0x0 Racing_Mode_ETR071/Racing_Mode_ETR071.a(Racing_Mode_ETR07_data.o)
 .text          0x4804a3c8      0x1a8 Synchronism_ETR070/Synchronism_ETR07_instances.o
                0x4804a3c8                setDeltaT_Synchronism_ETR07
                0x4804a428                initInstance_RTWTop_Synchronism_ETR07
                0x4804a544                initModel_RTWTop_Synchronism_ETR07
                0x4804a470                initClass_RTWTop_Synchronism_ETR07
 .text          0x4804a570      0x218 Synchronism_ETR071/Synchronism_ETR071.a(Synchronism_ETR07.o)
                0x4804a668                Synchronism_ETR07
                0x4804a644                MdlInitialize_Synchronism_ETR07
                0x4804a648                MdlStart_Synchronism_ETR07
                0x4804a570                MdlOutputs_Synchronism_ETR07
                0x4804a5c4                MdlUpdate_Synchronism_ETR07
                0x4804a640                MdlInitializeSampleTimes_Synchronism_ETR07
                0x4804a63c                MdlInitializeSizes_Synchronism_ETR07
                0x4804a664                MdlTerminate_Synchronism_ETR07
 .text          0x4804a788        0x0 Synchronism_ETR071/Synchronism_ETR071.a(Synchronism_ETR07_data.o)
 .text          0x4804a788     0x22d8 Torque_Control_ETR070/Torque_Control_ETR07_instances.o
                0x4804a7e8                initInstance_RTWTop_Torque_Control_ETR07
                0x4804a788                setDeltaT_Torque_Control_ETR07
                0x4804a830                initClass_RTWTop_Torque_Control_ETR07
                0x4804ca34                initModel_RTWTop_Torque_Control_ETR07
 .text          0x4804ca60     0xd730 Torque_Control_ETR071/Torque_Control_ETR071.a(Torque_Control_ETR07.o)
                0x4804cd88                Torque_Contro_MATLABFunction_d1
                0x4804d440                rt_ODEUpdateContinuousStates_Torque_Control_ETR07
                0x4804cc58                Torque_Con_Acceleratorbehaviour
                0x4804d474                Torque_Control_ETR07
                0x4804d470                MdlTerminate_Torque_Control_ETR07
                0x4804cea4                Torque_Control_ETR07_derivatives
                0x4804cbb8                Torque_Control_ETR_minimumvalue
                0x4804d438                rt_ODECreateIntegrationData_Torque_Control_ETR07
                0x4804d6b0                Torque_Control_MATLABFunction_b
                0x4804d7ec                Torque_Control_ETR07_Spin
                0x4804ca6c                Torque_Control_ETR07_Is_Zero
                0x4804ca60                Torque_Control_ETR_LimitReached
                0x4804cafc                Torque_Contr_IfActionSubsystem2
                0x4804ce98                Torque_Control_ETR07_Temp_LIMIT
                0x4804ccf8                Torque__RegenerativeMechBraking
                0x48059be8                Torque_Control_ETR07_update
                0x4804d448                MdlInitializeSampleTimes_Torque_Control_ETR07
                0x4804d8f4                Torque_Control_MATLABFunction_m
                0x4804d6ec                Torque_Control_ETR07_Nospin
                0x4804cc08                Torque_Control_ET_minimumvalue1
                0x4804cb9c                Torque_Control_ETR07_IfAction2
                0x4805a170                MdlUpdate_Torque_Control_ETR07
                0x4804cab4                Torque_Control_ETR07_Negative
                0x4804d450                MdlStart_Torque_Control_ETR07
                0x4804cd38                Torque_Control__MATLABFunction1
                0x4804cd24                Torque_Control_ETR_Mech_Braking
                0x4804d984                Torque_Control_ETR07_output
                0x4804caf0                Torque_Control_ETR07_Imp
                0x4804cb08                Torque_Con_ControldeTemperatura
                0x4804d444                MdlInitializeSizes_Torque_Control_ETR07
                0x4804cf38                Torque_Control_ETR07_initialize
                0x4804d44c                MdlInitialize_Torque_Control_ETR07
                0x4804d8b8                Torque_Control_MATLABFunction_d
                0x4804cde0                Torque_Contro_MATLABFunction1_m
                0x4804d43c                rt_ODEDestroyIntegrationData_Torque_Control_ETR07
                0x4804d948                Torque_Control_E_MATLABFunction
                0x4804ce24                Torque_Co_ControldeTemperatura1
                0x4804cb80                Torque_Control_ETR07_IfAction1
                0x48059bc8                MdlOutputs_Torque_Control_ETR07
                0x4804d434                Torque_Control_ETR07_terminate
                0x4804ca88                Torque_Control_ETR07_Bypass
                0x4804d798                Torque_Contro_MATLABFunction_mt
                0x4804ce6c                Torque_Control_ETR07_else1
 .text          0x4805a190        0x0 Torque_Control_ETR071/Torque_Control_ETR071.a(Torque_Control_ETR07_data.o)
 .text          0x4805a190      0x168 matlabsharedR2017b/matlabsharedR2017b.a(rt_nonfinite.o)
                0x4805a264                rt_InitInfAndNaN
                0x4805a21c                rtIsNaN
                0x4805a248                rtIsNaNF
                0x4805a1dc                rtIsInfF
                0x4805a190                rtIsInf
 .text          0x4805a2f8      0x3a0 matlabsharedR2017b/matlabsharedR2017b.a(mldivide_u4svsr16.o)
                0x4805a2f8                mldivide_u4svSR16
 .text          0x4805a698      0x14c matlabsharedR2017b/matlabsharedR2017b.a(polyfit_vylrx3xp.o)
                0x4805a698                polyfit_vYlRX3XP
 .text          0x4805a7e4      0x2f4 matlabsharedR2017b/matlabsharedR2017b.a(rt_powd_snf.o)
                0x4805a7e4                rt_powd_snf
 .text          0x4805aad8      0x900 matlabsharedR2017b/matlabsharedR2017b.a(xgeqp3_bpnhoopt.o)
                0x4805aad8                xgeqp3_BPnHOoPT
 .text          0x4805b3d8      0x4c8 matlabsharedR2017b/matlabsharedR2017b.a(xgeqp3_wlxeyd7k.o)
                0x4805b3d8                xgeqp3_wlXEYd7k
 .text          0x4805b8a0      0x14c matlabsharedR2017b/matlabsharedR2017b.a(xnrm2_5mghfn4r.o)
                0x4805b8a0                xnrm2_5MGhfn4R
 .text          0x4805b9ec      0x14c matlabsharedR2017b/matlabsharedR2017b.a(xnrm2_ecih3nop.o)
                0x4805b9ec                xnrm2_eCIH3nOp
 .text          0x4805bb38      0x114 matlabsharedR2017b/matlabsharedR2017b.a(xnrm2_kgimahi2.o)
                0x4805bb38                xnrm2_KgImAhi2
 .text          0x4805bc4c      0x114 matlabsharedR2017b/matlabsharedR2017b.a(xnrm2_uobmrgas.o)
                0x4805bc4c                xnrm2_uObmRgAs
 .text          0x4805bd60       0xd0 matlabsharedR2017b/matlabsharedR2017b.a(rtgetinf.o)
                0x4805bd60                rtGetInf
                0x4805bdc8                rtGetMinusInf
                0x4805be24                rtGetMinusInfF
                0x4805bdbc                rtGetInfF
 .text          0x4805be30       0x84 matlabsharedR2017b/matlabsharedR2017b.a(rtgetnan.o)
                0x4805be90                rtGetNaNF
                0x4805be30                rtGetNaN
 .text          0x4805beb4      0x158 matlabsharedR2017b/matlabsharedR2017b.a(rt_hypotd_snf.o)
                0x4805beb4                rt_hypotd_snf
 .text          0x4805c00c      0x434 OSC/osekdefs.o
                0x4805c0cc                os_StartOS
                0x4805c1b8                os_pre_errorhook
                0x4805c1d8                Tick_etasCounter
                0x4805c30c                osek_dispatch
                0x4805c32c                osE_NewISR1
                0x4805c00c                osResetOS
                0x4805c388                osE_NewISR
                0x4805c3e4                osE_etasL1Isr
 .text          0x4805c440        0x0 OSC/osgen.o
 .text          0x4805c440       0x4c OSC/TaskISRArchive.a(etasConfigTask.o)
                0x4805c440                osek_task_e_etasConfigTask
 .text          0x4805c48c       0x68 OSC/TaskISRArchive.a(Sync_25ms.o)
                0x4805c48c                osek_task_e_Sync_25ms
 .text          0x4805c4f4       0x54 OSC/TaskISRArchive.a(Timer_1000ms.o)
                0x4805c4f4                osek_task_e_Timer_1000ms
 .text          0x4805c548       0x54 OSC/TaskISRArchive.a(Timer_100ms.o)
                0x4805c548                osek_task_e_Timer_100ms
 .text          0x4805c59c       0xa4 OSC/TaskISRArchive.a(Timer_25ms.o)
                0x4805c59c                osek_task_e_Timer_25ms
 .text          0x4805c640       0x6c OSC/TaskISRArchive.a(Timer_Inv.o)
                0x4805c640                osek_task_e_Timer_Inv
 .text          0x4805c6ac       0x50 OSC/TaskISRArchive.a(SWT_CAN1_AP_BMS_ChargerParameters.o)
                0x4805c6ac                osek_task_e_SWT_CAN1_AP_BMS_ChargerParameters
 .text          0x4805c6fc       0x50 OSC/TaskISRArchive.a(SWT_CAN1_AP_BMS_BatteryTemperatures.o)
                0x4805c6fc                osek_task_e_SWT_CAN1_AP_BMS_BatteryTemperatures
 .text          0x4805c74c       0x50 OSC/TaskISRArchive.a(SWT_CAN1_AP_BMS_AIRs_State.o)
                0x4805c74c                osek_task_e_SWT_CAN1_AP_BMS_AIRs_State
 .text          0x4805c79c       0x4c OSC/TaskISRArchive.a(SWT_CAN1_AP_BMS_Current_SOC_SOH.o)
                0x4805c79c                osek_task_e_SWT_CAN1_AP_BMS_Current_SOC_SOH
 .text          0x4805c7e8       0x50 OSC/TaskISRArchive.a(SWT_CAN1_AP_BMS_StateAndFailReport.o)
                0x4805c7e8                osek_task_e_SWT_CAN1_AP_BMS_StateAndFailReport
 .text          0x4805c838       0x50 OSC/TaskISRArchive.a(SWT_CAN1_AP_BMS_Voltages.o)
                0x4805c838                osek_task_e_SWT_CAN1_AP_BMS_Voltages
 .text          0x4805c888       0x4c OSC/TaskISRArchive.a(SWT_CAN1_AP_BMS_OnBoardTemperatures.o)
                0x4805c888                osek_task_e_SWT_CAN1_AP_BMS_OnBoardTemperatures
 .text          0x4805c8d4       0x50 OSC/TaskISRArchive.a(SWT_CAN1_AP_Inverter_R_Tx.o)
                0x4805c8d4                osek_task_e_SWT_CAN1_AP_Inverter_R_Tx
 .text          0x4805c924       0x50 OSC/TaskISRArchive.a(SWT_CAN1_AP_Inverter_L_Tx.o)
                0x4805c924                osek_task_e_SWT_CAN1_AP_Inverter_L_Tx
 .text          0x4805c974       0x50 OSC/TaskISRArchive.a(SWT_CAN1_AP_DASH_CustomMode.o)
                0x4805c974                osek_task_e_SWT_CAN1_AP_DASH_CustomMode
 .text          0x4805c9c4       0x50 OSC/TaskISRArchive.a(SWT_CAN1_AP_DASH_Mode.o)
                0x4805c9c4                osek_task_e_SWT_CAN1_AP_DASH_Mode
 .text          0x4805ca14       0x50 OSC/TaskISRArchive.a(SWT_CAN1_NM_BMS_Keep_Alive.o)
                0x4805ca14                osek_task_e_SWT_CAN1_NM_BMS_Keep_Alive
 .text          0x4805ca64       0x50 OSC/TaskISRArchive.a(SWT_CAN1_NM_DASH_Keep_Alive.o)
                0x4805ca64                osek_task_e_SWT_CAN1_NM_DASH_Keep_Alive
 .text          0x4805cab4       0x50 OSC/TaskISRArchive.a(SWT_CAN1_AP_DASH_TorqueLockOn.o)
                0x4805cab4                osek_task_e_SWT_CAN1_AP_DASH_TorqueLockOn
 .text          0x4805cb04       0x50 OSC/TaskISRArchive.a(SWT_CAN1_AP_DASH_PrechargeRequest.o)
                0x4805cb04                osek_task_e_SWT_CAN1_AP_DASH_PrechargeRequest
 .text          0x4805cb54       0x50 OSC/TaskISRArchive.a(SWT_CAN1_AP_DASH_EnableDrive.o)
                0x4805cb54                osek_task_e_SWT_CAN1_AP_DASH_EnableDrive
 .text          0x4805cba4       0x50 OSC/TaskISRArchive.a(SWT_CAN1_AP_SHUTDOWN_State.o)
                0x4805cba4                osek_task_e_SWT_CAN1_AP_SHUTDOWN_State
 .text          0x4805cbf4       0x50 OSC/TaskISRArchive.a(SWT_CAN1_NM_SHUTDOWN_Keep_Alive.o)
                0x4805cbf4                osek_task_e_SWT_CAN1_NM_SHUTDOWN_Keep_Alive
 .text          0x4805cc44       0x4c OSC/TaskISRArchive.a(SWT_CAN2_AP_LV_Derivation_LVData.o)
                0x4805cc44                osek_task_e_SWT_CAN2_AP_LV_Derivation_LVData
 .text          0x4805cc90       0x50 OSC/TaskISRArchive.a(SWT_CAN2_AP_ACCEL_R_Data2.o)
                0x4805cc90                osek_task_e_SWT_CAN2_AP_ACCEL_R_Data2
 .text          0x4805cce0       0x4c OSC/TaskISRArchive.a(SWT_CAN2_NM_LV_Derivation_Keep_Alive.o)
                0x4805cce0                osek_task_e_SWT_CAN2_NM_LV_Derivation_Keep_Alive
 .text          0x4805cd2c       0x50 OSC/TaskISRArchive.a(SWT_CAN2_AP_ACCEL_F_Data.o)
                0x4805cd2c                osek_task_e_SWT_CAN2_AP_ACCEL_F_Data
 .text          0x4805cd7c       0x50 OSC/TaskISRArchive.a(SWT_CAN2_NM_ACCEL_F_Keep_Alive.o)
                0x4805cd7c                osek_task_e_SWT_CAN2_NM_ACCEL_F_Keep_Alive
 .text          0x4805cdcc       0x50 OSC/TaskISRArchive.a(SWT_CAN2_NM_ACCEL_R_Keep_Alive.o)
                0x4805cdcc                osek_task_e_SWT_CAN2_NM_ACCEL_R_Keep_Alive
 .text          0x4805ce1c       0x50 OSC/TaskISRArchive.a(SWT_CAN2_AP_ACCEL_R_Data.o)
                0x4805ce1c                osek_task_e_SWT_CAN2_AP_ACCEL_R_Data
 .text          0x4805ce6c       0x50 OSC/TaskISRArchive.a(SWT_CAN2_AP_ADCAN_Data2.o)
                0x4805ce6c                osek_task_e_SWT_CAN2_AP_ADCAN_Data2
 .text          0x4805cebc       0x50 OSC/TaskISRArchive.a(SWT_CAN2_AP_ADCAN_Data1.o)
                0x4805cebc                osek_task_e_SWT_CAN2_AP_ADCAN_Data1
 .text          0x4805cf0c       0x50 OSC/TaskISRArchive.a(SWT_CAN2_NM_ADCAN_Keep_Alive.o)
                0x4805cf0c                osek_task_e_SWT_CAN2_NM_ADCAN_Keep_Alive
 .text          0x4805cf5c       0x4c OSC/TaskISRArchive.a(SWT_CAN2_AP_ELIPSE_VelAngular.o)
                0x4805cf5c                osek_task_e_SWT_CAN2_AP_ELIPSE_VelAngular
 .text          0x4805cfa8       0x4c OSC/TaskISRArchive.a(SWT_CAN2_AP_ELIPSE_VelBody.o)
                0x4805cfa8                osek_task_e_SWT_CAN2_AP_ELIPSE_VelBody
 .text          0x4805cff4       0x4c OSC/TaskISRArchive.a(SWT_CAN1_AP_BMS_Current_SOC.o)
                0x4805cff4                osek_task_e_SWT_CAN1_AP_BMS_Current_SOC
 .text          0x4805d040       0x50 OSC/TaskISRArchive.a(SWT_CAN1_AP_BMS_Current_SOC_SOH1.o)
                0x4805d040                osek_task_e_SWT_CAN1_AP_BMS_Current_SOC_SOH1
 .text          0x4805d090       0x50 OSC/TaskISRArchive.a(SWT_CAN1_AP_BMS_OnBoardTemperatures1.o)
                0x4805d090                osek_task_e_SWT_CAN1_AP_BMS_OnBoardTemperatures1
 .text          0x4805d0e0       0x4c OSC/TaskISRArchive.a(NewISR.o)
                0x4805d0e0                osek_isr_e_NewISR
 .text          0x4805d12c       0x4c OSC/TaskISRArchive.a(NewISR1.o)
                0x4805d12c                osek_isr_e_NewISR1
 .text          0x4805d178       0x40 OSC/etasActivateTaskIsr.o
                0x4805d178                osek_isr_e_etasActivateTaskIsr
 .text          0x4805d1b8       0x48 OSC/etasL1Isr.o
                0x4805d1b8                osek_isr_e_etasL1Isr
 .text          0x4805d200       0x44 OSC/etasL1Task.o
                0x4805d200                osek_task_e_etasL1Task
 .text          0x4805d244       0x40 OSC/etasTimerIsr.o
                0x4805d244                osek_isr_e_etasTimerIsr
 .text          0x4805d284       0x40 OSC/etasStopOsIsr.o
                0x4805d284                osek_isr_e_etasStopOsIsr
 .text          0x4805d2c4      0x294 OSC/DriverThreads.o
                0x4805d2c4                etasCreateDriverThreads
 .text          0x4805d558        0x0 OSC/ISRFunctions.o
 .text          0x4805d558      0x1dc OSC/osc_dyn.o
                0x4805d6f0                etasInitTasks
                0x4805d5f8                etasExitTasks
                0x4805d560                etasInactiveExitTask
                0x4805d55c                etasStartupExitTask
                0x4805d6c8                etasStartupInitTask
                0x4805d564                TimersExitTask
                0x4805d558                etasInactiveInitTask
                0x4805d628                TimersInitTask
 .text          0x4805d734        0xc OSC/rtaInterface.o
                0x4805d734                etasGetCounterPeriodUs
                0x4805d73c                StackFaultHook
 .text          0x4805d740      0x5f8 OSC/ETCHooks.o
                0x4805dad8                rtioHook_15_0
                0x4805d768                rtioHook_39_0
                0x4805dbc8                rtioHook_9_0
                0x4805d858                rtioHook_34_1
                0x4805db50                rtioHook_12_0
                0x4805da38                rtioHook_19_0
                0x4805d7b8                rtioHook_37_1
                0x4805da88                rtioHook_17_0
                0x4805dc90                rtioHook_1_0
                0x4805dd0c                rtioHook_41_0
                0x4805d8a8                rtioHook_32_0
                0x4805d998                rtioHook_23_0
                0x4805d8f8                rtioHook_30_0
                0x4805d9e8                rtioHook_21_0
                0x4805d830                rtioHook_35_0
                0x4805d920                rtioHook_26_0
                0x4805d7e0                rtioHook_37_0
                0x4805dce0                rtioHook_42_0
                0x4805d970                rtioHook_24_0
                0x4805d790                rtioHook_38_0
                0x4805d740                rtioHook_40_0
                0x4805d8d0                rtioHook_31_0
                0x4805d9c0                rtioHook_22_0
                0x4805dcb8                rtioHook_0_0
                0x4805da60                rtioHook_18_0
                0x4805db28                rtioHook_13_0
                0x4805db78                rtioHook_11_0
                0x4805dab0                rtioHook_16_0
                0x4805dc18                rtioHook_6_0
                0x4805db00                rtioHook_14_0
                0x4805dbf0                rtioHook_8_0
                0x4805da10                rtioHook_20_0
                0x4805dc68                rtioHook_2_0
                0x4805d880                rtioHook_34_0
                0x4805d948                rtioHook_25_0
                0x4805dc40                rtioHook_3_0
                0x4805dba0                rtioHook_10_0
                0x4805d808                rtioHook_36_0
 .text          0x4805dd38     0x1058 OSC/XbarHooks.o
                0x4805e170                crossbarHook_34_4
                0x4805e210                crossbarHook_34_0
                0x4805ec5c                crossbarHook_41_6
                0x4805e418                crossbarHook_21_0
                0x4805e710                crossbarHook_2_0
                0x4805e580                crossbarHook_12_0
                0x4805e7b8                crossbarHook_42_15
                0x4805ed0c                crossbarHook_41_2
                0x4805dd60                crossbarHook_39_0
                0x4805e350                crossbarHook_26_0
                0x4805df18                crossbarHook_37_9
                0x4805e4b8                crossbarHook_17_0
                0x4805e080                crossbarHook_37_13
                0x4805e648                crossbarHook_7_0
                0x4805dfb8                crossbarHook_37_5
                0x4805e058                crossbarHook_37_1
                0x4805e698                crossbarHook_5_0
                0x4805e918                crossbarHook_42_7
                0x4805e120                crossbarHook_35_1
                0x4805e9c8                crossbarHook_42_3
                0x4805ebac                crossbarHook_41_10
                0x4805eafc                crossbarHook_41_14
                0x4805e0f8                crossbarHook_36_0
                0x4805e3c8                crossbarHook_23_0
                0x4805e530                crossbarHook_14_0
                0x4805ddd8                crossbarHook_38_3
                0x4805ec30                crossbarHook_41_7
                0x4805e868                crossbarHook_42_11
                0x4805ece0                crossbarHook_41_3
                0x4805e1c0                crossbarHook_34_1
                0x4805e78c                crossbarHook_42_16
                0x4805de78                crossbarHook_37_14
                0x4805def0                crossbarHook_37_10
                0x4805df40                crossbarHook_37_8
                0x4805dfe0                crossbarHook_37_4
                0x4805e0a8                crossbarHook_37_0
                0x4805e3a0                crossbarHook_24_0
                0x4805e508                crossbarHook_15_0
                0x4805e944                crossbarHook_42_6
                0x4805e148                crossbarHook_35_0
                0x4805e3f0                crossbarHook_22_0
                0x4805e558                crossbarHook_13_0
                0x4805e0d0                crossbarHook_36_1
                0x4805e738                crossbarHook_1_0
                0x4805e9f4                crossbarHook_42_2
                0x4805e328                crossbarHook_27_0
                0x4805e490                crossbarHook_18_0
                0x4805ddb0                crossbarHook_38_4
                0x4805ea78                crossbarHook_41_17
                0x4805ec04                crossbarHook_41_8
                0x4805e83c                crossbarHook_42_12
                0x4805e670                crossbarHook_6_0
                0x4805e378                crossbarHook_25_0
                0x4805de50                crossbarHook_38_0
                0x4805e4e0                crossbarHook_16_0
                0x4805e198                crossbarHook_34_2
                0x4805e760                crossbarHook_42_17
                0x4805e810                crossbarHook_42_13
                0x4805ecb4                crossbarHook_41_4
                0x4805ed64                crossbarHook_41_0
                0x4805e260                crossbarHook_32_0
                0x4805e5d0                crossbarHook_10_0
                0x4805e620                crossbarHook_8_0
                0x4805dec8                crossbarHook_37_11
                0x4805e2b0                crossbarHook_30_0
                0x4805df68                crossbarHook_37_7
                0x4805e008                crossbarHook_37_3
                0x4805e8c0                crossbarHook_42_9
                0x4805eb28                crossbarHook_41_13
                0x4805e6e8                crossbarHook_3_0
                0x4805e970                crossbarHook_42_5
                0x4805e288                crossbarHook_31_0
                0x4805ea20                crossbarHook_42_1
                0x4805dd88                crossbarHook_38_5
                0x4805dd38                crossbarHook_40_0
                0x4805eaa4                crossbarHook_41_16
                0x4805de28                crossbarHook_38_1
                0x4805ebd8                crossbarHook_41_9
                0x4805e894                crossbarHook_42_10
                0x4805e1e8                crossbarHook_34_3
                0x4805e7e4                crossbarHook_42_14
                0x4805ec88                crossbarHook_41_5
                0x4805ed38                crossbarHook_41_1
                0x4805e300                crossbarHook_28_0
                0x4805e468                crossbarHook_19_0
                0x4805e2d8                crossbarHook_29_0
                0x4805dea0                crossbarHook_37_12
                0x4805df90                crossbarHook_37_6
                0x4805e030                crossbarHook_37_2
                0x4805e8ec                crossbarHook_42_8
                0x4805eb54                crossbarHook_41_12
                0x4805e238                crossbarHook_33_0
                0x4805e440                crossbarHook_20_0
                0x4805e5a8                crossbarHook_11_0
                0x4805e99c                crossbarHook_42_4
                0x4805ea4c                crossbarHook_42_0
                0x4805eb80                crossbarHook_41_11
                0x4805ead0                crossbarHook_41_15
                0x4805de00                crossbarHook_38_2
                0x4805e5f8                crossbarHook_9_0
                0x4805e6c0                crossbarHook_4_0
 .text          0x4805ed90        0x0 ETC/FormulaTable.o
 .text          0x4805ed90        0x0 ETC/DriverTable.o
 .text          0x4805ed90        0x0 ETC/MappingFunctionTable.o
 .text          0x4805ed90        0x0 ETC/RtioL1RecordTable.o
 .text          0x4805ed90        0x0 ETC/XCPTransportLayerFunctionsTable.o
 .text          0x4805ed90        0x0 ETC/ChecksumAlgoTables.o
 .text          0x4805ed90        0x0 CBC/CopyFunctionTable.o
 .text          0x4805ed90        0x0 CBC/CrossbarL1RecordTable.o
 .text          0x4805ed90       0x48 C:/ETAS/Compiler/INTECRIO4.7/QNXCompiler-V6.5\host\win32\x86/usr/lib/gcc/powerpc-unknown-nto-qnx6.5.0/4.4.2/spe/libgcc.a(_fixunsdfdi.o)
                0x4805ed90                __fixunsdfdi
 .text          0x4805edd8       0x40 C:/ETAS/Compiler/INTECRIO4.7/QNXCompiler-V6.5\host\win32\x86/usr/lib/gcc/powerpc-unknown-nto-qnx6.5.0/4.4.2/spe/libgcc.a(_floatundidf.o)
                0x4805edd8                __floatundidf
 .text          0x4805ee18       0x98 C:/ETAS/Compiler/INTECRIO4.7/QNXCompiler-V6.5\host\win32\x86/usr/lib/gcc/powerpc-unknown-nto-qnx6.5.0/4.4.2/spe/crtend.o
 .text          0x4805eeb0        0x0 C:/ETAS/Compiler/INTECRIO4.7/QNXCompiler-V6.5\target\qnx6/ppcbe-spe/lib/crtn.o
 .text          0x4805eeb0     0x2298 C:\Program Files (x86)\ETAS\INTECRIO4.7\Target\Etarget\ES910\libes910.a(i_rtautil.o)
                0x4805f148                etasActivateTaskViaIsr
                0x48060310                startTaskHookMon
                0x4805f3b8                ErrorHook
                0x4805ef80                osTraceStopwatch
                0x480606c0                switchToInactiveAppMode
                0x4805eebc                isAppModeSwitchPending
                0x48060018                etasStartIsrHookMon
                0x48060228                etasStartIsrHook
                0x4805f020                getModelRuntime
                0x4806053c                restartModelProcess
                0x4805eeb0                GetNextAppMode
                0x4805f098                etasActivateTaskWithIdViaIsrHandler
                0x48060114                etasEndIsrHook
                0x4805eeec                checkInterruptOccurence
                0x480608f8                osekThreadSuspendRtSignals
                0x4806014c                etasEndIsrHookMon
                0x4805f1a8                getCurTaskMonitor
                0x4805f2f4                GetStopwatchUncertainty
                0x48060768                endTaskHook
                0x4805f1e0                delayInitExitTask
                0x4805ef08                rtaInitTarget
                0x4805f34c                OverrunHook
                0x4805f104                etasActivateTaskWithIdViaIsr
                0x480603e8                startTaskHook
                0x4805eff4                etasDeInstallOsErrorHook
                0x48060c00                applicationModeManager
                0x480605fc                terminateModelProcess
                0x4805fd38                StartupHook
                0x480608bc                osekThreadResumeRtSignals
                0x4805f174                isRtaOsekThreadContext
                0x4805ef88                isInsideInitExitTask
                0x4805efb4                isInsideExitTask
                0x4805f6e4                ShutdownHook
                0x4805efcc                etasInstallOsErrorHook
                0x480607e0                endTaskHookMon
                0x4805eed8                resetInterruptFlag
                0x4805ef78                GetStopwatch
                0x4805ef04                etasRTATraceInitProcess
                0x4805ef6c                GetDeltaT
                0x480604ac                SetNextAppMode
                0x4805f2a8                tempMgrRegisterSigtermEvent
                0x4805ef9c                isInsideInitTask
                0x4805eef8                getLastInterruptTimeTicks
 .text          0x48061148     0x2058 C:\Program Files (x86)\ETAS\INTECRIO4.7\Target\Etarget\ES910\libes910.a(t_driverThreads.o)
                0x48061f34                osek_sendto
                0x480617cc                osek_msync
                0x4806152c                osek_vfprintf
                0x480625ac                osek_MsgReceive
                0x48062314                osek_MsgRead
                0x48061dc0                osek_cmsSendMessage
                0x480612d0                osek_malloc
                0x48061284                osek_free
                0x48061210                osek_fsync
                0x480619b4                osek_unlink
                0x4806166c                osek_munmap
                0x4806200c                osek_devctl
                0x480621f0                osek_close
                0x48061cd4                osek_cmsReceiveMessage
                0x48061a28                osek_system
                0x48062474                osek_MsgError
                0x480627d0                osek_send
                0x480624fc                osek_MsgReply
                0x480615e4                osek_ftruncate
                0x480623c4                osek_MsgWrite
                0x48061918                osek_lseek
                0x4806265c                osek_MsgSend
                0x48061e5c                osek_recvfrom
                0x48061868                osek_fwrite
                0x48061460                osek_vslogf
                0x48061a9c                osek_cmsReceiveMessageEx
                0x48061148                etasSetNumberOfDriverThreads
                0x48062880                etasCreateDriverThread
                0x480616f4                osek_mmap
                0x48062154                osek_write
                0x48062720                osek_recv
                0x48061344                osek_etasLogCoreFeedRecordToBackends
                0x480620b8                osek_read
                0x48061c24                osek_cmsErrorState
                0x48061b88                osek_cmsSendMessageEx
                0x48062264                osek_open
 .text          0x480631a0      0x7c8 C:\Program Files (x86)\ETAS\INTECRIO4.7\Target\Etarget\ES910\libes910.a(t_idle.o)
                0x48063890                initRtaTraceSupport
                0x480633d4                etasIdleProcess
                0x48063260                signalStartupHookTermination
                0x480631ec                apsGetPartitionId
                0x48063290                apsJoinPartition
                0x48063230                signalShutdownHookTermination
                0x480631f8                getSysLoad
                0x480631a0                etasInstallIdleHook
                0x480631c8                etasDeInstallIdleHook
 .text          0x48063968     0x1fec C:\Program Files (x86)\ETAS\INTECRIO4.7\Target\Etarget\ES910\libes910.a(t_l1com.o)
                0x48063968                setL1ComBufferSize
                0x480639a8                l1SetBusyState
                0x48063b28                l1SignalIdleState
                0x48063ed0                waitForL1Request
                0x480644c0                createL1ModelThread
                0x4806440c                serveL1Request
                0x48063e18                etasL1Process
 .text          0x48065954      0xa0c C:\Program Files (x86)\ETAS\INTECRIO4.7\Target\Etarget\ES910\libes910.a(t_main.o)
                0x48065954                main
 .text          0x48066360      0x9d8 C:\Program Files (x86)\ETAS\INTECRIO4.7\Target\Etarget\ES910\libes910.a(t_mlog.o)
                0x48066384                getDriverLogging
                0x48066390                getUserSeverity
                0x48066378                getUserLogging
                0x4806641c                mlog_setSeverityFilterUser
                0x480663f0                mlog_setSeverityFilterDrv
                0x4806639c                getDriverSeverity
                0x48066ac0                mlog_init
                0x480667c4                mlog_updateLoggingConfiguration
                0x48066360                getUserLogChan
                0x480668b0                mlog_startLogConfigThread
                0x4806636c                getDrvLogChan
                0x480663a8                mlog_debugLog
 .text          0x48066d38      0xad4 C:\Program Files (x86)\ETAS\INTECRIO4.7\Target\Etarget\ES910\libes910.a(t_qnxtargetutil.o)
                0x48066d8c                qnxThreadJoinPartition
                0x480671dc                qnxPrintProcesses
                0x48066d48                qnxCheckBootFromFlash
                0x4806710c                qnxPrintCpuLoad
                0x48066d64                qnxCheckHaltedModel
                0x48066d38                qnxSetBootFromFlash
                0x48067724                qnxPrintSavedErrorMessages
                0x48066d70                qnxSetStandalone
                0x480670a8                qnxAdjustThreadPriority
                0x48066d54                qnxSetHaltedModel
                0x48066e0c                qnxGetSetRunInheritMask
                0x48066d80                qnxCheckStandalone
 .text          0x4806780c      0x638 C:\Program Files (x86)\ETAS\INTECRIO4.7\Target\Etarget\ES910\libes910.a(t_targetutil.o)
                0x4806785c                initL2CachePerfMeas
                0x48067d84                es910GetSerialNumber
                0x4806780c                GetSystemTimeLow
                0x48067d2c                es910GetPcbRevision
                0x48067d60                es910PiggyGetSerialNumber
                0x480679b8                getL2CachePerf
                0x48067ac0                es910PrintFwVersions
                0x48067964                getL2CachePerfRaw
                0x4806781c                GetSystemTime
                0x48067e10                es910MapCCSRMemoryRange
                0x48067814                GetSystemTimeHigh
                0x48067cf8                es910PiggyGetPcbRevision
                0x48067da8                waitMicroseconds
 .text          0x48067e44      0x2f4 C:\Program Files (x86)\ETAS\INTECRIO4.7\Target\Etarget\ES910\libes910.a(t_watchdog.o)
                0x48067e54                wdDisableAutoService
                0x48067f1c                etasServiceWatchdog
                0x48067eac                wdService
                0x48067f94                wdSetEventPeriod
                0x48067e44                wdEnableAutoService
                0x48067e64                wdSetApplicationName
                0x48067eec                triggerWD
                0x48067e70                wdDisconnect
 .text          0x48068138      0x848 C:\Program Files (x86)\ETAS\INTECRIO4.7\Target\Etarget\ES910\libes910.a(p_chario.o)
                0x480686ec                IOWrite
                0x48068138                IOIsLogOn
                0x48068144                IOLogOff
                0x480681a0                IOLogOn
                0x4806846c                IOPrintf
 .text          0x48068980      0x31c C:\Program Files (x86)\ETAS\INTECRIO4.7\Target\Etarget\ES910\libes910.a(t_hwTimeSync.o)
                0x48068980                es9xxTimeSyncGetTimerValue
                0x48068a74                es9xxTimeSyncGetTimerStatus
                0x48068bc8                es9xxTimeSyncInit
                0x48068a04                getLocalSystemTime
 .text          0x48068c9c      0x224 C:\Program Files (x86)\ETAS\INTECRIO4.7\Target\Etarget\ES910\libes910.a(t_led.o)
                0x48068c9c                userLed2Off
                0x48068d34                userLed2Toggle
                0x48068e40                ledsOff
                0x48068e08                userLed1Toggle
                0x48068dbc                userLed1On
                0x48068d6c                userLed1Off
                0x48068ce8                userLed2On
 .text          0x48068ec0     0x2184 C:\Program Files (x86)\ETAS\INTECRIO4.7\Target\Etarget\ES910\libtarget.a(a_dacqui.o)
                0x4806a520                asdSimPreCall
                0x4806afd4                asdSimPostCall
                0x4806a5a4                getDacqTimeFor
                0x4806aecc                storeMeasureDataForGroup
                0x4806a71c                applicationStartUserMode
                0x4806a6f4                resetLogSimulationTime
                0x48069178                etasAscetLoggingBufferFillLevel
                0x4806a668                getLogSimulationTime
                0x480691ac                etasAscetLoggingOverflowCounter
                0x480691f0                asdDisableUserDefinedTime
                0x4806a690                getSimulationTime
                0x48069114                setSimulationTime
                0x480691e0                asdEnableUserDefinedTime
                0x4806a258                checkForBufferOverflow
                0x4806a6bc                resetDacqTimeFor
                0x480690e8                setLogSimulationTime
                0x480690e0                setDacqTimeFor
                0x48068ec0                applicationStopUserMode
                0x4806a7fc                timeMeasurementStop
                0x48069144                etasAscetLoggingBufferSize
                0x4806a8a4                logDataForChannel
                0x4806acf0                storeLogDataForGroup
                0x4806a850                timeMeasurementStart
                0x4806a79c                timeInSeconds
 .text          0x4806b044       0xd8 C:\Program Files (x86)\ETAS\INTECRIO4.7\Target\Etarget\ES910\libtarget.a(a_l1pro.o)
                0x4806b044                forwardToProcess
                0x4806b0a0                startUpSimulation
 .text          0x4806b11c     0x4c88 C:\Program Files (x86)\ETAS\INTECRIO4.7\Target\Etarget\ES910\libtarget.a(a_primit.o)
                0x4806f868                v3_initInstance_uint16
                0x4806cfc0                Vec_uint32_getAtProtected
                0x4806e4e4                v3_initInstance_Mat_real64
                0x4806db8c                v3_initInstance_Mat_bool
                0x4806f4e4                initInstance_GroupCharTable2
                0x4806f120                initInstance_Vec_real32
                0x4806c750                Mat_sint16_setAtProtected
                0x4806c5c8                Mat_uint16_setAtProtected
                0x4806e290                v3_initInstance_Mat_sint8
                0x4806e3b8                v3_initInstance_Mat_real32
                0x4806df10                v3_initInstance_Mat_uint16
                0x4806ce34                Vec_qreal64_getAtProtected
                0x4806fd34                delete_Mat
                0x4806b9a4                addVector
                0x4806e7c8                v3_initInstance_Vec_bool
                0x4806e018                initInstance_Mat_uint16
                0x4806f4c0                initInstance_uint32
                0x4806f96c                initInstance_sint16
                0x4806d7ec                qreal64_set
                0x4806fb28                initInstance_real32
                0x4806eec0                initInstance_Vec_uint8
                0x4806fc74                delete_CharTable2
                0x4806d34c                Vec_uint8_getAtProtected
                0x4806f8d8                initInstance_uint16
                0x4806b1a8                removeMatrix
                0x4806d2d0                Vec_uint8_setAtProtected
                0x4806dde4                v3_initInstance_Mat_sint32
                0x4806e8d4                initInstance_Vec_bool
                0x4806c030                Mat_real64_getAtProtected
                0x4806bf40                Mat_real64_setAtProtected
                0x4806dc94                initInstance_Mat_bool
                0x4806eb34                initInstance_Vec_sint32
                0x4806f990                v3_initInstance_uint8
                0x4806d6e0                Vec_qreal64_setAtProtected
                0x4806b870                addMatrix
                0x4806d9c8                v3_initInstance_Mat_qreal64
                0x4806cb20                Mat_sint8_getAtProtected
                0x4806f66c                initInstance_GroupCharTable1
                0x4806c81c                Mat_sint16_getAtProtected
                0x4806e8f8                v3_initInstance_Vec_uint32
                0x4806d428                Vec_sint8_getAtProtected
                0x4806c50c                Mat_sint32_getAtProtected
                0x4806d48c                qreal64_adjust
                0x4806fd6c                delete_Vec
                0x4806ec88                v3_initInstance_Vec_sint16
                0x4806ed94                initInstance_Vec_sint16
                0x4806cd14                Vec_real64_setAtProtected
                0x4806d108                Vec_uint16_setAtProtected
                0x4806ce5c                Vec_real32_setAtProtected
                0x4806e26c                initInstance_Mat_uint8
                0x4806c384                Mat_uint32_getAtProtected
                0x4806b128                getBasicType
                0x4806f010                v3_initInstance_Vec_real32
                0x4806d5b0                Mat_qreal64_setAtProtected
                0x4806ccb0                Vec_bool_getAtProtected
                0x4806fbc4                initInstance_real64
                0x4806e790                initInstance_Vec_qreal64
                0x4806fcb4                delete_GroupCharTable1
                0x4806f7d4                v3_initInstance_sint32
                0x4806e4c0                initInstance_Mat_real32
                0x4806d3ac                Vec_sint8_setAtProtected
                0x4806c1fc                Mat_real32_getAtProtected
                0x4806cc30                Vec_bool_setAtProtected
                0x4806b298                removeVector
                0x4806be84                Mat_bool_getAtProtected
                0x4806fcf4                delete_CharTable1
                0x4806f844                initInstance_sint32
                0x4806dcb8                v3_initInstance_Mat_uint32
                0x4806fa94                initInstance_sint8
                0x4806f5a8                initInstance_CharTable2
                0x4806f384                initInstance_qreal64
                0x4806c2b8                Mat_uint32_setAtProtected
                0x4806c694                Mat_uint16_getAtProtected
                0x4806e5ec                initInstance_Mat_real64
                0x4806fb4c                v3_initInstance_real64
                0x4806f450                v3_initInstance_uint32
                0x4806b134                getPrimitiveType
                0x4806bd20                Mat_setCurSizeYProtected
                0x4806eee4                v3_initInstance_Vec_sint8
                0x4806fa00                initInstance_uint8
                0x4806eb58                v3_initInstance_Vec_uint16
                0x4806b11c                getTypeSize
                0x4806deec                initInstance_Mat_sint32
                0x4806fab8                v3_initInstance_real32
                0x4806fc34                delete_GroupCharTable2
                0x4806bdb8                Mat_bool_setAtProtected
                0x4806ddc0                initInstance_Mat_uint32
                0x4806f42c                initInstance_bool
                0x4806cf40                Vec_uint32_setAtProtected
                0x4806e610                v3_initInstance_Vec_qreal64
                0x4806db4c                initInstance_Mat_qreal64
                0x4806c108                Mat_qreal64_getAtProtected
                0x4806edb8                v3_initInstance_Vec_uint8
                0x4806d0a4                Vec_sint32_getAtProtected
                0x4806e144                initInstance_Mat_sint16
                0x4806d188                Vec_uint16_getAtProtected
                0x4806cbdc                Vec_setCurSizeProtected
                0x4806fa24                v3_initInstance_sint8
                0x4806cdb4                Vec_real64_getAtProtected
                0x4806c8d8                Mat_uint8_setAtProtected
                0x4806ea04                initInstance_Vec_uint32
                0x4806e03c                v3_initInstance_Mat_sint16
                0x4806d024                Vec_sint32_setAtProtected
                0x4806fbe8                initInstance_reference
                0x4806d26c                Vec_sint16_getAtProtected
                0x4806ca58                Mat_sint8_setAtProtected
                0x4806bd6c                Mat_setCurSizeXProtected
                0x4806f3bc                v3_initInstance_bool
                0x4806f720                initInstance_CharTable1
                0x4806f274                v3_initInstance_qreal64
                0x4806d934                initInstance_quantInfo
                0x4806c130                Mat_real32_setAtProtected
                0x4806e394                initInstance_Mat_sint8
                0x4806ea28                v3_initInstance_Vec_sint32
                0x4806cedc                Vec_real32_getAtProtected
                0x4806c440                Mat_sint32_setAtProtected
                0x4806efec                initInstance_Vec_sint8
                0x4806d1ec                Vec_sint16_setAtProtected
                0x4806c9a0                Mat_uint8_getAtProtected
                0x4806f8fc                v3_initInstance_sint16
                0x4806e168                v3_initInstance_Mat_uint8
                0x4806ec64                initInstance_Vec_uint16
                0x4806f250                initInstance_Vec_real64
                0x4806f144                v3_initInstance_Vec_real64
 .text          0x4806fda4       0x20 C:\Program Files (x86)\ETAS\INTECRIO4.7\Target\Etarget\ES910\libtarget.a(a_sysver.o)
                0x4806fdb8                getBuildRevision
                0x4806fda4                getSystemLibVersion
                0x4806fdb0                getSystemLibCid
 .text          0x4806fdc4     0x305c C:\Program Files (x86)\ETAS\INTECRIO4.7\Target\Etarget\ES910\libtarget.a(a_targma.o)
                0x48070cc4                perfMeasStop
                0x48071694                asdMalloc
                0x48071a88                addToActiveSimObjList
                0x4806ff44                getTargetL1BufferSizeCode
                0x48071c18                asdWriteUserError
                0x4806fedc                setTargetL1BufferSize
                0x48072550                perfMeasDisplay
                0x4806fea8                getSimObjPtr
                0x48070f94                asdFree
                0x48071bec                asdClearUserError
                0x4806ff9c                resetPerfMeasObj
                0x48071468                asdMallocNoInit
                0x48072408                asdWriteUserDebug
                0x4806fdf4                searchInActiveList
                0x48071640                asdCalloc
                0x4806ff38                getTargetL1BufferSize
                0x4806fe50                removeFromActiveSimObjList
                0x48070d6c                perfMeasStart
                0x4806fdd0                instanceTreeMallocOn
                0x480715c0                createPerfMeasObj
                0x48072798                etasInitModelProcess
                0x48070768                getObjectsRecursive
                0x48070dd8                availableMemory
                0x4806fde0                instanceTreeMallocOff
                0x48070e8c                asdFreeAll
                0x48071928                updateCTBlocks
                0x480712f0                asdRealloc
                0x480712b0                deletePerfMeasObj
                0x4806fdc4                getInstanceTreeMemoryConsumption
 .text          0x48072e20     0x14ac C:\Program Files (x86)\ETAS\INTECRIO4.7\Target\Etarget\ES910\libtarget.a(i_cpyfnc.o)
                0x48073150                copyPlainFromFloat
                0x48073c7c                copyScalSatTypeSatFromFloat
                0x480742b4                copyInt
                0x480742c0                copyDouble
                0x480742a8                copyShort
                0x480737e4                copyScalFromValidFloat
                0x48073a28                copyScalSatFromFloat
                0x48073370                copySatFromFloat
                0x48072e20                copyPlainToFloat
                0x48073070                copyScalSatToFloat
                0x48072fb8                copyScalToFloat
                0x4807429c                copyByte
                0x48074040                copyBoolSatFromFloat
                0x48072eec                copySatToFloat
                0x480735b4                copyScalFromFloat
 .text          0x480742cc     0x5394 C:\Program Files (x86)\ETAS\INTECRIO4.7\Target\Etarget\ES910\libtarget.a(i_mapfnc.o)
                0x4807471c                var2BufByteOffsetReal64
                0x48076a98                var2BufBypassSint8
                0x48075734                var2Buf64BitIntelSint32
                0x48074950                var2BufByteOffsetBool
                0x480778d0                var2BufIndirectMotorolaReal32
                0x480746d8                buf2VarSimpleUint8
                0x480749e4                buf2VarByteOffsetSint32
                0x48077c44                buf2VarIndirectMotorolaSint32
                0x48078e54                var2BufIndirectIntelSint16
                0x4807960c                bufGenFrameInit
                0x48077770                buf2VarGenFrameIntelSint32
                0x48079350                buf2VarBypassIntelUint16
                0x48074e3c                var2Buf64BitMotorolaUint16
                0x480755fc                var2Buf64BitIntelUint32
                0x48075ea8                buf2Var64BitMotorolaReal32
                0x48076858                var2BufBypassMotorolaReal64
                0x48074f04                var2Buf64BitMotorolaSint16
                0x48074848                var2BufByteOffsetSint16
                0x48074690                buf2VarSimpleSint32
                0x48076be4                buf2VarBypassMotorolaSint32
                0x48074a34                buf2VarByteOffsetSint8
                0x48077994                var2BufIndirectMotorolaUint16
                0x48076bb4                buf2VarBypassMotorolaUint32
                0x48076178                buf2Var64BitMotorolaUint8
                0x48079184                var2BufBypassMaskedIntelBoolUint32
                0x48077ba4                buf2VarIndirectMotorolaReal64
                0x48074588                var2BufSimpleBool
                0x480775b0                buf2VarGenFrameMotorolaSint32
                0x48076094                buf2Var64BitMotorolaSint32
                0x48075154                var2Buf64BitMotorolaBool
                0x48077730                buf2VarGenFrameIntelUint32
                0x480774f0                var2BufGenFrameIntelBool
                0x480774b0                var2BufGenFrameIntelSint8
                0x48077230                var2BufGenFrameMotorolaSint16
                0x480778b0                var2BufIndirectMotorolaReal64
                0x480748a0                var2BufByteOffsetUint8
                0x48074ae4                var2Buf64BitMotorolaUint64
                0x480771f0                var2BufGenFrameMotorolaUint16
                0x480793e0                buf2VarBypassIntelUint32
                0x4807951c                var2BufBypassIntelSint32
                0x4807464c                buf2VarSimpleReal64
                0x48076c94                buf2VarBypassIntelReal64
                0x480749f8                buf2VarByteOffsetUint16
                0x480743c4                var2BufSimpleSint32
                0x48076fec                var2BufBypassMaskedUint8
                0x48076d6c                var2BufBypassMaskedMotorolaUint32
                0x480748f8                var2BufByteOffsetSint8
                0x4807531c                var2Buf64BitIntelUint64
                0x48077bd8                buf2VarIndirectMotorolaReal32
                0x48076b64                buf2VarBypassMotorolaReal64
                0x480772f0                var2BufGenFrameMotorolaBool
                0x4807586c                var2Buf64BitIntelUint16
                0x48074740                var2BufByteOffsetUint32
                0x48078d20                buf2VarIndirectIntelUint16
                0x48074a4c                buf2VarByteOffsetBool
                0x4807906c                var2BufBypassMaskedIntelSint16
                0x480745f0                var2BufSimpleUint8Bool
                0x48076938                var2BufBypassMotorolaUint16
                0x480790f8                var2BufBypassMaskedIntelUint16
                0x48074678                buf2VarSimpleUint32
                0x480772b0                var2BufGenFrameMotorolaSint8
                0x4807524c                var2Buf64BitIntelReal32
                0x48077dd0                buf2VarIndirectSint8
                0x48075ef0                buf2Var64BitMotorolaUint64
                0x48077170                var2BufGenFrameMotorolaUint32
                0x480781c0                var2BufGenFrameMotorolaReal64
                0x48079580                var2BufBypassIntelUint32
                0x48077670                buf2VarGenFrameMotorolaUint8
                0x480760dc                buf2Var64BitMotorolaUint16
                0x480767c4                buf2Var64BitIntelSint8
                0x48077330                var2BufGenFrameIntelReal32
                0x48076278                buf2Var64BitIntelReal32
                0x480751f8                var2Buf64BitIntelReal64
                0x48076ea8                var2BufBypassMaskedMotorolaUint16
                0x4807548c                var2Buf64BitIntelSint64
                0x480773f0                var2BufGenFrameIntelUint16
                0x48078c20                buf2VarGenFrameIntelReal64
                0x48076990                var2BufBypassMotorolaSint16
                0x48079424                buf2VarBypassIntelReal32
                0x4807939c                buf2VarBypassIntelSint32
                0x48074798                var2BufByteOffsetSint32
                0x480763e8                buf2Var64BitIntelSint64
                0x48077530                buf2VarGenFrameMotorolaReal32
                0x48079638                bufBypassInit
                0x48076600                buf2Var64BitIntelUint16
                0x48076e4c                var2BufBypassMaskedMotorolaBoolUint32
                0x48078f68                var2BufIndirectIntelUint32
                0x48077630                buf2VarGenFrameMotorolaSint16
                0x48074fcc                var2Buf64BitMotorolaUint8
                0x480762f4                buf2Var64BitIntelUint64
                0x480777f0                buf2VarGenFrameIntelSint16
                0x480773b0                var2BufGenFrameIntelSint32
                0x48078910                buf2VarGenFrameMotorolaReal64
                0x4807672c                buf2Var64BitIntelUint8
                0x480770d4                var2BufBypassMaskedBoolUint8
                0x480787f0                buf2VarGenFrameMotorolaUint64
                0x48077ccc                buf2VarIndirectMotorolaSint16
                0x480776f0                buf2VarGenFrameIntelReal32
                0x48074cbc                var2Buf64BitMotorolaUint32
                0x48078fc4                var2BufIndirectIntelReal32
                0x4807472c                var2BufByteOffsetReal32
                0x48078ff4                var2BufBypassMaskedIntelBoolUint16
                0x48076d34                buf2VarBypassSint8
                0x48075c28                var2Buf64BitIntelSint8
                0x48074d7c                var2Buf64BitMotorolaSint32
                0x48076698                buf2Var64BitIntelSint16
                0x48075aec                var2Buf64BitIntelUint8
                0x48078090                var2BufGenFrameMotorolaUint64
                0x480775f0                buf2VarGenFrameMotorolaUint16
                0x48076cfc                buf2VarBypassUint8
                0x48074a88                var2Buf64BitMotorolaReal32
                0x480777b0                buf2VarGenFrameIntelUint16
                0x480746ec                buf2VarSimpleSint8
                0x480778ec                var2BufIndirectMotorolaUint32
                0x48078a9c                buf2VarGenFrameIntelSint64
                0x48076c54                buf2VarBypassMotorolaSint16
                0x48074368                var2BufSimpleUint32
                0x480786cc                buf2VarGenFrameMotorolaSint64
                0x48074a60                buf64BitInit
                0x48077d18                buf2VarIndirectIntelReal64
                0x48078e18                buf2VarIndirectIntelReal32
                0x480768e0                var2BufBypassMotorolaSint32
                0x480794b8                var2BufBypassIntelUint16
                0x480776b0                buf2VarGenFrameMotorolaSint8
                0x48077f60                var2BufGenFrameMotorolaSint64
                0x48076f1c                var2BufBypassMaskedMotorolaSint16
                0x48076f90                var2BufBypassMaskedMotorolaBoolUint16
                0x480784b8                var2BufGenFrameIntelUint64
                0x48077270                var2BufGenFrameMotorolaUint8
                0x480744d8                var2BufSimpleUint8
                0x480749bc                buf2VarByteOffsetReal32
                0x48077af0                var2BufIndirectSint8
                0x48074660                buf2VarSimpleReal32
                0x48078d78                buf2VarIndirectIntelSint32
                0x48079454                var2BufBypassIntelSint16
                0x4807604c                buf2Var64BitMotorolaUint32
                0x48076888                var2BufBypassMotorolaUint32
                0x48079280                var2BufBypassMaskedIntelUint32
                0x48077a3c                var2BufIndirectIntelReal64
                0x48077060                var2BufBypassMaskedSint8
                0x480749d0                buf2VarByteOffsetUint32
                0x48077430                var2BufGenFrameIntelSint16
                0x48074704                buf2VarSimpleBool
                0x480746a8                buf2VarSimpleUint16
                0x480761c8                buf2Var64BitMotorolaSint8
                0x48076c1c                buf2VarBypassMotorolaUint16
                0x480749ac                buf2VarByteOffsetReal64
                0x48078f0c                var2BufIndirectIntelSint32
                0x48077c88                buf2VarIndirectMotorolaUint16
                0x48078b60                buf2VarGenFrameIntelUint64
                0x480769e8                var2BufBypassIntelReal64
                0x480764e0                buf2Var64BitIntelUint32
                0x4807612c                buf2Var64BitMotorolaSint16
                0x480771b0                var2BufGenFrameMotorolaSint32
                0x48075e84                buf2Var64BitMotorolaReal64
                0x48075f9c                buf2Var64BitMotorolaSint64
                0x48074a0c                buf2VarByteOffsetSint16
                0x48077a9c                var2BufIndirectUint8
                0x48077830                buf2VarGenFrameIntelUint8
                0x48078eb0                var2BufIndirectIntelUint16
                0x48077d8c                buf2VarIndirectUint8
                0x48077b44                var2BufIndirectBool
                0x480795e4                var2BufBypassIntelReal32
                0x48077370                var2BufGenFrameIntelUint32
                0x48074420                var2BufSimpleUint16
                0x48077940                var2BufIndirectMotorolaSint32
                0x48077570                buf2VarGenFrameMotorolaUint32
                0x480747f0                var2BufByteOffsetUint16
                0x48076214                buf2Var64BitIntelReal64
                0x48076570                buf2Var64BitIntelSint32
                0x48077130                var2BufGenFrameMotorolaReal32
                0x48075090                var2Buf64BitMotorolaSint8
                0x48077e14                formulaOutReal64
                0x48074530                var2BufSimpleSint8
                0x48077870                buf2VarGenFrameIntelSint8
                0x48077e30                formulaInReal64
                0x48074a74                var2Buf64BitMotorolaReal64
                0x4807447c                var2BufSimpleSint16
                0x48077470                var2BufGenFrameIntelUint8
                0x48076b90                buf2VarBypassMotorolaReal32
                0x48077c08                buf2VarIndirectMotorolaUint32
                0x48078570                var2BufGenFrameIntelReal64
                0x480779e8                var2BufIndirectMotorolaSint16
                0x480759ac                var2Buf64BitIntelSint16
                0x48076a40                var2BufBypassUint8
                0x480746c0                buf2VarSimpleSint16
                0x48078dc8                buf2VarIndirectIntelUint32
                0x48076ddc                var2BufBypassMaskedMotorolaSint32
                0x48078cc8                buf2VarIndirectIntelSint16
                0x4807433c                var2BufSimpleReal64
                0x48076874                var2BufBypassMotorolaReal32
                0x48074a20                buf2VarByteOffsetUint8
                0x48078400                var2BufGenFrameIntelSint64
                0x480791fc                var2BufBypassMaskedIntelSint32
                0x48074bd0                var2Buf64BitMotorolaSint64
                0x48079304                buf2VarBypassIntelSint16
                0x48074350                var2BufSimpleReal32
                0x48076af0                var2BufBypassBool
                0x48075d64                var2Buf64BitIntelBool
 .text          0x48079660      0xdb4 C:\Program Files (x86)\ETAS\INTECRIO4.7\Target\Etarget\ES910\libtarget.a(i_osman.o)
                0x48079bac                etasRemoveStopUserModeCallback
                0x48079e24                activateTaskWithId
                0x4807971c                findCurAppModeName
                0x48079888                getTaskIdForTask
                0x4807998c                clearMeasureGroupForTask
                0x48079a24                clearLogGroupForTask
                0x48079ce4                etasInitTaskTerminationHook
                0x4807a1a8                isModelStarted
                0x48079684                getEEId
                0x480797b8                getTaskPtrForId
                0x48079b20                etasAddInitTaskTerminationCallback
                0x48079ae8                etasAddStopUserModeCallback
                0x48079cb4                etasStopUserModeHook
                0x48079660                etasInitOsProcess
                0x480798c8                findCurTaskName
                0x480799b0                setMeasureGroupForTask
                0x48079a48                setLogGroupForTask
                0x48079be4                etasRemoveInitTaskTerminationCallback
 .text          0x4807a414     0x71f4 C:\Program Files (x86)\ETAS\INTECRIO4.7\Target\Etarget\ES910\libtarget.a(i_rtioma.o)
                0x4807a450                rtioCheckStartup
                0x4807a4ac                registerRtioDriverLockedCallback
                0x4807a4a0                etasRtioInitProcess
                0x48080d9c                rtioHook
                0x48080678                rtioSignalDriverLock
                0x4807a4a8                etasRtioExitProcess
                0x48080544                etasRtioIntDisableProcess
                0x4807a444                rtioSetConfigState
                0x4807a52c                deRegisterRtioDriverLockedCallback
                0x48080598                rtioSignalDriverUnlock
                0x48080564                etasRtioStartupProcess
                0x4807a438                rtioGetConfigState
                0x4807a5b0                rtioGetDriverLockedState
                0x4807a494                rtioIsOsExpertModeActive
                0x4807a488                rtioGetHwAbsenceBehavior
                0x4807a414                rtioSetLogPort
                0x4807a4a4                etasRtioIntEnableProcess
                0x4807a420                rtioSetConfigId
 .text          0x48081608      0x550 C:\Program Files (x86)\ETAS\INTECRIO4.7\Target\Etarget\ES910\libtarget.a(i_salone.o)
                0x48081b04                crossbarPrepareReconnection
                0x48081914                crossbarGetNextConfigResponse
                0x48081770                playbackConfigL1Records
                0x48081ab0                rtioPrepareReconnection
                0x48081a18                crossbarFinishReconnection
                0x480818a8                rtioGetNextConfigResponse
                0x48081980                rtioFinishReconnection
 .text          0x48081b58     0x13b4 C:\Program Files (x86)\ETAS\INTECRIO4.7\Target\Etarget\ES910\libtarget.a(t_croman.o)
                0x48081b64                crossbarSetConfigId
                0x48081b7c                crossbarGetConfigState
                0x48081b58                crossbarSetLogPort
                0x48081b88                crossbarSetConfigState
                0x48082e50                crossbarHook
 .text          0x48082f0c     0x1cf0 C:\Program Files (x86)\ETAS\INTECRIO4.7\Target\Etarget\ES910\libtarget.a(t_nvram.o)
                0x48083040                nvramClear
                0x48082ff0                nvramEnableAutoUpdate
                0x48083078                nvramResetStatistics
                0x48082f0c                nvramSetUpdateInterval
                0x48082fe4                nvramGetConsistencyLevel
                0x480841a0                nvramUpdateMemoryBackground
                0x48084600                nvramInit
                0x48083034                nvramCheckRunningUpdate
                0x48084104                nvramManualUpdateExit
                0x48083fcc                nvramManualUpdateBackground
                0x48083024                nvramCheckForAutoUpdate
                0x48084390                nvramInitModelVars
                0x4808306c                nvramCheckForInitializedVars
                0x4808359c                nvramGetUpdateAgeMs
                0x48083e98                nvramManualUpdateBlocked
                0x48082fc4                nvramSetConsistencyLevel
                0x4808300c                nvramDisableAutoUpdate
                0x480830dc                nvramGetStatistics
                0x48082f60                nvramGetUpdateInterval
 .text          0x48084bfc      0x6ec C:\Program Files (x86)\ETAS\INTECRIO4.7\Target\Etarget\ES910\libtarget.a(t_objlis.o)
                0x480851f0                createObjList
                0x48084bfc                dumpObjList
 .text          0x480852e8      0xcf8 C:\Program Files (x86)\ETAS\INTECRIO4.7\Target\Etarget\ES910\libtarget.a(t_rtcros.o)
                0x48085500                getObjectFromDynamicInstanceTree
                0x480852f4                deleteInstance_container
                0x480859a4                removeObjectFromDynamicInstanceTree
                0x48085390                initInstance_container
                0x48085b74                getValuePtr
                0x48085a8c                addObjectToDynamicInstanceTree
                0x48085920                getNextFreeRefIdOfDynamicInstanceTree
                0x480852e8                rtcrosSetLogPort
                0x480854d0                createDynamicInstanceTree
                0x48085bec                processBlockCommands
 .text          0x48085fe0     0x1b38 C:\Program Files (x86)\ETAS\INTECRIO4.7\Target\Etarget\ES910\libtarget.a(t_sgman.o)
                0x480879dc                sgHook
                0x48086140                sgGetComVarPtr
                0x480879a0                deleteComVarCallback
                0x48085fe0                sgGetCurTime
                0x48087944                sgGetObjPtr
 .text          0x48087b18     0x14d0 C:\Program Files (x86)\ETAS\INTECRIO4.7\Target\Etarget\ES910\libtarget.a(y_primit.o)
                0x4808841c                initInstance_columnDirMatrixWrapper
                0x48088ed8                initInstance_charTable1Wrapper
                0x48088974                initInstance_columnDirGroupCharTable2Wrapper
                0x48088580                initInstance_matrixWrapper
                0x48088b74                initInstance_groupCharTable1Wrapper
                0x48088834                initInstance_scalarWrapper
                0x48088a74                initInstance_groupCharTable2Wrapper
                0x480886e4                initInstance_vectorWrapper
                0x48088d9c                initInstance_charTable2Wrapper
                0x48088c60                initInstance_columnDirCharTable2Wrapper
 .text          0x48088fe8     0x19c8 C:\Program Files (x86)\ETAS\INTECRIO4.7\Target\Etarget\ES910\libtarget.a(a1b_dacq.o)
                0x480890d8                getA1bGroup
                0x4808a368                instanciateA1bChannel
                0x48089870                getA1bChannelGroupUpdateOffline
                0x4808a790                storeA1bDataForGroup
                0x48089e24                destructA1bChannelGroup
                0x4808a160                instanciateA1bGroup
                0x48089efc                freeA1bMeasureBuffers
                0x4808a770                allocateA1bMeasureBuffers
                0x48089094                addA1bChannelToA1bGroup
                0x48089c0c                destructA1bChannel
                0x48089174                removeA1bChannelFromA1bGroup
 .text          0x4808a9b0     0x1060 C:\Program Files (x86)\ETAS\INTECRIO4.7\Target\Etarget\ES910\libtarget.a(a_contai.o)
                0x4808b0c0                dVectorRewindHeadReentrant
                0x4808b004                dVectorRemoveObject
                0x4808b190                dVectorCreate
                0x4808aa08                dListGetObjectForward
                0x4808ad04                dTableRemoveLastObject
                0x4808b73c                dTableDelete
                0x4808ae58                dVectorGetObject
                0x4808a9f0                dListRewindTailReentrant
                0x4808b1e8                dTableCreate
                0x4808abc0                dTableGetObject
                0x4808ac5c                dTableIsEmpty
                0x4808ae40                dTableNofObjects
                0x4808aa60                dListGetObjectBackward
                0x4808b564                dTableAddObject
                0x4808b708                dTableDeleteStatic
                0x4808af6c                dVectorRemoveLastObject
                0x4808aee4                dVectorRemoveFirstObject
                0x4808ac7c                dTableRemoveFirstObject
                0x4808a9dc                dListRewindTail
                0x4808b2e4                dListAddObjectHead
                0x4808b9b0                dListDelete
                0x4808b780                dListRemoveObject
                0x4808aab8                dListGetObjectAtIndex
                0x4808b3c8                dVectorAddObject
                0x4808aa8c                dListGetObjectBackwardReentrant
                0x4808ab8c                dTableCreateStatic
                0x4808aa34                dListGetObjectForwardReentrant
                0x4808ae84                dVectorRemoveObjectAtIndex
                0x4808b0c8                dVectorGetObjectForwardReentrant
                0x4808b11c                dVectorGetIndexOfLastEntry
                0x4808b880                dListRemoveObjectTail
                0x4808b240                dListAddObjectTail
                0x4808abf8                dTableRemoveObject
                0x4808b520                dVectorDelete
                0x4808b918                dListRemoveObjectHead
                0x4808b0a0                dVectorIsEmpty
                0x4808ab48                dListIsEmpty
                0x4808b38c                dListCreate
                0x4808ad9c                dTableTestFunc
                0x4808b104                dVectorNofObjects
                0x4808a9b0                dListRewindHead
                0x4808ab74                dListNofObjects
                0x4808a9c4                dListRewindHeadReentrant
 .text          0x4808ba10     0x2378 C:\Program Files (x86)\ETAS\INTECRIO4.7\Target\Etarget\ES910\libtarget.a(t_sglow.o)
                0x4808c96c                freeDataSignal
                0x4808cd9c                makeDataSignal
                0x4808c580                computeTimeSliceTimes
                0x4808c248                setSinewaveSignal
                0x4808bc3c                getIntervalNr
                0x4808c880                deleteTimeSlice
                0x4808daec                freeChannel
                0x4808cdd4                makeLinearSignal
                0x4808dbe0                freeStimuliSet
                0x4808c3a0                setIntervalPulseSignal
                0x4808c9d0                freeInterval
                0x4808c354                setPulseSignal
                0x4808c52c                setTimeSlice
                0x4808bb74                insertTimeSlice
                0x4808cc30                makeSinewaveSignal
                0x4808d16c                makeIntervalDataSignal
                0x4808bff8                binsearch
                0x4808c90c                freeRandomSignal
                0x4808bf34                getLinearSignalY
                0x4808bb28                getTimeSliceNr
                0x4808c664                getTimeSliceT
                0x4808d340                getRandomSignalY
                0x4808c92c                freePulseSignal
                0x4808c460                setRandomSignal
                0x4808d83c                getChannelY
                0x4808cd4c                setIntervalDataSignal
                0x4808d560                getSinewaveSignalY
                0x4808dcf4                makeStimuliSet
                0x4808bd5c                computeIntervalTimes
                0x4808be9c                setIntervalLinearSignal
                0x4808cae4                makeTimeSlice
                0x4808cdf8                makeIntervalRandomSignal
                0x4808ba5c                insertChannel
                0x4808bc88                insertInterval
                0x4808c494                setIntervalRandomSignal
                0x4808bdb0                computeChannelTimes
                0x4808cf14                makeIntervalPulseSignal
                0x4808be68                setLinearSignal
                0x4808c5e8                computeStimuliSetTimes
                0x4808cbb0                makeFunctionSignal
                0x4808ba10                getChannelNr
                0x4808da78                resetStimuliSet
                0x4808ca60                deleteInterval
                0x4808c718                getT
                0x4808dc6c                makeChannel
                0x4808cbe8                makeRandomSignal
                0x4808bd50                resetInterval
                0x4808d68c                getIntervalY
                0x4808d408                getPulseSignalY
                0x4808c294                setIntervalSinewaveSignal
                0x4808cc0c                makePulseSignal
                0x4808c860                freeTimeSlice
                0x4808c56c                resetTimeSlice
                0x4808c09c                getDataSignalY
                0x4808c94c                freeSinewaveSignal
                0x4808c9b0                freeLinearSignal
                0x4808db5c                deleteChannel
                0x4808d228                makeIntervalLinearSignal
                0x4808cc54                setDataSignal
                0x4808d9a8                resetChannel0
                0x4808d040                makeIntervalSinewaveSignal
 .text          0x4808dd88        0x0 C:\Program Files (x86)\ETAS\INTECRIO4.7\Target\Etarget\rtio\global\es910\librtio_gnu.a(comm_err.o)
 .text          0x4808dd88       0xa0 C:\Program Files (x86)\ETAS\INTECRIO4.7\Target\Etarget\rtio\global\es910\librtio_gnu.a(p_rtio.o)
                0x4808dd88                rtioSignalHwAccessEnd
                0x4808dde0                rtioSignalHwAccessBegin
 .text          0x4808de28      0xaa8 C:\Program Files (x86)\ETAS\INTECRIO4.7\Target\Etarget\rtio\global\es910\librtio_gnu.a(p_rtio_s.o)
                0x4808e88c                setupRTIO
                0x4808e654                es910IsEtherCATEnabled
                0x4808de34                getMasterId
                0x4808e04c                rtioHwDetect
                0x4808e50c                rtioTestBoardPresence
                0x4808df24                printDetectedHardware
                0x4808de50                rtioGetNextDetectedHwTableEntry
                0x4808de28                es910RtioGetFpgaRegsGlobal
                0x4808e804                es910RtioMapFpgaRegsGlobal
                0x4808e760                es910RtioUnmapFpgaRegsGlobal
                0x4808de3c                rtioRewindDetectedHwTable
                0x4808e6ec                es910RtioIntDisable
 .text          0x4808e8d0      0xae8 C:\Program Files (x86)\ETAS\INTECRIO4.7\Target\Etarget\rtio\global\es910\librtio_gnu.a(rtio_err.o)
                0x4808eaac                clearErrMsgList
                0x4808ea08                deactivateRtioMsgLists
                0x4808e974                installEtasPseudoGeoAdrBoardNames
                0x4808e950                installCommErrMessages
                0x4808e980                installUserBoardNames
                0x4808e8d0                initMessageTables
                0x4808ea40                getNextErrMsg
                0x4808ec04                rtioGetBoardName
                0x4808e968                installEtasAutoIdBoardNames
                0x4808f060                rtioErr
                0x4808e930                mapErrorCode
                0x4808e98c                installEtasVirtualBoardNames
                0x4808e998                installMessages
                0x4808ea1c                rewindErrMsgList
                0x4808eb34                clearCurErrMsg
                0x4808e9f8                activateRtioMsgLists
                0x4808eddc                rtioErrV2
                0x4808e95c                installEtasBoardNames
 .text          0x4808f3b8      0x798 C:\Program Files (x86)\ETAS\INTECRIO4.7\Target\Etarget\ES910\rta_osek\librtk_s.a(ostarget.o)
                0x4808f3b8                os_get_sw_int_info
                0x4808f6d4                os_pre_start
                0x4808f58c                os_detach_interrupts
                0x4808f440                os_generate_sw_int
 .text          0x4808fb50       0x30 C:\Program Files (x86)\ETAS\INTECRIO4.7\Target\Etarget\ES910\rta_osek\librtk_s.a(osfptgt.o)
                0x4808fb50                os_fp_save
                0x4808fb7c                os_fp_restore_from
                0x4808fb64                os_fp_restore
                0x4808fb78                os_fp_save_to
 .text          0x4808fb80       0x94 C:\Program Files (x86)\ETAS\INTECRIO4.7\Target\Etarget\ES910\rta_osek\librtk_s.a(osiwrap1.o)
                0x4808fb80                os_cat1_wrapper
 .text          0x4808fc14      0x288 C:\Program Files (x86)\ETAS\INTECRIO4.7\Target\Etarget\ES910\rta_osek\librtk_s.a(osxdspnf.o)
                0x4808fc14                osek_dispatchN2F
 .text          0x4808fe9c      0x10c C:\Program Files (x86)\ETAS\INTECRIO4.7\Target\Etarget\ES910\rta_osek\librtk_s.a(osysd1hf.o)
                0x4808fe9c                os_fdispH1
 .text          0x4808ffa8      0x2d4 C:\Program Files (x86)\ETAS\INTECRIO4.7\Target\Etarget\ES910\rta_osek\librtk_s.a(osysdfhf.o)
                0x4808ffa8                os_fdispH2F
 .text          0x4809027c      0x2cc C:\Program Files (x86)\ETAS\INTECRIO4.7\Target\Etarget\ES910\rta_osek\librtk_s.a(osysdfhi.o)
                0x4809027c                os_idispH2F
 .text          0x48090548       0x34 C:\Program Files (x86)\ETAS\INTECRIO4.7\Target\Etarget\ES910\rta_osek\librtk_s.a(ostgid.o)
                0x48090548                GetTaskID
 .text          0x4809057c      0x174 C:\Program Files (x86)\ETAS\INTECRIO4.7\Target\Etarget\ES910\rta_osek\librtk_s.a(ostschf.o)
                0x4809057c                ScheduleSW2F
 .text          0x480906f0       0x50 C:\Program Files (x86)\ETAS\INTECRIO4.7\Target\Etarget\ES910\rta_osek\librtk_s.a(osieai.o)
                0x480906f0                EnableAllInterrupts
 .text          0x48090740       0x60 C:\Program Files (x86)\ETAS\INTECRIO4.7\Target\Etarget\ES910\rta_osek\librtk_s.a(osidai.o)
                0x48090740                DisableAllInterrupts
 .text          0x480907a0       0x98 C:\Program Files (x86)\ETAS\INTECRIO4.7\Target\Etarget\ES910\rta_osek\librtk_s.a(osisoi.o)
                0x480907a0                SuspendOSInterrupts
 .text          0x48090838       0x68 C:\Program Files (x86)\ETAS\INTECRIO4.7\Target\Etarget\ES910\rta_osek\librtk_s.a(osirai.o)
                0x48090838                ResumeAllInterrupts
 .text          0x480908a0       0x84 C:\Program Files (x86)\ETAS\INTECRIO4.7\Target\Etarget\ES910\rta_osek\librtk_s.a(osisai.o)
                0x480908a0                SuspendAllInterrupts
 .text          0x48090924       0x70 C:\Program Files (x86)\ETAS\INTECRIO4.7\Target\Etarget\ES910\rta_osek\librtk_s.a(osxperr2.o)
                0x48090924                os_pre_errorhook2
 .text          0x48090994        0x0 C:\Program Files (x86)\ETAS\INTECRIO4.7\Target\Etarget\ES910\rta_osek\librtk_s.a(osxglobs.o)
 .text          0x48090994      0x104 C:\Program Files (x86)\ETAS\INTECRIO4.7\Target\Etarget\ES910\rta_osek\librtk_s.a(osostart.o)
                0x48090994                StartOS
 .text          0x48090a98       0x6c C:\Program Files (x86)\ETAS\INTECRIO4.7\Target\Etarget\ES910\rta_osek\librtk_s.a(ososhuth.o)
                0x48090a98                ShutdownOSH
 .text          0x48090b04       0x34 C:\Program Files (x86)\ETAS\INTECRIO4.7\Target\Etarget\ES910\rta_osek\librtk_s.a(osttermh.o)
                0x48090b04                TerminateTaskH
 .text          0x48090b38      0x2d8 C:\Program Files (x86)\ETAS\INTECRIO4.7\Target\Etarget\ES910\rta_osek\librtk_s.a(ostactsf.o)
                0x48090b38                ActivateTaskSW2F
 .text          0x48090e10      0x284 C:\Program Files (x86)\ETAS\INTECRIO4.7\Target\Etarget\ES910\rta_osek\librtk_s.a(ostactnf.o)
                0x48090e10                ActivateTaskNS2F
 .text          0x48091094      0x100 C:\Program Files (x86)\ETAS\INTECRIO4.7\Target\Etarget\ES910\rta_osek\librtk_s.a(osatickn.o)
                0x48091094                osek_tick_alarm
 .text          0x48091194       0xbc C:\Program Files (x86)\ETAS\INTECRIO4.7\Target\Etarget\ES910\rta_osek\librtk_s.a(osacallb.o)
                0x48091194                osek_alarm_callback
 .text          0x48091250       0x20 C:\Program Files (x86)\ETAS\INTECRIO4.7\Target\Etarget\ES910\rta_osek\librtk_s.a(osxdpsho.o)
                0x48091250                os_pre_ShutdownOS
 .text          0x48091270      0x170 C:\Program Files (x86)\ETAS\INTECRIO4.7\Target\Etarget\ES910\rta_osek\librtk_s.a(osiwrap.o)
                0x48091270                os_wrapper
 .text          0x480913e0       0xd0 C:\Program Files (x86)\ETAS\INTECRIO4.7\Target\Etarget\ES910\rta_osek\librtk_s.a(osxjmp.o)
                0x48091444                os_longjmp
                0x480913e0                os_setjmp
 .text          0x480914b0       0x5c C:\Program Files (x86)\ETAS\INTECRIO4.7\Target\Etarget\ES910\rta_osek\librtk_s.a(ososhutn.o)
                0x480914b0                ShutdownOSN
 .text          0x4809150c      0x528 C:\Program Files (x86)\ETAS\INTECRIO4.7\Target\Etarget\ES910\libcommon.a(p_execl1.o)
                0x48091660                execInternal
                0x4809150c                getMethodTab
                0x4809155c                getNumberOfVariables
                0x48091760                executeMethod
                0x48091584                getASDObjectForPseudoAddress
                0x48091898                classVarAt
                0x480917ec                respondsTo
                0x48091534                getNumberOfMethods
                0x48091968                instVarAt
 .text          0x48091a34      0x8d4 C:\Program Files (x86)\ETAS\INTECRIO4.7\Target\Etarget\ES910\libcommon.a(p_protl1.o)
                0x48091df0                addL1PseudoAddressNoOffset
                0x480922a0                addString
                0x48092164                removeString
                0x48091ed8                removeL1PseudoAddressNoOffset
                0x48091a34                newL1Message
                0x48091c90                removeScalar
                0x48091ad4                resetL1PriorityError
                0x48092210                addBlock
                0x48091ab0                setL1ErrorNumber
                0x48091ac8                requestL1PriorityError
                0x48091a5c                modifyL1Destination
                0x48091a74                dummyL1Message
                0x48091bec                addScalar
                0x48091ae4                getL1ErrorStatus
                0x48091e54                addL1PseudoAddress
                0x48091fe4                logPseudoAddress
                0x48091bd4                isL1MessageEmpty
                0x480920d8                removeBlock
                0x48091d34                addL1PseudoAddressNoLevelNoOffset
                0x48091a9c                resetL1Message
 .text          0x48092308      0x254 C:\Program Files (x86)\ETAS\INTECRIO4.7\Target\Etarget\ES910\libcommon.a(p_stdeb.o)
                0x48092438                asdIsStringContainedInObject
                0x480923f4                asdClearString
                0x48092494                asdWriteString
 .text          0x4809255c      0x3e0 Accel_Data_ETR071/Accel_Data_ETR071.a(Accel_Data_ETR07_main.o)
                0x480927e0                irt_Start_Accel_Data_ETR07
                0x48092758                irt_OneStep_Accel_Data_ETR07
                0x480926d4                irt_Terminate_Accel_Data_ETR07
 .text          0x4809293c       0x64 Accel_Data_ETR071/Accel_Data_ETR071.a(rt_sim.o)
                0x4809299c                rt_SimUpdateDiscreteTaskSampleHits_Accel_Data_ETR07
                0x48092968                rt_SimGetNextSampleHit_Accel_Data_ETR07
                0x4809293c                rt_SimInitTimingEngine_Accel_Data_ETR07
 .text          0x480929a0      0x3e0 Car_State_ETR071/Car_State_ETR071.a(Car_State_ETR07_main.o)
                0x48092b9c                irt_OneStep_Car_State_ETR07
                0x48092b18                irt_Terminate_Car_State_ETR07
                0x48092c24                irt_Start_Car_State_ETR07
 .text          0x48092d80       0x64 Car_State_ETR071/Car_State_ETR071.a(rt_sim.o)
                0x48092d80                rt_SimInitTimingEngine_Car_State_ETR07
                0x48092de0                rt_SimUpdateDiscreteTaskSampleHits_Car_State_ETR07
                0x48092dac                rt_SimGetNextSampleHit_Car_State_ETR07
 .text          0x48092de4      0x3e0 Disconnections_ETR071/Disconnections_ETR071.a(Disconnections_ETR07_main.o)
                0x48092fe0                irt_OneStep_Disconnections_ETR07
                0x48093068                irt_Start_Disconnections_ETR07
                0x48092f5c                irt_Terminate_Disconnections_ETR07
 .text          0x480931c4       0x64 Disconnections_ETR071/Disconnections_ETR071.a(rt_sim.o)
                0x480931c4                rt_SimInitTimingEngine_Disconnections_ETR07
                0x480931f0                rt_SimGetNextSampleHit_Disconnections_ETR07
                0x48093224                rt_SimUpdateDiscreteTaskSampleHits_Disconnections_ETR07
 .text          0x48093228      0x3e0 inverters_action_ETR071/inverters_action_ETR071.a(inverters_action_ETR07_main.o)
                0x48093424                irt_OneStep_inverters_action_ETR07
                0x480934ac                irt_Start_inverters_action_ETR07
                0x480933a0                irt_Terminate_inverters_action_ETR07
 .text          0x48093608       0x64 inverters_action_ETR071/inverters_action_ETR071.a(rt_sim.o)
                0x48093634                rt_SimGetNextSampleHit_inverters_action_ETR07
                0x48093608                rt_SimInitTimingEngine_inverters_action_ETR07
                0x48093668                rt_SimUpdateDiscreteTaskSampleHits_inverters_action_ETR07
 .text          0x4809366c      0x3e0 Inverters_Data_ETR071/Inverters_Data_ETR071.a(Inverters_Data_ETR07_main.o)
                0x48093868                irt_OneStep_Inverters_Data_ETR07
                0x480938f0                irt_Start_Inverters_Data_ETR07
                0x480937e4                irt_Terminate_Inverters_Data_ETR07
 .text          0x48093a4c       0x64 Inverters_Data_ETR071/Inverters_Data_ETR071.a(rt_sim.o)
                0x48093a4c                rt_SimInitTimingEngine_Inverters_Data_ETR07
                0x48093a78                rt_SimGetNextSampleHit_Inverters_Data_ETR07
                0x48093aac                rt_SimUpdateDiscreteTaskSampleHits_Inverters_Data_ETR07
 .text          0x48093ab0      0x3e0 Pedals_Susp_Sensors_ETR071/Pedals_Susp_Sensors_ETR071.a(Pedals_Susp_Sensors_ETR07_main.o)
                0x48093d34                irt_Start_Pedals_Susp_Sensors_ETR07
                0x48093cac                irt_OneStep_Pedals_Susp_Sensors_ETR07
                0x48093c28                irt_Terminate_Pedals_Susp_Sensors_ETR07
 .text          0x48093e90       0x64 Pedals_Susp_Sensors_ETR071/Pedals_Susp_Sensors_ETR071.a(rt_sim.o)
                0x48093ebc                rt_SimGetNextSampleHit_Pedals_Susp_Sensors_ETR07
                0x48093ef0                rt_SimUpdateDiscreteTaskSampleHits_Pedals_Susp_Sensors_ETR07
                0x48093e90                rt_SimInitTimingEngine_Pedals_Susp_Sensors_ETR07
 .text          0x48093ef4      0x3e0 Racing_Mode_ETR071/Racing_Mode_ETR071.a(Racing_Mode_ETR07_main.o)
                0x480940f0                irt_OneStep_Racing_Mode_ETR07
                0x48094178                irt_Start_Racing_Mode_ETR07
                0x4809406c                irt_Terminate_Racing_Mode_ETR07
 .text          0x480942d4       0x64 Racing_Mode_ETR071/Racing_Mode_ETR071.a(rt_sim.o)
                0x48094334                rt_SimUpdateDiscreteTaskSampleHits_Racing_Mode_ETR07
                0x480942d4                rt_SimInitTimingEngine_Racing_Mode_ETR07
                0x48094300                rt_SimGetNextSampleHit_Racing_Mode_ETR07
 .text          0x48094338      0x3e0 Synchronism_ETR071/Synchronism_ETR071.a(Synchronism_ETR07_main.o)
                0x48094534                irt_OneStep_Synchronism_ETR07
                0x480944b0                irt_Terminate_Synchronism_ETR07
                0x480945bc                irt_Start_Synchronism_ETR07
 .text          0x48094718       0x64 Synchronism_ETR071/Synchronism_ETR071.a(rt_sim.o)
                0x48094778                rt_SimUpdateDiscreteTaskSampleHits_Synchronism_ETR07
                0x48094718                rt_SimInitTimingEngine_Synchronism_ETR07
                0x48094744                rt_SimGetNextSampleHit_Synchronism_ETR07
 .text          0x4809477c      0x408 Torque_Control_ETR071/Torque_Control_ETR071.a(Torque_Control_ETR07_main.o)
                0x4809499c                irt_OneStep_Torque_Control_ETR07
                0x48094a24                irt_Start_Torque_Control_ETR07
                0x48094918                irt_Terminate_Torque_Control_ETR07
 .text          0x48094b84       0x64 Torque_Control_ETR071/Torque_Control_ETR071.a(rt_sim.o)
                0x48094be4                rt_SimUpdateDiscreteTaskSampleHits_Torque_Control_ETR07
                0x48094bb0                rt_SimGetNextSampleHit_Torque_Control_ETR07
                0x48094b84                rt_SimInitTimingEngine_Torque_Control_ETR07
 .text          0x48094be8     0x1040 C:/Program Files (x86)/ETAS/INTECRIO4.7/Target/ETarget/rtio/es9xxcan/ES910/es9xxCan_gnu.lib(es9xxCan.o)
                0x48094dac                CanStop
                0x48094be8                CanIRQ0MultiAnalyze
                0x48094cb4                CanExit
                0x48095158                CanInit
                0x48094fc8                CanWrite
                0x48094c64                CanIRQ0Acknowledge
                0x48095090                CanRead
                0x48094edc                CanStart
 .text          0x48095c28      0x7a4 C:/Program Files (x86)/ETAS/INTECRIO4.7/Target/ETarget/rtio/es9xxcan/ES910/es9xxCan_gnu.lib(es9xxCanCanio.o)
                0x480960f0                es9xxCanCanioInit
                0x48095df8                es9xxCanCanioStart
                0x48095f2c                es9xxCanCanioWrite
                0x48095ea0                es9xxCanCanioRead
                0x48095c28                es9xxCanCanioExit
                0x48095d50                es9xxCanCanioStop
 .text          0x480963cc        0x0 C:/Program Files (x86)/ETAS/INTECRIO4.7/Target/ETarget/rtio/es9xxcan/ES910/es9xxCan_gnu.lib(es9xxCanErr.o)
 .text          0x480963cc      0x610 C:/Program Files (x86)/ETAS/INTECRIO4.7/Target/ETarget/rtio/es9xxcan/ES910/es9xxCan_gnu.lib(es9xxCanHalBuf.o)
                0x480963d4                es9xxCanHalBufIrqAnalyze
                0x480966f0                es9xxCanHalBufReadObj
                0x480963cc                es9xxCanHalBufIrqAck
                0x48096884                es9xxCanHalBufExit
                0x480968c8                es9xxCanHalBufDetectHW
                0x480964f8                es9xxCanHalBufDisableIrq
                0x480964f0                es9xxCanHalBufIrqReset
                0x48096500                es9xxCanHalBufAlloc
 .text          0x480969dc      0x8f0 C:/Program Files (x86)/ETAS/INTECRIO4.7/Target/ETarget/rtio/es9xxcan/ES910/es9xxCan_gnu.lib(es9xxCanHalIfi.o)
                0x48097134                es9xxCanHalIfiRemoteSend
                0x480969dc                es9xxCanHalIfiDetectHW
                0x480969e4                es9xxCanHalIfiExit
                0x48096f6c                es9xxCanHalIfiNormalSend
                0x48096a0c                es9xxCanHalIfiCheckCanState
                0x480969ec                es9xxCanHalIfiDefSndObj
                0x480969fc                es9xxCanHalIfiDelObj
                0x48096a04                es9xxCanHalIfiNormalRtrSupply
                0x48096ec0                es9xxCanHalIfiInitLowHighSpeed
                0x480972a8                es9xxCanHalIfiResetBoardSW
 .text          0x480972cc       0x40 C:/ETAS/Compiler/INTECRIO4.7/QNXCompiler-V6.5\host\win32\x86/usr/lib/gcc/powerpc-unknown-nto-qnx6.5.0/4.4.2/spe/libgcc.a(_floatdidf.o)
                0x480972cc                __floatdidf
 .text          0x4809730c     0x2ec0 C:\Program Files (x86)\ETAS\INTECRIO4.7\Target\Etarget\ES910\libes910.a(t_dataset.o)
                0x48098340                dsetDeleteParametersInRom
                0x4809730c                dsetCheckParametersRestoredFromRom
                0x480985bc                dsetCopyDataset
                0x480984a4                dsetStoreParametersToRom
                0x48097ab0                dsetSwitchToWorkingPage
                0x480988a0                dsetCalculateCrc32
                0x48097bcc                dsetRestoreParametersFromRom
                0x48098c08                dsetReadDataset
                0x48098114                dsetStoreVariablesToRam
                0x48097318                dsetGetErrorString
                0x480991a4                dsetWriteDataset
                0x480979f0                dsetRestoreVariablesFromRam
                0x48097350                dsetGetCurrentPage
                0x480998e8                dsetStoreReferencePage
                0x480981d0                dsetSwitchToReferencePage
                0x48099c14                dsetInit
 .text          0x4809a1cc       0x68 C:\Program Files (x86)\ETAS\INTECRIO4.7\Target\Etarget\ES910\libtarget.a(a_crc32.o)
                0x4809a1cc                crc32Init
                0x4809a1d8                crc32Update
                0x4809a224                crc32Finish
 *(.gnu.warning)
 *(.glink)
 .glink         0x00000000        0x0 C:/ETAS/Compiler/INTECRIO4.7/QNXCompiler-V6.5\target\qnx6/ppcbe-spe/lib/crt1.o

.fini           0x4809a234       0x20
 *(.fini)
 .fini          0x4809a234        0xc C:/ETAS/Compiler/INTECRIO4.7/QNXCompiler-V6.5\target\qnx6/ppcbe-spe/lib/crti.o
                0x4809a234                _fini
 .fini          0x4809a240        0x4 C:/ETAS/Compiler/INTECRIO4.7/QNXCompiler-V6.5\host\win32\x86/usr/lib/gcc/powerpc-unknown-nto-qnx6.5.0/4.4.2/spe/crtbegin.o
 .fini          0x4809a244       0x10 C:/ETAS/Compiler/INTECRIO4.7/QNXCompiler-V6.5\target\qnx6/ppcbe-spe/lib/crtn.o
                0x4809a254                PROVIDE (__etext, .)
                0x4809a254                PROVIDE (_etext, .)
                0x4809a254                PROVIDE (etext, .)

.rodata         0x4809a258    0x15c38
 *(.rodata .rodata.* .gnu.linkonce.r.*)
 .rodata.cst8   0x4809a258       0x18 ROOT_instances.o
 .rodata.str1.4
                0x4809a270        0x9 ROOT_instances.o
 *fill*         0x4809a279        0x3 00
 .rodata        0x4809a27c        0x4 Accel_Data_ETR071/Accel_Data_ETR071.a(Accel_Data_ETR07.o)
                0x4809a27c                Accel_Data_ETR07_M
 .rodata.cst8   0x4809a280       0x18 Accel_Data_ETR071/Accel_Data_ETR071.a(Accel_Data_ETR07.o)
                                 0x20 (size before relaxing)
 .rodata        0x4809a298       0x28 Car_State_ETR071/Car_State_ETR071.a(Car_State_ETR07.o)
                0x4809a2bc                Car_State_ETR07_M
 .rodata.cst8   0x4809a2c0       0x30 Car_State_ETR071/Car_State_ETR071.a(Car_State_ETR07.o)
                                 0x48 (size before relaxing)
 .rodata        0x4809a2f0        0x4 Disconnections_ETR071/Disconnections_ETR071.a(Disconnections_ETR07.o)
                0x4809a2f0                Disconnections_ETR07_M
 *fill*         0x4809a2f4        0x4 00
 .rodata.cst8   0x4809a2f8       0x10 Disconnections_ETR071/Disconnections_ETR071.a(Disconnections_ETR07.o)
                                 0x38 (size before relaxing)
 .rodata        0x4809a308       0xcc inverters_action_ETR071/inverters_action_ETR071.a(inverters_action_ETR07.o)
                0x4809a3d0                inverters_action_ETR07_M
 *fill*         0x4809a3d4        0x4 00
 .rodata.cst8   0x4809a3d8       0x10 inverters_action_ETR071/inverters_action_ETR071.a(inverters_action_ETR07.o)
                                 0x30 (size before relaxing)
 .rodata        0x4809a3e8        0x4 Inverters_Data_ETR071/Inverters_Data_ETR071.a(Inverters_Data_ETR07.o)
                0x4809a3e8                Inverters_Data_ETR07_M
 .rodata.cst8   0x00000000       0x20 Inverters_Data_ETR071/Inverters_Data_ETR071.a(Inverters_Data_ETR07.o)
 .rodata        0x4809a3ec        0x4 LVD_Data_ETR071/LVD_Data_ETR071.a(LVD_Data_ETR07.o)
                0x4809a3ec                LVD_Data_ETR07_M
 .rodata.cst8   0x00000000       0x20 LVD_Data_ETR071/LVD_Data_ETR071.a(LVD_Data_ETR07.o)
 .rodata        0x4809a3f0        0x4 Pedals_Susp_Sensors_ETR071/Pedals_Susp_Sensors_ETR071.a(Pedals_Susp_Sensors_ETR07.o)
                0x4809a3f0                Pedals_Susp_Sensors_ETR07_M
 .rodata.cst8   0x00000000       0x20 Pedals_Susp_Sensors_ETR071/Pedals_Susp_Sensors_ETR071.a(Pedals_Susp_Sensors_ETR07.o)
 .rodata        0x4809a3f4      0x104 Racing_Mode_ETR071/Racing_Mode_ETR071.a(Racing_Mode_ETR07.o)
                0x4809a4f4                Racing_Mode_ETR07_M
 .rodata.cst8   0x00000000       0x20 Racing_Mode_ETR071/Racing_Mode_ETR071.a(Racing_Mode_ETR07.o)
 .rodata        0x4809a4f8        0x4 Synchronism_ETR071/Synchronism_ETR071.a(Synchronism_ETR07.o)
                0x4809a4f8                Synchronism_ETR07_M
 .rodata.cst8   0x00000000       0x20 Synchronism_ETR071/Synchronism_ETR071.a(Synchronism_ETR07.o)
 *fill*         0x4809a4fc        0x4 00
 .rodata        0x4809a500       0x4c Torque_Control_ETR071/Torque_Control_ETR071.a(Torque_Control_ETR07.o)
                0x4809a548                Torque_Control_ETR07_M
 *fill*         0x4809a54c        0x4 00
 .rodata.cst8   0x4809a550      0x878 Torque_Control_ETR071/Torque_Control_ETR071.a(Torque_Control_ETR07.o)
                                0x8b8 (size before relaxing)
 .rodata.str1.4
                0x4809adc8        0x5 Torque_Control_ETR071/Torque_Control_ETR071.a(Torque_Control_ETR07.o)
 *fill*         0x4809adcd        0x3 00
 .rodata.cst8   0x4809add0       0x10 matlabsharedR2017b/matlabsharedR2017b.a(mldivide_u4svsr16.o)
                                 0x18 (size before relaxing)
 .rodata.cst8   0x00000000       0x10 matlabsharedR2017b/matlabsharedR2017b.a(polyfit_vylrx3xp.o)
 .rodata.cst8   0x00000000       0x20 matlabsharedR2017b/matlabsharedR2017b.a(rt_powd_snf.o)
 .rodata.cst8   0x4809ade0       0x18 matlabsharedR2017b/matlabsharedR2017b.a(xgeqp3_bpnhoopt.o)
                                 0x28 (size before relaxing)
 .rodata.cst8   0x00000000       0x20 matlabsharedR2017b/matlabsharedR2017b.a(xgeqp3_wlxeyd7k.o)
 .rodata.cst8   0x4809adf8        0x8 matlabsharedR2017b/matlabsharedR2017b.a(xnrm2_5mghfn4r.o)
                                 0x18 (size before relaxing)
 .rodata.cst8   0x00000000       0x18 matlabsharedR2017b/matlabsharedR2017b.a(xnrm2_ecih3nop.o)
 .rodata.cst8   0x00000000       0x18 matlabsharedR2017b/matlabsharedR2017b.a(xnrm2_kgimahi2.o)
 .rodata.cst8   0x00000000       0x18 matlabsharedR2017b/matlabsharedR2017b.a(xnrm2_uobmrgas.o)
 .rodata.cst4   0x4809ae00        0x8 matlabsharedR2017b/matlabsharedR2017b.a(rtgetinf.o)
 .rodata.cst8   0x00000000        0x8 matlabsharedR2017b/matlabsharedR2017b.a(rtgetinf.o)
 .rodata.cst8   0x00000000        0x8 matlabsharedR2017b/matlabsharedR2017b.a(rtgetnan.o)
 .rodata.cst8   0x4809ae08        0x8 matlabsharedR2017b/matlabsharedR2017b.a(rt_hypotd_snf.o)
                                 0x10 (size before relaxing)
 .rodata        0x4809ae10      0x55c OSC/osekdefs.o
                0x4809afe0                SWT_CAN1_AP_BMS_OnBoardTemperatures
                0x4809af94                SWT_CAN2_AP_ADCAN_Data2
                0x4809afa0                SWT_CAN2_NM_ACCEL_F_Keep_Alive
                0x4809afc0                SWT_CAN1_AP_DASH_PrechargeRequest
                0x4809afcc                SWT_CAN1_NM_BMS_Keep_Alive
                0x4809af80                SWT_CAN1_AP_BMS_Current_SOC
                0x4809b01c                etasTimerIsr
                0x4809b00c                Timer_Inv
                0x4809afc8                SWT_CAN1_NM_DASH_Keep_Alive
                0x4809afe8                SWT_CAN1_AP_BMS_StateAndFailReport
                0x4809b004                Timer_100ms
                0x4809b014                etasConfigTask
                0x4809af90                SWT_CAN2_AP_ADCAN_Data1
                0x4809b024                etasStopOsIsr
                0x4809b04c                TIMER_INV
                0x4809b010                etasL1Task
                0x4809b038                etasWatchdogAlarm
                0x4809afa8                SWT_CAN2_NM_LV_Derivation_Keep_Alive
                0x4809afb8                SWT_CAN1_AP_SHUTDOWN_State
                0x4809aff4                SWT_CAN1_AP_BMS_BatteryTemperatures
                0x4809afbc                SWT_CAN1_AP_DASH_EnableDrive
                0x4809afdc                SWT_CAN1_AP_Inverter_R_Tx
                0x4809b040                TIMER_1000MS
                0x4809b048                TIMER_25MS
                0x4809b030                NewISR1
                0x4809b028                etasActivateTaskIsr
                0x4809af8c                SWT_CAN2_NM_ADCAN_Keep_Alive
                0x4809afac                SWT_CAN2_AP_ACCEL_R_Data2
                0x4809b018                osek_idle_task
                0x4809afd8                SWT_CAN1_AP_Inverter_L_Tx
                0x4809b000                Timer_1000ms
                0x4809b02c                NewISR
                0x4809b03c                SYNC_25MS
                0x4809af84                SWT_CAN2_AP_ELIPSE_VelBody
                0x4809b020                etasL1Isr
                0x4809b044                TIMER_100MS
                0x4809afb0                SWT_CAN2_AP_LV_Derivation_LVData
                0x4809b050                osek_s_3_1_0
                0x4809afec                SWT_CAN1_AP_BMS_Current_SOC_SOH
                0x4809af7c                SWT_CAN1_AP_BMS_Current_SOC_SOH1
                0x4809affc                Sync_25ms
                0x4809afd4                SWT_CAN1_AP_DASH_CustomMode
                0x4809af88                SWT_CAN2_AP_ELIPSE_VelAngular
                0x4809af98                SWT_CAN2_AP_ACCEL_R_Data
                0x4809afb4                SWT_CAN1_NM_SHUTDOWN_Keep_Alive
                0x4809afe4                SWT_CAN1_AP_BMS_Voltages
                0x4809aff8                SWT_CAN1_AP_BMS_ChargerParameters
                0x4809aebc                RES_SCHEDULER
                0x4809b034                etasCounter
                0x4809af78                SWT_CAN1_AP_BMS_OnBoardTemperatures1
                0x4809afa4                SWT_CAN2_AP_ACCEL_F_Data
                0x4809afc4                SWT_CAN1_AP_DASH_TorqueLockOn
                0x4809b008                Timer_25ms
                0x4809af9c                SWT_CAN2_NM_ACCEL_R_Keep_Alive
                0x4809aff0                SWT_CAN1_AP_BMS_AIRs_State
                0x4809aec0                os_tasks
                0x4809afd0                SWT_CAN1_AP_DASH_Mode
 .rodata.str1.4
                0x4809b36c      0x472 OSC/osc_dyn.o
 *fill*         0x4809b7de        0x2 00
 .rodata        0x4809b7e0     0x61e4 ETC/RtioL1RecordTable.o
                0x480a19b8                l1RtioRequestRecord
                0x4809b7e0                rtioRequestMessages
 .rodata        0x480a19c4     0x5b64 CBC/CrossbarL1RecordTable.o
                0x480a751c                l1CrossbarRequestRecord
                0x480a19c4                crossbarRequestMessages
 .rodata.cst8   0x480a7528       0x10 C:/ETAS/Compiler/INTECRIO4.7/QNXCompiler-V6.5\host\win32\x86/usr/lib/gcc/powerpc-unknown-nto-qnx6.5.0/4.4.2/spe/libgcc.a(_fixunsdfdi.o)
 .rodata.cst8   0x00000000        0x8 C:/ETAS/Compiler/INTECRIO4.7/QNXCompiler-V6.5\host\win32\x86/usr/lib/gcc/powerpc-unknown-nto-qnx6.5.0/4.4.2/spe/libgcc.a(_floatundidf.o)
 .rodata        0x480a7538      0x1b3 C:\Program Files (x86)\ETAS\INTECRIO4.7\Target\Etarget\ES910\libes910.a(i_rtautil.o)
 *fill*         0x480a76eb        0x1 00
 .rodata.cst4   0x480a76ec        0x4 C:\Program Files (x86)\ETAS\INTECRIO4.7\Target\Etarget\ES910\libes910.a(i_rtautil.o)
 .rodata.cst8   0x480a76f0        0x8 C:\Program Files (x86)\ETAS\INTECRIO4.7\Target\Etarget\ES910\libes910.a(i_rtautil.o)
 .rodata.str1.4
                0x480a76f8      0xbc0 C:\Program Files (x86)\ETAS\INTECRIO4.7\Target\Etarget\ES910\libes910.a(i_rtautil.o)
                                0xbc8 (size before relaxing)
 .rodata        0x480a82b8       0xa4 C:\Program Files (x86)\ETAS\INTECRIO4.7\Target\Etarget\ES910\libes910.a(t_driverThreads.o)
 .rodata.str1.4
                0x480a835c      0x10b C:\Program Files (x86)\ETAS\INTECRIO4.7\Target\Etarget\ES910\libes910.a(t_driverThreads.o)
                                0x113 (size before relaxing)
 *fill*         0x480a8467        0x1 00
 .rodata.str1.4
                0x480a8468      0x1ac C:\Program Files (x86)\ETAS\INTECRIO4.7\Target\Etarget\ES910\libes910.a(t_idle.o)
 .rodata        0x480a8614       0xb7 C:\Program Files (x86)\ETAS\INTECRIO4.7\Target\Etarget\ES910\libes910.a(t_l1com.o)
 *fill*         0x480a86cb        0x1 00
 .rodata.str1.4
                0x480a86cc      0x8ea C:\Program Files (x86)\ETAS\INTECRIO4.7\Target\Etarget\ES910\libes910.a(t_l1com.o)
                                0x8fe (size before relaxing)
 *fill*         0x480a8fb6        0x2 00
 .rodata        0x480a8fb8       0x4c C:\Program Files (x86)\ETAS\INTECRIO4.7\Target\Etarget\ES910\libes910.a(t_main.o)
 .rodata.str1.4
                0x480a9004      0x3b5 C:\Program Files (x86)\ETAS\INTECRIO4.7\Target\Etarget\ES910\libes910.a(t_main.o)
                                0x3c1 (size before relaxing)
 *fill*         0x480a93b9        0x3 00
 .rodata        0x480a93bc       0x18 C:\Program Files (x86)\ETAS\INTECRIO4.7\Target\Etarget\ES910\libes910.a(t_mlog.o)
 .rodata.str1.4
                0x480a93d4      0x29b C:\Program Files (x86)\ETAS\INTECRIO4.7\Target\Etarget\ES910\libes910.a(t_mlog.o)
                                0x2db (size before relaxing)
 *fill*         0x480a966f        0x1 00
 .rodata.str1.4
                0x480a9670      0x1d8 C:\Program Files (x86)\ETAS\INTECRIO4.7\Target\Etarget\ES910\libes910.a(t_qnxtargetutil.o)
                                0x1f4 (size before relaxing)
 .rodata.cst8   0x480a9848        0x8 C:\Program Files (x86)\ETAS\INTECRIO4.7\Target\Etarget\ES910\libes910.a(t_targetutil.o)
                                 0x20 (size before relaxing)
 .rodata.str1.4
                0x480a9850       0x68 C:\Program Files (x86)\ETAS\INTECRIO4.7\Target\Etarget\ES910\libes910.a(t_targetutil.o)
                                 0x7a (size before relaxing)
 .rodata.str1.4
                0x480a98b8       0x76 C:\Program Files (x86)\ETAS\INTECRIO4.7\Target\Etarget\ES910\libes910.a(t_watchdog.o)
 *fill*         0x480a992e        0x2 00
 .rodata        0x480a9930       0x48 C:\Program Files (x86)\ETAS\INTECRIO4.7\Target\Etarget\ES910\libes910.a(p_chario.o)
 .rodata.str1.4
                0x480a9978      0x10f C:\Program Files (x86)\ETAS\INTECRIO4.7\Target\Etarget\ES910\libes910.a(p_chario.o)
                                0x11f (size before relaxing)
 *fill*         0x480a9a87        0x1 00
 .rodata.str1.4
                0x480a9a88       0x66 C:\Program Files (x86)\ETAS\INTECRIO4.7\Target\Etarget\ES910\libes910.a(t_hwTimeSync.o)
 .rodata.cst8   0x00000000       0x10 C:\Program Files (x86)\ETAS\INTECRIO4.7\Target\Etarget\ES910\libtarget.a(a_dacqui.o)
 *fill*         0x480a9aee        0x2 00
 .rodata.str1.4
                0x480a9af0       0x51 C:\Program Files (x86)\ETAS\INTECRIO4.7\Target\Etarget\ES910\libtarget.a(a_dacqui.o)
 .rodata.cst8   0x00000000       0x10 C:\Program Files (x86)\ETAS\INTECRIO4.7\Target\Etarget\ES910\libtarget.a(a_primit.o)
 *fill*         0x480a9b41        0x3 00
 .rodata.str1.4
                0x480a9b44       0x9c C:\Program Files (x86)\ETAS\INTECRIO4.7\Target\Etarget\ES910\libtarget.a(a_primit.o)
                                 0x9d (size before relaxing)
 .rodata        0x480a9be0       0x50 C:\Program Files (x86)\ETAS\INTECRIO4.7\Target\Etarget\ES910\libtarget.a(a_targma.o)
 .rodata.cst8   0x00000000       0x10 C:\Program Files (x86)\ETAS\INTECRIO4.7\Target\Etarget\ES910\libtarget.a(a_targma.o)
 .rodata.str1.4
                0x480a9c30      0x75d C:\Program Files (x86)\ETAS\INTECRIO4.7\Target\Etarget\ES910\libtarget.a(a_targma.o)
                                0x769 (size before relaxing)
 *fill*         0x480aa38d        0x3 00
 .rodata        0x480aa390      0x18c C:\Program Files (x86)\ETAS\INTECRIO4.7\Target\Etarget\ES910\libtarget.a(i_cpyfnc.o)
 *fill*         0x480aa51c        0x4 00
 .rodata.cst8   0x480aa520       0x48 C:\Program Files (x86)\ETAS\INTECRIO4.7\Target\Etarget\ES910\libtarget.a(i_cpyfnc.o)
                                 0x58 (size before relaxing)
 .rodata.cst8   0x00000000       0x18 C:\Program Files (x86)\ETAS\INTECRIO4.7\Target\Etarget\ES910\libtarget.a(i_mapfnc.o)
 .rodata.str1.4
                0x480aa568       0x75 C:\Program Files (x86)\ETAS\INTECRIO4.7\Target\Etarget\ES910\libtarget.a(i_osman.o)
 *fill*         0x480aa5dd        0x3 00
 .rodata        0x480aa5e0      0x120 C:\Program Files (x86)\ETAS\INTECRIO4.7\Target\Etarget\ES910\libtarget.a(i_rtioma.o)
 .rodata.cst8   0x480aa700        0x8 C:\Program Files (x86)\ETAS\INTECRIO4.7\Target\Etarget\ES910\libtarget.a(i_rtioma.o)
                                 0x20 (size before relaxing)
 .rodata.str1.4
                0x480aa708      0xdb9 C:\Program Files (x86)\ETAS\INTECRIO4.7\Target\Etarget\ES910\libtarget.a(i_rtioma.o)
                                0xddd (size before relaxing)
 *fill*         0x480ab4c1        0x3 00
 .rodata.str1.4
                0x480ab4c4      0x36a C:\Program Files (x86)\ETAS\INTECRIO4.7\Target\Etarget\ES910\libtarget.a(t_croman.o)
                                0x37e (size before relaxing)
 *fill*         0x480ab82e        0x2 00
 .rodata.str1.4
                0x480ab830      0x710 C:\Program Files (x86)\ETAS\INTECRIO4.7\Target\Etarget\ES910\libtarget.a(t_nvram.o)
 .rodata.str1.4
                0x480abf40      0x109 C:\Program Files (x86)\ETAS\INTECRIO4.7\Target\Etarget\ES910\libtarget.a(t_objlis.o)
                                0x10d (size before relaxing)
 *fill*         0x480ac049        0x3 00
 .rodata        0x480ac04c       0x58 C:\Program Files (x86)\ETAS\INTECRIO4.7\Target\Etarget\ES910\libtarget.a(t_rtcros.o)
 .rodata.str1.4
                0x480ac0a4      0x285 C:\Program Files (x86)\ETAS\INTECRIO4.7\Target\Etarget\ES910\libtarget.a(t_rtcros.o)
 .rodata.cst8   0x00000000       0x20 C:\Program Files (x86)\ETAS\INTECRIO4.7\Target\Etarget\ES910\libtarget.a(t_sgman.o)
 .rodata.str1.4
                0x00000000        0x1 C:\Program Files (x86)\ETAS\INTECRIO4.7\Target\Etarget\ES910\libtarget.a(t_sgman.o)
 .rodata.cst8   0x00000000        0x8 C:\Program Files (x86)\ETAS\INTECRIO4.7\Target\Etarget\ES910\libtarget.a(y_primit.o)
 *fill*         0x480ac329        0x3 00
 .rodata        0x480ac32c        0x8 C:\Program Files (x86)\ETAS\INTECRIO4.7\Target\Etarget\ES910\libtarget.a(a1b_dacq.o)
 *fill*         0x480ac334        0x4 00
 .rodata.cst8   0x480ac338       0x18 C:\Program Files (x86)\ETAS\INTECRIO4.7\Target\Etarget\ES910\libtarget.a(a1b_dacq.o)
                                 0x28 (size before relaxing)
 .rodata.str1.4
                0x480ac350       0xcd C:\Program Files (x86)\ETAS\INTECRIO4.7\Target\Etarget\ES910\libtarget.a(a1b_dacq.o)
 *fill*         0x480ac41d        0x3 00
 .rodata        0x480ac420       0x28 C:\Program Files (x86)\ETAS\INTECRIO4.7\Target\Etarget\ES910\libtarget.a(t_sglow.o)
 .rodata.cst8   0x480ac448        0x8 C:\Program Files (x86)\ETAS\INTECRIO4.7\Target\Etarget\ES910\libtarget.a(t_sglow.o)
                                 0x30 (size before relaxing)
 .rodata.str1.4
                0x480ac450      0x9ae C:\Program Files (x86)\ETAS\INTECRIO4.7\Target\Etarget\rtio\global\es910\librtio_gnu.a(comm_err.o)
                                0x9b2 (size before relaxing)
 *fill*         0x480acdfe        0x2 00
 .rodata        0x480ace00       0x2c C:\Program Files (x86)\ETAS\INTECRIO4.7\Target\Etarget\rtio\global\es910\librtio_gnu.a(p_rtio_s.o)
 .rodata.str1.4
                0x480ace2c      0x1dc C:\Program Files (x86)\ETAS\INTECRIO4.7\Target\Etarget\rtio\global\es910\librtio_gnu.a(p_rtio_s.o)
                                0x1e0 (size before relaxing)
 .rodata.str1.4
                0x480ad008      0x10d C:\Program Files (x86)\ETAS\INTECRIO4.7\Target\Etarget\rtio\global\es910\librtio_gnu.a(rtio_err.o)
                                0x11d (size before relaxing)
 *fill*         0x480ad115        0x3 00
 .rodata.str1.4
                0x480ad118      0x1b8 C:\Program Files (x86)\ETAS\INTECRIO4.7\Target\Etarget\ES910\rta_osek\librtk_s.a(ostarget.o)
 .rodata.str1.4
                0x480ad2d0       0x29 C:\Program Files (x86)\ETAS\INTECRIO4.7\Target\Etarget\ES910\libcommon.a(p_protl1.o)
                                 0x37 (size before relaxing)
 *fill*         0x480ad2f9        0x3 00
 .rodata.str1.4
                0x480ad2fc      0x15c Accel_Data_ETR071/Accel_Data_ETR071.a(Accel_Data_ETR07_main.o)
 .rodata.cst8   0x00000000       0x10 Accel_Data_ETR071/Accel_Data_ETR071.a(rt_sim.o)
 .rodata.str1.4
                0x480ad458       0x71 Accel_Data_ETR071/Accel_Data_ETR071.a(rt_sim.o)
 *fill*         0x480ad4c9        0x3 00
 .rodata.str1.4
                0x480ad4cc       0x3f Car_State_ETR071/Car_State_ETR071.a(Car_State_ETR07_main.o)
                                0x157 (size before relaxing)
 .rodata.cst8   0x00000000       0x10 Car_State_ETR071/Car_State_ETR071.a(rt_sim.o)
 .rodata.str1.4
                0x00000000       0x71 Car_State_ETR071/Car_State_ETR071.a(rt_sim.o)
 *fill*         0x480ad50b        0x1 00
 .rodata.str1.4
                0x480ad50c       0x4c Disconnections_ETR071/Disconnections_ETR071.a(Disconnections_ETR07_main.o)
                                0x164 (size before relaxing)
 .rodata.cst8   0x00000000       0x10 Disconnections_ETR071/Disconnections_ETR071.a(rt_sim.o)
 .rodata.str1.4
                0x00000000       0x71 Disconnections_ETR071/Disconnections_ETR071.a(rt_sim.o)
 .rodata.str1.4
                0x480ad558       0x4e inverters_action_ETR071/inverters_action_ETR071.a(inverters_action_ETR07_main.o)
                                0x166 (size before relaxing)
 .rodata.cst8   0x00000000       0x10 inverters_action_ETR071/inverters_action_ETR071.a(rt_sim.o)
 .rodata.str1.4
                0x00000000       0x71 inverters_action_ETR071/inverters_action_ETR071.a(rt_sim.o)
 *fill*         0x480ad5a6        0x2 00
 .rodata.str1.4
                0x480ad5a8       0x4c Inverters_Data_ETR071/Inverters_Data_ETR071.a(Inverters_Data_ETR07_main.o)
                                0x164 (size before relaxing)
 .rodata.cst8   0x00000000       0x10 Inverters_Data_ETR071/Inverters_Data_ETR071.a(rt_sim.o)
 .rodata.str1.4
                0x00000000       0x71 Inverters_Data_ETR071/Inverters_Data_ETR071.a(rt_sim.o)
 .rodata.str1.4
                0x480ad5f4       0x55 Pedals_Susp_Sensors_ETR071/Pedals_Susp_Sensors_ETR071.a(Pedals_Susp_Sensors_ETR07_main.o)
                                0x16d (size before relaxing)
 .rodata.cst8   0x00000000       0x10 Pedals_Susp_Sensors_ETR071/Pedals_Susp_Sensors_ETR071.a(rt_sim.o)
 .rodata.str1.4
                0x00000000       0x71 Pedals_Susp_Sensors_ETR071/Pedals_Susp_Sensors_ETR071.a(rt_sim.o)
 *fill*         0x480ad649        0x3 00
 .rodata.str1.4
                0x480ad64c       0x45 Racing_Mode_ETR071/Racing_Mode_ETR071.a(Racing_Mode_ETR07_main.o)
                                0x15d (size before relaxing)
 .rodata.cst8   0x00000000       0x10 Racing_Mode_ETR071/Racing_Mode_ETR071.a(rt_sim.o)
 .rodata.str1.4
                0x00000000       0x71 Racing_Mode_ETR071/Racing_Mode_ETR071.a(rt_sim.o)
 *fill*         0x480ad691        0x3 00
 .rodata.str1.4
                0x480ad694       0x45 Synchronism_ETR071/Synchronism_ETR071.a(Synchronism_ETR07_main.o)
                                0x15d (size before relaxing)
 .rodata.cst8   0x00000000       0x10 Synchronism_ETR071/Synchronism_ETR071.a(rt_sim.o)
 .rodata.str1.4
                0x00000000       0x71 Synchronism_ETR071/Synchronism_ETR071.a(rt_sim.o)
 .rodata.cst8   0x00000000        0x8 Torque_Control_ETR071/Torque_Control_ETR071.a(Torque_Control_ETR07_main.o)
 *fill*         0x480ad6d9        0x3 00
 .rodata.str1.4
                0x480ad6dc       0x4c Torque_Control_ETR071/Torque_Control_ETR071.a(Torque_Control_ETR07_main.o)
                                0x150 (size before relaxing)
 .rodata.cst8   0x00000000       0x10 Torque_Control_ETR071/Torque_Control_ETR071.a(rt_sim.o)
 .rodata.str1.4
                0x00000000       0x71 Torque_Control_ETR071/Torque_Control_ETR071.a(rt_sim.o)
 .rodata.str1.4
                0x480ad728       0x3e C:/Program Files (x86)/ETAS/INTECRIO4.7/Target/ETarget/rtio/es9xxcan/ES910/es9xxCan_gnu.lib(es9xxCan.o)
 *fill*         0x480ad766        0x2 00
 .rodata        0x480ad768       0x24 C:/Program Files (x86)/ETAS/INTECRIO4.7/Target/ETarget/rtio/es9xxcan/ES910/es9xxCan_gnu.lib(es9xxCanCanio.o)
 .rodata.str1.4
                0x480ad78c      0xf11 C:/Program Files (x86)/ETAS/INTECRIO4.7/Target/ETarget/rtio/es9xxcan/ES910/es9xxCan_gnu.lib(es9xxCanErr.o)
                                0xf15 (size before relaxing)
 *fill*         0x480ae69d        0x3 00
 .rodata.str1.4
                0x480ae6a0       0x18 C:/Program Files (x86)/ETAS/INTECRIO4.7/Target/ETarget/rtio/es9xxcan/ES910/es9xxCan_gnu.lib(es9xxCanHalBuf.o)
 .rodata.cst8   0x00000000        0x8 C:/ETAS/Compiler/INTECRIO4.7/QNXCompiler-V6.5\host\win32\x86/usr/lib/gcc/powerpc-unknown-nto-qnx6.5.0/4.4.2/spe/libgcc.a(_floatdidf.o)
 .rodata        0x480ae6b8      0x282 C:\Program Files (x86)\ETAS\INTECRIO4.7\Target\Etarget\ES910\libes910.a(t_dataset.o)
 *fill*         0x480ae93a        0x2 00
 .rodata.str1.4
                0x480ae93c     0x1154 C:\Program Files (x86)\ETAS\INTECRIO4.7\Target\Etarget\ES910\libes910.a(t_dataset.o)
                               0x1191 (size before relaxing)
 .rodata        0x480afa90      0x400 C:\Program Files (x86)\ETAS\INTECRIO4.7\Target\Etarget\ES910\libtarget.a(a_crc32.o)

.os_pird        0x480afe90        0x0
 .os_pird       0x480afe90        0x0 OSC/osgen.o

.os_pnird       0x480afe90       0x54
 .os_pnird      0x480afe90       0x54 OSC/osgen.o
                0x480afe90                OS_L000C
                0x480afee4                OS_L0014

.os_pid         0x480afee4      0xa60
 .os_pid        0x480afee4      0xa60 OSC/osgen.o
                0x480b0230                OS_L0042
                0x480afee4                os_oim
                0x480b0944                OS_L0017
                0x480b0300                OS_L0046
                0x480b06dc                OS_L0059
                0x480b0710                OS_L005A
                0x480b0944                OS_L001B
                0x480b060c                OS_L0055
                0x480b005c                OS_L0039
                0x480aff8c                OS_L0035
                0x480b04a0                OS_L004E
                0x480b0744                OS_L005E
                0x480b0944                OS_L0012
                0x480b03d0                OS_L004A
                0x480b087c                OS_L0016
                0x480b07ac                OS_L0060
                0x480b012c                OS_L003D
                0x480b01fc                OS_L0041
                0x480b02cc                OS_L0045
                0x480afef0                OS_L0000
                0x480b053c                OS_L0051
                0x480b0848                OS_L0063
                0x480b08cc                osek_bcc1_ts
                0x480aff58                OS_L0034
                0x480b039c                OS_L0049
                0x480b08a4                OS_L001E
                0x480b06a8                OS_L0058
                0x480afef0                OS_L001A
                0x480b05d8                OS_L0054
                0x480b0028                OS_L0038
                0x480b046c                OS_L004D
                0x480afee4                OS_L0011
                0x480afef0                OS_L0015
                0x480b08f4                osek_cc2_ts
                0x480b00f8                OS_L003C
                0x480b01c8                OS_L0040
                0x480b091c                osek_ecc_ts
                0x480b0298                OS_L0044
                0x480b0508                OS_L0050
                0x480afee8                os_ES900_s_5_01
                0x480afeec                OS_L0019
                0x480b0814                OS_L0062
                0x480aff24                OS_L0033
                0x480b0368                OS_L0048
                0x480b087c                OS_L001D
                0x480b0674                OS_L0057
                0x480b05a4                OS_L0053
                0x480afff4                OS_L0037
                0x480b0438                OS_L004C
                0x480b0194                OS_L003F
                0x480b00c4                OS_L003B
                0x480b0264                OS_L0043
                0x480b0944                OS_L0018
                0x480afeec                OS_L002D
                0x480b07e0                OS_L0061
                0x480b0334                OS_L0047
                0x480b0944                OS_L001C
                0x480b0640                OS_L0056
                0x480b0570                OS_L0052
                0x480b04d4                OS_L004F
                0x480affc0                OS_L0036
                0x480b0778                OS_L005F
                0x480b0404                OS_L004B
                0x480b0160                OS_L003E
                0x480b0090                OS_L003A

.rodata1
 *(.rodata1)

.sdata2         0x480b0944        0x0
                0x480b8944                PROVIDE (_SDA2_BASE_, 0x8000)
 *(.sdata2 .sdata2.* .gnu.linkonce.s2.*)

.sbss2
 *(.sbss2 .sbss2.* .gnu.linkonce.sb2.*)

.eh_frame_hdr
 *(.eh_frame_hdr)

.eh_frame       0x480b0944       0x54
 *(.eh_frame)
 .eh_frame      0x480b0944        0x0 C:/ETAS/Compiler/INTECRIO4.7/QNXCompiler-V6.5\host\win32\x86/usr/lib/gcc/powerpc-unknown-nto-qnx6.5.0/4.4.2/spe/crtbegin.o
 .eh_frame      0x480b0944       0x28 C:/ETAS/Compiler/INTECRIO4.7/QNXCompiler-V6.5\host\win32\x86/usr/lib/gcc/powerpc-unknown-nto-qnx6.5.0/4.4.2/spe/libgcc.a(_fixunsdfdi.o)
 .eh_frame      0x480b096c       0x14 C:/ETAS/Compiler/INTECRIO4.7/QNXCompiler-V6.5\host\win32\x86/usr/lib/gcc/powerpc-unknown-nto-qnx6.5.0/4.4.2/spe/libgcc.a(_floatundidf.o)
                                 0x28 (size before relaxing)
 .eh_frame      0x480b0980        0x4 C:/ETAS/Compiler/INTECRIO4.7/QNXCompiler-V6.5\host\win32\x86/usr/lib/gcc/powerpc-unknown-nto-qnx6.5.0/4.4.2/spe/crtend.o
 .eh_frame      0x480b0984       0x14 C:/ETAS/Compiler/INTECRIO4.7/QNXCompiler-V6.5\host\win32\x86/usr/lib/gcc/powerpc-unknown-nto-qnx6.5.0/4.4.2/spe/libgcc.a(_floatdidf.o)
                                 0x28 (size before relaxing)

.gcc_except_table
 *(.gcc_except_table .gcc_except_table.*)
                0x480b0998                . = (ALIGN (0x1000) - ((0x1000 - .) & 0xfff))
                0x480b1000                . = (0x1000 DATA_SEGMENT_ALIGN 0x1000)

.eh_frame
 *(.eh_frame)

.gcc_except_table
 *(.gcc_except_table .gcc_except_table.*)

.tdata
 *(.tdata .tdata.* .gnu.linkonce.td.*)

.tbss
 *(.tbss .tbss.* .gnu.linkonce.tb.*)
 *(.tcommon)

.preinit_array  0x480b1000        0x0
                0x480b1000                PROVIDE (__preinit_array_start, .)
 *(.preinit_array)
                0x480b1000                PROVIDE (__preinit_array_end, .)

.init_array     0x480b1000        0x0
                0x480b1000                PROVIDE (__init_array_start, .)
 *(SORT(.init_array.*))
 *(.init_array)
                0x480b1000                PROVIDE (__init_array_end, .)

.fini_array     0x480b1000        0x0
                0x480b1000                PROVIDE (__fini_array_start, .)
 *(.fini_array)
 *(SORT(.fini_array.*))
                0x480b1000                PROVIDE (__fini_array_end, .)

.ctors          0x480b1000        0x8
 *crtbegin.o(.ctors)
 .ctors         0x480b1000        0x4 C:/ETAS/Compiler/INTECRIO4.7/QNXCompiler-V6.5\host\win32\x86/usr/lib/gcc/powerpc-unknown-nto-qnx6.5.0/4.4.2/spe/crtbegin.o
 *crtbegin?.o(.ctors)
 *(EXCLUDE_FILE(*crtend?.o *crtend.o) .ctors)
 *(SORT(.ctors.*))
 *(.ctors)
 .ctors         0x480b1004        0x4 C:/ETAS/Compiler/INTECRIO4.7/QNXCompiler-V6.5\host\win32\x86/usr/lib/gcc/powerpc-unknown-nto-qnx6.5.0/4.4.2/spe/crtend.o

.dtors          0x480b1008        0x8
 *crtbegin.o(.dtors)
 .dtors         0x480b1008        0x4 C:/ETAS/Compiler/INTECRIO4.7/QNXCompiler-V6.5\host\win32\x86/usr/lib/gcc/powerpc-unknown-nto-qnx6.5.0/4.4.2/spe/crtbegin.o
 *crtbegin?.o(.dtors)
 *(EXCLUDE_FILE(*crtend?.o *crtend.o) .dtors)
 *(SORT(.dtors.*))
 *(.dtors)
 .dtors         0x480b100c        0x4 C:/ETAS/Compiler/INTECRIO4.7/QNXCompiler-V6.5\host\win32\x86/usr/lib/gcc/powerpc-unknown-nto-qnx6.5.0/4.4.2/spe/crtend.o
                0x480b100c                __DTOR_END__

.jcr            0x480b1010        0x4
 *(.jcr)
 .jcr           0x480b1010        0x0 C:/ETAS/Compiler/INTECRIO4.7/QNXCompiler-V6.5\host\win32\x86/usr/lib/gcc/powerpc-unknown-nto-qnx6.5.0/4.4.2/spe/crtbegin.o
 .jcr           0x480b1010        0x4 C:/ETAS/Compiler/INTECRIO4.7/QNXCompiler-V6.5\host\win32\x86/usr/lib/gcc/powerpc-unknown-nto-qnx6.5.0/4.4.2/spe/crtend.o

.data.rel.ro
 *(.data.rel.ro.local* .gnu.linkonce.d.rel.ro.local.*)
 *(.data.rel.ro* .gnu.linkonce.d.rel.ro.*)

.fixup
 *(.fixup)

.got1
 *(.got1)

.got2
 *(.got2)

.dynamic        0x480b1014      0x138
 *(.dynamic)
 .dynamic       0x480b1014      0x138 C:/ETAS/Compiler/INTECRIO4.7/QNXCompiler-V6.5\target\qnx6/ppcbe-spe/lib/crt1.o
                0x480b1014                _DYNAMIC

.got
 *(.got)
                0x480b114c                . = (. DATA_SEGMENT_RELRO_END 0x0)

.plt
 *(.plt)

.data           0x480b1150     0x42e4
 *(.data .data.* .gnu.linkonce.d.*)
 .data          0x480b1150        0x0 C:/ETAS/Compiler/INTECRIO4.7/QNXCompiler-V6.5\target\qnx6/ppcbe-spe/lib/crt1.o
 .data          0x480b1150        0x0 C:/ETAS/Compiler/INTECRIO4.7/QNXCompiler-V6.5\target\qnx6/ppcbe-spe/lib/crti.o
 .data          0x480b1150        0x0 C:/ETAS/Compiler/INTECRIO4.7/QNXCompiler-V6.5\host\win32\x86/usr/lib/gcc/powerpc-unknown-nto-qnx6.5.0/4.4.2/spe/crtbegin.o
 .data.rel      0x480b1150        0x4 C:/ETAS/Compiler/INTECRIO4.7/QNXCompiler-V6.5\host\win32\x86/usr/lib/gcc/powerpc-unknown-nto-qnx6.5.0/4.4.2/spe/crtbegin.o
                0x480b1150                __dso_handle
 .data          0x480b1154       0x48 ROOT_instances.o
                0x480b1154                modelIdentificationString
 .data          0x480b119c        0x4 _INT_pid.pi.o
                0x480b119c                programIdentifier
 .data          0x480b11a0        0x0 userFuncProcessCanPayload.o
 .data          0x480b11a0        0x0 userFuncProcessFlexRayPayload.o
 .data          0x480b11a0        0x0 OSC/i_rtawrapper.o
 .data          0x480b11a0       0xbc Accel_Data_ETR070/Accel_Data_ETR07_instances.o
                0x480b11a0                RTWTop_Accel_Data_ETR07_ClassObj
 .data          0x480b125c        0x0 Accel_Data_ETR071/Accel_Data_ETR071.a(Accel_Data_ETR07.o)
 *fill*         0x480b125c        0x4 00
 .data          0x480b1260      0x158 Accel_Data_ETR071/Accel_Data_ETR071.a(Accel_Data_ETR07_data.o)
                0x480b1260                Accel_Data_ETR07_P
 .data          0x480b13b8       0xf8 Car_State_ETR070/Car_State_ETR07_instances.o
                0x480b13b8                RTWTop_Car_State_ETR07_ClassObj
 .data          0x480b14b0        0x0 Car_State_ETR071/Car_State_ETR071.a(Car_State_ETR07.o)
 .data          0x480b14b0       0xc8 Car_State_ETR071/Car_State_ETR071.a(Car_State_ETR07_data.o)
                0x480b14b0                Car_State_ETR07_P
 .data          0x480b1578      0x1b0 Disconnections_ETR070/Disconnections_ETR07_instances.o
                0x480b1578                RTWTop_Disconnections_ETR07_ClassObj
 .data          0x480b1728        0x0 Disconnections_ETR071/Disconnections_ETR071.a(Disconnections_ETR07.o)
 .data          0x480b1728      0x238 Disconnections_ETR071/Disconnections_ETR071.a(Disconnections_ETR07_data.o)
                0x480b1728                Disconnections_ETR07_P
 .data          0x480b1960       0xb0 inverters_action_ETR070/inverters_action_ETR07_instances.o
                0x480b1960                RTWTop_inverters_action_ETR07_ClassObj
 .data          0x480b1a10        0x0 inverters_action_ETR071/inverters_action_ETR071.a(inverters_action_ETR07.o)
 .data          0x480b1a10      0x128 inverters_action_ETR071/inverters_action_ETR071.a(inverters_action_ETR07_data.o)
                0x480b1a10                inverters_action_ETR07_P
 .data          0x480b1b38      0x150 Inverters_Data_ETR070/Inverters_Data_ETR07_instances.o
                0x480b1b38                RTWTop_Inverters_Data_ETR07_ClassObj
 .data          0x480b1c88        0x0 Inverters_Data_ETR071/Inverters_Data_ETR071.a(Inverters_Data_ETR07.o)
 .data          0x480b1c88      0x128 Inverters_Data_ETR071/Inverters_Data_ETR071.a(Inverters_Data_ETR07_data.o)
                0x480b1c88                Inverters_Data_ETR07_P
 .data          0x480b1db0       0x50 LVD_Data_ETR070/LVD_Data_ETR07_instances.o
                0x480b1db0                RTWTop_LVD_Data_ETR07_ClassObj
 .data          0x480b1e00        0x0 LVD_Data_ETR071/LVD_Data_ETR071.a(LVD_Data_ETR07.o)
 .data          0x480b1e00       0x40 LVD_Data_ETR071/LVD_Data_ETR071.a(LVD_Data_ETR07_data.o)
                0x480b1e00                LVD_Data_ETR07_P
 .data          0x480b1e40       0xc0 Pedals_Susp_Sensors_ETR070/Pedals_Susp_Sensors_ETR07_instances.o
                0x480b1e40                RTWTop_Pedals_Susp_Sensors_ETR07_ClassObj
 .data          0x480b1f00        0x0 Pedals_Susp_Sensors_ETR071/Pedals_Susp_Sensors_ETR071.a(Pedals_Susp_Sensors_ETR07.o)
 .data          0x480b1f00       0xc8 Pedals_Susp_Sensors_ETR071/Pedals_Susp_Sensors_ETR071.a(Pedals_Susp_Sensors_ETR07_data.o)
                0x480b1f00                Pedals_Susp_Sensors_ETR07_P
 .data          0x480b1fc8      0x104 Racing_Mode_ETR070/Racing_Mode_ETR07_instances.o
                0x480b1fc8                RTWTop_Racing_Mode_ETR07_ClassObj
 .data          0x480b20cc        0x0 Racing_Mode_ETR071/Racing_Mode_ETR071.a(Racing_Mode_ETR07.o)
 *fill*         0x480b20cc        0x4 00
 .data          0x480b20d0      0x460 Racing_Mode_ETR071/Racing_Mode_ETR071.a(Racing_Mode_ETR07_data.o)
                0x480b20d0                Racing_Mode_ETR07_P
 .data          0x480b2530       0x3c Synchronism_ETR070/Synchronism_ETR07_instances.o
                0x480b2530                RTWTop_Synchronism_ETR07_ClassObj
 .data          0x480b256c        0x0 Synchronism_ETR071/Synchronism_ETR071.a(Synchronism_ETR07.o)
 *fill*         0x480b256c        0x4 00
 .data          0x480b2570       0x20 Synchronism_ETR071/Synchronism_ETR071.a(Synchronism_ETR07_data.o)
                0x480b2570                Synchronism_ETR07_P
 .data          0x480b2590      0x6d4 Torque_Control_ETR070/Torque_Control_ETR07_instances.o
                0x480b2590                RTWTop_Torque_Control_ETR07_ClassObj
 .data          0x480b2c64        0x0 Torque_Control_ETR071/Torque_Control_ETR071.a(Torque_Control_ETR07.o)
 *fill*         0x480b2c64        0x4 00
 .data          0x480b2c68      0x6c8 Torque_Control_ETR071/Torque_Control_ETR071.a(Torque_Control_ETR07_data.o)
                0x480b2c68                Torque_Control_ETR07_P
 .data          0x480b3330        0x0 matlabsharedR2017b/matlabsharedR2017b.a(rt_nonfinite.o)
 .data          0x480b3330        0x0 matlabsharedR2017b/matlabsharedR2017b.a(mldivide_u4svsr16.o)
 .data          0x480b3330        0x0 matlabsharedR2017b/matlabsharedR2017b.a(polyfit_vylrx3xp.o)
 .data          0x480b3330        0x0 matlabsharedR2017b/matlabsharedR2017b.a(rt_powd_snf.o)
 .data          0x480b3330        0x0 matlabsharedR2017b/matlabsharedR2017b.a(xgeqp3_bpnhoopt.o)
 .data          0x480b3330        0x0 matlabsharedR2017b/matlabsharedR2017b.a(xgeqp3_wlxeyd7k.o)
 .data          0x480b3330        0x0 matlabsharedR2017b/matlabsharedR2017b.a(xnrm2_5mghfn4r.o)
 .data          0x480b3330        0x0 matlabsharedR2017b/matlabsharedR2017b.a(xnrm2_ecih3nop.o)
 .data          0x480b3330        0x0 matlabsharedR2017b/matlabsharedR2017b.a(xnrm2_kgimahi2.o)
 .data          0x480b3330        0x0 matlabsharedR2017b/matlabsharedR2017b.a(xnrm2_uobmrgas.o)
 .data          0x480b3330        0x0 matlabsharedR2017b/matlabsharedR2017b.a(rtgetinf.o)
 .data          0x480b3330        0x0 matlabsharedR2017b/matlabsharedR2017b.a(rtgetnan.o)
 .data          0x480b3330        0x0 matlabsharedR2017b/matlabsharedR2017b.a(rt_hypotd_snf.o)
 .data          0x480b3330        0x4 OSC/osekdefs.o
                0x480b3330                os_fp_sp
 .data          0x480b3334        0x0 OSC/osgen.o
 .data          0x480b3334       0x30 OSC/TaskISRArchive.a(etasConfigTask.o)
                0x480b3334                etasConfigTaskMon
 .data          0x480b3364       0x30 OSC/TaskISRArchive.a(Sync_25ms.o)
                0x480b3364                Sync_25msMon
 .data          0x480b3394       0x30 OSC/TaskISRArchive.a(Timer_1000ms.o)
                0x480b3394                Timer_1000msMon
 .data          0x480b33c4       0x30 OSC/TaskISRArchive.a(Timer_100ms.o)
                0x480b33c4                Timer_100msMon
 .data          0x480b33f4       0x30 OSC/TaskISRArchive.a(Timer_25ms.o)
                0x480b33f4                Timer_25msMon
 .data          0x480b3424       0x30 OSC/TaskISRArchive.a(Timer_Inv.o)
                0x480b3424                Timer_InvMon
 .data          0x480b3454       0x30 OSC/TaskISRArchive.a(SWT_CAN1_AP_BMS_ChargerParameters.o)
                0x480b3454                SWT_CAN1_AP_BMS_ChargerParametersMon
 .data          0x480b3484       0x30 OSC/TaskISRArchive.a(SWT_CAN1_AP_BMS_BatteryTemperatures.o)
                0x480b3484                SWT_CAN1_AP_BMS_BatteryTemperaturesMon
 .data          0x480b34b4       0x30 OSC/TaskISRArchive.a(SWT_CAN1_AP_BMS_AIRs_State.o)
                0x480b34b4                SWT_CAN1_AP_BMS_AIRs_StateMon
 .data          0x480b34e4       0x30 OSC/TaskISRArchive.a(SWT_CAN1_AP_BMS_Current_SOC_SOH.o)
                0x480b34e4                SWT_CAN1_AP_BMS_Current_SOC_SOHMon
 .data          0x480b3514       0x30 OSC/TaskISRArchive.a(SWT_CAN1_AP_BMS_StateAndFailReport.o)
                0x480b3514                SWT_CAN1_AP_BMS_StateAndFailReportMon
 .data          0x480b3544       0x30 OSC/TaskISRArchive.a(SWT_CAN1_AP_BMS_Voltages.o)
                0x480b3544                SWT_CAN1_AP_BMS_VoltagesMon
 .data          0x480b3574       0x30 OSC/TaskISRArchive.a(SWT_CAN1_AP_BMS_OnBoardTemperatures.o)
                0x480b3574                SWT_CAN1_AP_BMS_OnBoardTemperaturesMon
 .data          0x480b35a4       0x30 OSC/TaskISRArchive.a(SWT_CAN1_AP_Inverter_R_Tx.o)
                0x480b35a4                SWT_CAN1_AP_Inverter_R_TxMon
 .data          0x480b35d4       0x30 OSC/TaskISRArchive.a(SWT_CAN1_AP_Inverter_L_Tx.o)
                0x480b35d4                SWT_CAN1_AP_Inverter_L_TxMon
 .data          0x480b3604       0x30 OSC/TaskISRArchive.a(SWT_CAN1_AP_DASH_CustomMode.o)
                0x480b3604                SWT_CAN1_AP_DASH_CustomModeMon
 .data          0x480b3634       0x30 OSC/TaskISRArchive.a(SWT_CAN1_AP_DASH_Mode.o)
                0x480b3634                SWT_CAN1_AP_DASH_ModeMon
 .data          0x480b3664       0x30 OSC/TaskISRArchive.a(SWT_CAN1_NM_BMS_Keep_Alive.o)
                0x480b3664                SWT_CAN1_NM_BMS_Keep_AliveMon
 .data          0x480b3694       0x30 OSC/TaskISRArchive.a(SWT_CAN1_NM_DASH_Keep_Alive.o)
                0x480b3694                SWT_CAN1_NM_DASH_Keep_AliveMon
 .data          0x480b36c4       0x30 OSC/TaskISRArchive.a(SWT_CAN1_AP_DASH_TorqueLockOn.o)
                0x480b36c4                SWT_CAN1_AP_DASH_TorqueLockOnMon
 .data          0x480b36f4       0x30 OSC/TaskISRArchive.a(SWT_CAN1_AP_DASH_PrechargeRequest.o)
                0x480b36f4                SWT_CAN1_AP_DASH_PrechargeRequestMon
 .data          0x480b3724       0x30 OSC/TaskISRArchive.a(SWT_CAN1_AP_DASH_EnableDrive.o)
                0x480b3724                SWT_CAN1_AP_DASH_EnableDriveMon
 .data          0x480b3754       0x30 OSC/TaskISRArchive.a(SWT_CAN1_AP_SHUTDOWN_State.o)
                0x480b3754                SWT_CAN1_AP_SHUTDOWN_StateMon
 .data          0x480b3784       0x30 OSC/TaskISRArchive.a(SWT_CAN1_NM_SHUTDOWN_Keep_Alive.o)
                0x480b3784                SWT_CAN1_NM_SHUTDOWN_Keep_AliveMon
 .data          0x480b37b4       0x30 OSC/TaskISRArchive.a(SWT_CAN2_AP_LV_Derivation_LVData.o)
                0x480b37b4                SWT_CAN2_AP_LV_Derivation_LVDataMon
 .data          0x480b37e4       0x30 OSC/TaskISRArchive.a(SWT_CAN2_AP_ACCEL_R_Data2.o)
                0x480b37e4                SWT_CAN2_AP_ACCEL_R_Data2Mon
 .data          0x480b3814       0x30 OSC/TaskISRArchive.a(SWT_CAN2_NM_LV_Derivation_Keep_Alive.o)
                0x480b3814                SWT_CAN2_NM_LV_Derivation_Keep_AliveMon
 .data          0x480b3844       0x30 OSC/TaskISRArchive.a(SWT_CAN2_AP_ACCEL_F_Data.o)
                0x480b3844                SWT_CAN2_AP_ACCEL_F_DataMon
 .data          0x480b3874       0x30 OSC/TaskISRArchive.a(SWT_CAN2_NM_ACCEL_F_Keep_Alive.o)
                0x480b3874                SWT_CAN2_NM_ACCEL_F_Keep_AliveMon
 .data          0x480b38a4       0x30 OSC/TaskISRArchive.a(SWT_CAN2_NM_ACCEL_R_Keep_Alive.o)
                0x480b38a4                SWT_CAN2_NM_ACCEL_R_Keep_AliveMon
 .data          0x480b38d4       0x30 OSC/TaskISRArchive.a(SWT_CAN2_AP_ACCEL_R_Data.o)
                0x480b38d4                SWT_CAN2_AP_ACCEL_R_DataMon
 .data          0x480b3904       0x30 OSC/TaskISRArchive.a(SWT_CAN2_AP_ADCAN_Data2.o)
                0x480b3904                SWT_CAN2_AP_ADCAN_Data2Mon
 .data          0x480b3934       0x30 OSC/TaskISRArchive.a(SWT_CAN2_AP_ADCAN_Data1.o)
                0x480b3934                SWT_CAN2_AP_ADCAN_Data1Mon
 .data          0x480b3964       0x30 OSC/TaskISRArchive.a(SWT_CAN2_NM_ADCAN_Keep_Alive.o)
                0x480b3964                SWT_CAN2_NM_ADCAN_Keep_AliveMon
 .data          0x480b3994       0x30 OSC/TaskISRArchive.a(SWT_CAN2_AP_ELIPSE_VelAngular.o)
                0x480b3994                SWT_CAN2_AP_ELIPSE_VelAngularMon
 .data          0x480b39c4       0x30 OSC/TaskISRArchive.a(SWT_CAN2_AP_ELIPSE_VelBody.o)
                0x480b39c4                SWT_CAN2_AP_ELIPSE_VelBodyMon
 .data          0x480b39f4       0x30 OSC/TaskISRArchive.a(SWT_CAN1_AP_BMS_Current_SOC.o)
                0x480b39f4                SWT_CAN1_AP_BMS_Current_SOCMon
 .data          0x480b3a24       0x30 OSC/TaskISRArchive.a(SWT_CAN1_AP_BMS_Current_SOC_SOH1.o)
                0x480b3a24                SWT_CAN1_AP_BMS_Current_SOC_SOH1Mon
 .data          0x480b3a54       0x30 OSC/TaskISRArchive.a(SWT_CAN1_AP_BMS_OnBoardTemperatures1.o)
                0x480b3a54                SWT_CAN1_AP_BMS_OnBoardTemperatures1Mon
 .data          0x480b3a84       0x30 OSC/TaskISRArchive.a(NewISR.o)
                0x480b3a84                NewISRMon
 .data          0x480b3ab4       0x30 OSC/TaskISRArchive.a(NewISR1.o)
                0x480b3ab4                NewISR1Mon
 .data          0x480b3ae4       0x30 OSC/etasActivateTaskIsr.o
                0x480b3ae4                etasActivateTaskIsrMon
 .data          0x480b3b14       0x30 OSC/etasL1Isr.o
                0x480b3b14                etasL1IsrMon
 .data          0x480b3b44       0x30 OSC/etasL1Task.o
                0x480b3b44                etasL1TaskMon
 .data          0x480b3b74       0x30 OSC/etasTimerIsr.o
                0x480b3b74                etasTimerIsrMon
 .data          0x480b3ba4       0x30 OSC/etasStopOsIsr.o
                0x480b3ba4                etasStopOsIsrMon
 .data          0x480b3bd4        0x0 OSC/DriverThreads.o
 .data          0x480b3bd4        0x0 OSC/ISRFunctions.o
 .data          0x480b3bd4      0x208 OSC/osc_dyn.o
                0x480b3bf8                taskTableEntries
                0x480b3dcc                taskTable
                0x480b3dd4                osAdmin
                0x480b3bd4                appModeEntries
                0x480b3bec                appModeTable
 .data          0x480b3ddc        0xc OSC/rtaInterface.o
                0x480b3de0                etasInactiveAppMode
                0x480b3de4                TimersAppMode
                0x480b3ddc                etasStartupAppMode
 .data          0x480b3de8       0xac OSC/ETCHooks.o
                0x480b3de8                rtioTaskTable
 .data          0x480b3e94       0xac OSC/XbarHooks.o
                0x480b3e94                crossbarTaskTable
 .data          0x480b3f40        0x8 ETC/FormulaTable.o
                0x480b3f40                rtioFormulaTable
 .data          0x480b3f48       0x38 ETC/DriverTable.o
                0x480b3f48                rtioDriverTable
 .data          0x480b3f80       0x8c ETC/MappingFunctionTable.o
                0x480b3f80                rtioMapFuncTable
 .data          0x480b400c        0x0 ETC/RtioL1RecordTable.o
 .data          0x480b400c        0x0 ETC/XCPTransportLayerFunctionsTable.o
 .data          0x480b400c        0x0 ETC/ChecksumAlgoTables.o
 .data          0x480b400c       0x38 CBC/CopyFunctionTable.o
                0x480b400c                crossbarCopyFuncTable
 .data          0x480b4044        0x0 CBC/CrossbarL1RecordTable.o
 .data          0x480b4044        0x0 C:/ETAS/Compiler/INTECRIO4.7/QNXCompiler-V6.5\host\win32\x86/usr/lib/gcc/powerpc-unknown-nto-qnx6.5.0/4.4.2/spe/libgcc.a(_fixunsdfdi.o)
 .data          0x480b4044        0x0 C:/ETAS/Compiler/INTECRIO4.7/QNXCompiler-V6.5\host\win32\x86/usr/lib/gcc/powerpc-unknown-nto-qnx6.5.0/4.4.2/spe/libgcc.a(_floatundidf.o)
 .data          0x480b4044        0x0 C:/ETAS/Compiler/INTECRIO4.7/QNXCompiler-V6.5\host\win32\x86/usr/lib/gcc/powerpc-unknown-nto-qnx6.5.0/4.4.2/spe/crtend.o
 .data          0x480b4044        0x0 C:/ETAS/Compiler/INTECRIO4.7/QNXCompiler-V6.5\target\qnx6/ppcbe-spe/lib/crtn.o
 .data          0x480b4044        0x4 C:\Program Files (x86)\ETAS\INTECRIO4.7\Target\Etarget\ES910\libes910.a(i_rtautil.o)
 .data          0x480b4048        0x0 C:\Program Files (x86)\ETAS\INTECRIO4.7\Target\Etarget\ES910\libes910.a(t_driverThreads.o)
 .data          0x480b4048       0x18 C:\Program Files (x86)\ETAS\INTECRIO4.7\Target\Etarget\ES910\libes910.a(t_idle.o)
 .data          0x480b4060       0x28 C:\Program Files (x86)\ETAS\INTECRIO4.7\Target\Etarget\ES910\libes910.a(t_l1com.o)
 .data          0x480b4088        0x0 C:\Program Files (x86)\ETAS\INTECRIO4.7\Target\Etarget\ES910\libes910.a(t_main.o)
 .data          0x480b4088        0x8 C:\Program Files (x86)\ETAS\INTECRIO4.7\Target\Etarget\ES910\libes910.a(t_mlog.o)
 .data          0x480b4090        0x0 C:\Program Files (x86)\ETAS\INTECRIO4.7\Target\Etarget\ES910\libes910.a(t_qnxtargetutil.o)
 .data          0x480b4090        0x0 C:\Program Files (x86)\ETAS\INTECRIO4.7\Target\Etarget\ES910\libes910.a(t_targetutil.o)
 .data          0x480b4090        0x9 C:\Program Files (x86)\ETAS\INTECRIO4.7\Target\Etarget\ES910\libes910.a(t_watchdog.o)
 .data          0x480b4099        0x0 C:\Program Files (x86)\ETAS\INTECRIO4.7\Target\Etarget\ES910\libes910.a(p_chario.o)
 *fill*         0x480b4099        0x3 00
 .data          0x480b409c        0x4 C:\Program Files (x86)\ETAS\INTECRIO4.7\Target\Etarget\ES910\libes910.a(t_hwTimeSync.o)
 .data          0x480b40a0        0x0 C:\Program Files (x86)\ETAS\INTECRIO4.7\Target\Etarget\ES910\libes910.a(t_led.o)
 .data          0x480b40a0      0x110 C:\Program Files (x86)\ETAS\INTECRIO4.7\Target\Etarget\ES910\libtarget.a(a_dacqui.o)
                0x480b4108                oidListDataAcquisition
                0x480b4144                dacq_c
                0x480b40b8                dacqLog_c
                0x480b40c8                loggingGroup
                0x480b40f0                debugAcqui
                0x480b4118                dataAcquisitionObjects
                0x480b4124                dacqMethods
 .data          0x480b41b0        0x0 C:\Program Files (x86)\ETAS\INTECRIO4.7\Target\Etarget\ES910\libtarget.a(a_l1pro.o)
 .data          0x480b41b0      0x464 C:\Program Files (x86)\ETAS\INTECRIO4.7\Target\Etarget\ES910\libtarget.a(a_primit.o)
                0x480b4324                Vec_sint16_ClassObj
                0x480b4234                Mat_sint16_ClassObj
                0x480b4444                sint16_ClassObj
                0x480b445c                uint8_ClassObj
                0x480b4204                Mat_sint32_ClassObj
                0x480b433c                Vec_uint8_ClassObj
                0x480b442c                uint16_ClassObj
                0x480b448c                real32_ClassObj
                0x480b4264                Mat_sint8_ClassObj
                0x480b4474                sint8_ClassObj
                0x480b439c                qreal64_ClassObj
                0x480b42ac                Vec_qreal64_ClassObj
                0x480b4384                Vec_real64_ClassObj
                0x480b41ec                Mat_uint32_ClassObj
                0x480b424c                Mat_uint8_ClassObj
                0x480b43b4                bool_ClassObj
                0x480b427c                Mat_real32_ClassObj
                0x480b43cc                uint32_ClassObj
                0x480b43f0                CharTable2_ClassObj
                0x480b41d4                Mat_bool_ClassObj
                0x480b43fc                GroupCharTable1_ClassObj
                0x480b4354                Vec_sint8_ClassObj
                0x480b42c4                Vec_bool_ClassObj
                0x480b430c                Vec_uint16_ClassObj
                0x480b4408                CharTable1_ClassObj
                0x480b436c                Vec_real32_ClassObj
                0x480b41bc                Mat_qreal64_ClassObj
                0x480b421c                Mat_uint16_ClassObj
                0x480b43e4                GroupCharTable2_ClassObj
                0x480b4414                sint32_ClassObj
                0x480b44a4                real64_ClassObj
                0x480b41b0                quantInfo_ClassObj
                0x480b4294                Mat_real64_ClassObj
                0x480b42dc                Vec_uint32_ClassObj
                0x480b42f4                Vec_sint32_ClassObj
 .data          0x480b4614        0x0 C:\Program Files (x86)\ETAS\INTECRIO4.7\Target\Etarget\ES910\libtarget.a(a_sysver.o)
 .data          0x480b4614      0x504 C:\Program Files (x86)\ETAS\INTECRIO4.7\Target\Etarget\ES910\libtarget.a(a_targma.o)
                0x480b4a70                debugSim
                0x480b4628                simMan_c
                0x480b4a88                simManMethods
                0x480b4614                activeSimObjects
                0x480b4a58                userDebugString
                0x480b4a40                userErrorString
 .data          0x480b4b18        0x0 C:\Program Files (x86)\ETAS\INTECRIO4.7\Target\Etarget\ES910\libtarget.a(i_cpyfnc.o)
 .data          0x480b4b18        0x0 C:\Program Files (x86)\ETAS\INTECRIO4.7\Target\Etarget\ES910\libtarget.a(i_mapfnc.o)
 .data          0x480b4b18       0x50 C:\Program Files (x86)\ETAS\INTECRIO4.7\Target\Etarget\ES910\libtarget.a(i_osman.o)
                0x480b4b34                osManMethods
                0x480b4b18                osMan_c
 .data          0x480b4b68       0xc4 C:\Program Files (x86)\ETAS\INTECRIO4.7\Target\Etarget\ES910\libtarget.a(i_rtioma.o)
                0x480b4b6c                rtioManMethods
                0x480b4c10                rtioMan_c
 .data          0x480b4c2c        0x1 C:\Program Files (x86)\ETAS\INTECRIO4.7\Target\Etarget\ES910\libtarget.a(i_salone.o)
 *fill*         0x480b4c2d        0x3 00
 .data          0x480b4c30       0x60 C:\Program Files (x86)\ETAS\INTECRIO4.7\Target\Etarget\ES910\libtarget.a(t_croman.o)
                0x480b4c74                crossbarMan_c
                0x480b4c34                crossbarManMethods
 .data          0x480b4c90       0x60 C:\Program Files (x86)\ETAS\INTECRIO4.7\Target\Etarget\ES910\libtarget.a(t_nvram.o)
                0x480b4cd4                nvramMan_c
                0x480b4ca0                nvramManMethods
 .data          0x480b4cf0        0x0 C:\Program Files (x86)\ETAS\INTECRIO4.7\Target\Etarget\ES910\libtarget.a(t_objlis.o)
 .data          0x480b4cf0       0x14 C:\Program Files (x86)\ETAS\INTECRIO4.7\Target\Etarget\ES910\libtarget.a(t_rtcros.o)
 .data          0x480b4d04       0x70 C:\Program Files (x86)\ETAS\INTECRIO4.7\Target\Etarget\ES910\libtarget.a(t_sgman.o)
                0x480b4d10                stimuliGenManMethods
                0x480b4d04                sg_ClassObj
                0x480b4d58                stimuliGenMan_c
 .data          0x480b4d74      0x19c C:\Program Files (x86)\ETAS\INTECRIO4.7\Target\Etarget\ES910\libtarget.a(y_primit.o)
                0x480b4da4                matrixWrapper_typeSize_4_ClassObj
                0x480b4e64                scalarWrapper_typeSize_4_ClassObj
                0x480b4d8c                matrixWrapper_typeSize_2_ClassObj
                0x480b4e1c                vectorWrapper_typeSize_8_ClassObj
                0x480b4e34                scalarWrapper_typeSize_1_ClassObj
                0x480b4e04                vectorWrapper_typeSize_4_ClassObj
                0x480b4dd4                vectorWrapper_typeSize_1_ClassObj
                0x480b4dbc                matrixWrapper_typeSize_8_ClassObj
                0x480b4e4c                scalarWrapper_typeSize_2_ClassObj
                0x480b4dec                vectorWrapper_typeSize_2_ClassObj
                0x480b4e7c                scalarWrapper_typeSize_8_ClassObj
                0x480b4d74                matrixWrapper_typeSize_1_ClassObj
 .data          0x480b4f10       0x6c C:\Program Files (x86)\ETAS\INTECRIO4.7\Target\Etarget\ES910\libtarget.a(a1b_dacq.o)
                0x480b4f34                a1bDacqMethods
                0x480b4f10                a1bDacq_c
 .data          0x480b4f7c        0x0 C:\Program Files (x86)\ETAS\INTECRIO4.7\Target\Etarget\ES910\libtarget.a(a_contai.o)
 .data          0x480b4f7c        0x0 C:\Program Files (x86)\ETAS\INTECRIO4.7\Target\Etarget\ES910\libtarget.a(t_sglow.o)
 .data          0x480b4f7c      0x10c C:\Program Files (x86)\ETAS\INTECRIO4.7\Target\Etarget\rtio\global\es910\librtio_gnu.a(comm_err.o)
                0x480b505c                etasBoardNames
                0x480b4f7c                commErrMessages
 .data          0x480b5088        0x0 C:\Program Files (x86)\ETAS\INTECRIO4.7\Target\Etarget\rtio\global\es910\librtio_gnu.a(p_rtio.o)
 .data          0x480b5088        0x4 C:\Program Files (x86)\ETAS\INTECRIO4.7\Target\Etarget\rtio\global\es910\librtio_gnu.a(p_rtio_s.o)
 .data          0x480b508c        0x0 C:\Program Files (x86)\ETAS\INTECRIO4.7\Target\Etarget\rtio\global\es910\librtio_gnu.a(rtio_err.o)
 .data          0x480b508c        0x0 C:\Program Files (x86)\ETAS\INTECRIO4.7\Target\Etarget\ES910\rta_osek\librtk_s.a(ostarget.o)
 .data          0x480b508c        0x0 C:\Program Files (x86)\ETAS\INTECRIO4.7\Target\Etarget\ES910\rta_osek\librtk_s.a(osfptgt.o)
 .data          0x480b508c        0x0 C:\Program Files (x86)\ETAS\INTECRIO4.7\Target\Etarget\ES910\rta_osek\librtk_s.a(osiwrap1.o)
 .data          0x480b508c        0x0 C:\Program Files (x86)\ETAS\INTECRIO4.7\Target\Etarget\ES910\rta_osek\librtk_s.a(osxdspnf.o)
 .data          0x480b508c        0x0 C:\Program Files (x86)\ETAS\INTECRIO4.7\Target\Etarget\ES910\rta_osek\librtk_s.a(osysd1hf.o)
 .data          0x480b508c        0x0 C:\Program Files (x86)\ETAS\INTECRIO4.7\Target\Etarget\ES910\rta_osek\librtk_s.a(osysdfhf.o)
 .data          0x480b508c        0x0 C:\Program Files (x86)\ETAS\INTECRIO4.7\Target\Etarget\ES910\rta_osek\librtk_s.a(osysdfhi.o)
 .data          0x480b508c        0x0 C:\Program Files (x86)\ETAS\INTECRIO4.7\Target\Etarget\ES910\rta_osek\librtk_s.a(ostgid.o)
 .data          0x480b508c        0x0 C:\Program Files (x86)\ETAS\INTECRIO4.7\Target\Etarget\ES910\rta_osek\librtk_s.a(ostschf.o)
 .data          0x480b508c        0x0 C:\Program Files (x86)\ETAS\INTECRIO4.7\Target\Etarget\ES910\rta_osek\librtk_s.a(osieai.o)
 .data          0x480b508c        0x0 C:\Program Files (x86)\ETAS\INTECRIO4.7\Target\Etarget\ES910\rta_osek\librtk_s.a(osidai.o)
 .data          0x480b508c        0x0 C:\Program Files (x86)\ETAS\INTECRIO4.7\Target\Etarget\ES910\rta_osek\librtk_s.a(osisoi.o)
 .data          0x480b508c        0x0 C:\Program Files (x86)\ETAS\INTECRIO4.7\Target\Etarget\ES910\rta_osek\librtk_s.a(osirai.o)
 .data          0x480b508c        0x0 C:\Program Files (x86)\ETAS\INTECRIO4.7\Target\Etarget\ES910\rta_osek\librtk_s.a(osisai.o)
 .data          0x480b508c        0x0 C:\Program Files (x86)\ETAS\INTECRIO4.7\Target\Etarget\ES910\rta_osek\librtk_s.a(osxperr2.o)
 .data          0x480b508c        0x0 C:\Program Files (x86)\ETAS\INTECRIO4.7\Target\Etarget\ES910\rta_osek\librtk_s.a(osxglobs.o)
 .data          0x480b508c        0x0 C:\Program Files (x86)\ETAS\INTECRIO4.7\Target\Etarget\ES910\rta_osek\librtk_s.a(osostart.o)
 .data          0x480b508c        0x0 C:\Program Files (x86)\ETAS\INTECRIO4.7\Target\Etarget\ES910\rta_osek\librtk_s.a(ososhuth.o)
 .data          0x480b508c        0x0 C:\Program Files (x86)\ETAS\INTECRIO4.7\Target\Etarget\ES910\rta_osek\librtk_s.a(osttermh.o)
 .data          0x480b508c        0x0 C:\Program Files (x86)\ETAS\INTECRIO4.7\Target\Etarget\ES910\rta_osek\librtk_s.a(ostactsf.o)
 .data          0x480b508c        0x0 C:\Program Files (x86)\ETAS\INTECRIO4.7\Target\Etarget\ES910\rta_osek\librtk_s.a(ostactnf.o)
 .data          0x480b508c        0x0 C:\Program Files (x86)\ETAS\INTECRIO4.7\Target\Etarget\ES910\rta_osek\librtk_s.a(osatickn.o)
 .data          0x480b508c        0x0 C:\Program Files (x86)\ETAS\INTECRIO4.7\Target\Etarget\ES910\rta_osek\librtk_s.a(osacallb.o)
 .data          0x480b508c        0x0 C:\Program Files (x86)\ETAS\INTECRIO4.7\Target\Etarget\ES910\rta_osek\librtk_s.a(osxdpsho.o)
 .data          0x480b508c        0x0 C:\Program Files (x86)\ETAS\INTECRIO4.7\Target\Etarget\ES910\rta_osek\librtk_s.a(osiwrap.o)
 .data          0x480b508c        0x0 C:\Program Files (x86)\ETAS\INTECRIO4.7\Target\Etarget\ES910\rta_osek\librtk_s.a(osxjmp.o)
 .data          0x480b508c        0x0 C:\Program Files (x86)\ETAS\INTECRIO4.7\Target\Etarget\ES910\rta_osek\librtk_s.a(ososhutn.o)
 .data          0x480b508c       0x18 C:\Program Files (x86)\ETAS\INTECRIO4.7\Target\Etarget\ES910\libcommon.a(p_execl1.o)
                0x480b5098                superObjectMethodList
                0x480b508c                superClassMethodList
 .data          0x480b50a4        0x0 C:\Program Files (x86)\ETAS\INTECRIO4.7\Target\Etarget\ES910\libcommon.a(p_protl1.o)
 .data          0x480b50a4       0x44 C:\Program Files (x86)\ETAS\INTECRIO4.7\Target\Etarget\ES910\libcommon.a(p_stdeb.o)
                0x480b50c8                debug_c
 .data          0x480b50e8        0x0 Accel_Data_ETR071/Accel_Data_ETR071.a(Accel_Data_ETR07_main.o)
 .data          0x480b50e8        0x0 Accel_Data_ETR071/Accel_Data_ETR071.a(rt_sim.o)
 .data          0x480b50e8        0x0 Car_State_ETR071/Car_State_ETR071.a(Car_State_ETR07_main.o)
 .data          0x480b50e8        0x0 Car_State_ETR071/Car_State_ETR071.a(rt_sim.o)
 .data          0x480b50e8        0x0 Disconnections_ETR071/Disconnections_ETR071.a(Disconnections_ETR07_main.o)
 .data          0x480b50e8        0x0 Disconnections_ETR071/Disconnections_ETR071.a(rt_sim.o)
 .data          0x480b50e8        0x0 inverters_action_ETR071/inverters_action_ETR071.a(inverters_action_ETR07_main.o)
 .data          0x480b50e8        0x0 inverters_action_ETR071/inverters_action_ETR071.a(rt_sim.o)
 .data          0x480b50e8        0x0 Inverters_Data_ETR071/Inverters_Data_ETR071.a(Inverters_Data_ETR07_main.o)
 .data          0x480b50e8        0x0 Inverters_Data_ETR071/Inverters_Data_ETR071.a(rt_sim.o)
 .data          0x480b50e8        0x0 Pedals_Susp_Sensors_ETR071/Pedals_Susp_Sensors_ETR071.a(Pedals_Susp_Sensors_ETR07_main.o)
 .data          0x480b50e8        0x0 Pedals_Susp_Sensors_ETR071/Pedals_Susp_Sensors_ETR071.a(rt_sim.o)
 .data          0x480b50e8        0x0 Racing_Mode_ETR071/Racing_Mode_ETR071.a(Racing_Mode_ETR07_main.o)
 .data          0x480b50e8        0x0 Racing_Mode_ETR071/Racing_Mode_ETR071.a(rt_sim.o)
 .data          0x480b50e8        0x0 Synchronism_ETR071/Synchronism_ETR071.a(Synchronism_ETR07_main.o)
 .data          0x480b50e8        0x0 Synchronism_ETR071/Synchronism_ETR071.a(rt_sim.o)
 .data          0x480b50e8        0x0 Torque_Control_ETR071/Torque_Control_ETR071.a(Torque_Control_ETR07_main.o)
 .data          0x480b50e8        0x0 Torque_Control_ETR071/Torque_Control_ETR071.a(rt_sim.o)
 .data          0x480b50e8        0x0 C:/Program Files (x86)/ETAS/INTECRIO4.7/Target/ETarget/rtio/es9xxcan/ES910/es9xxCan_gnu.lib(es9xxCan.o)
 .data          0x480b50e8        0x0 C:/Program Files (x86)/ETAS/INTECRIO4.7/Target/ETarget/rtio/es9xxcan/ES910/es9xxCan_gnu.lib(es9xxCanCanio.o)
 .data          0x480b50e8      0x11c C:/Program Files (x86)/ETAS/INTECRIO4.7/Target/ETarget/rtio/es9xxcan/ES910/es9xxCan_gnu.lib(es9xxCanErr.o)
                0x480b50e8                es9xxCanErrMessages
 .data          0x480b5204        0x0 C:/Program Files (x86)/ETAS/INTECRIO4.7/Target/ETarget/rtio/es9xxcan/ES910/es9xxCan_gnu.lib(es9xxCanHalBuf.o)
 .data          0x480b5204        0x0 C:/Program Files (x86)/ETAS/INTECRIO4.7/Target/ETarget/rtio/es9xxcan/ES910/es9xxCan_gnu.lib(es9xxCanHalIfi.o)
 .data          0x480b5204        0x0 C:/ETAS/Compiler/INTECRIO4.7/QNXCompiler-V6.5\host\win32\x86/usr/lib/gcc/powerpc-unknown-nto-qnx6.5.0/4.4.2/spe/libgcc.a(_floatdidf.o)
 .data          0x480b5204      0x220 C:\Program Files (x86)\ETAS\INTECRIO4.7\Target\Etarget\ES910\libes910.a(t_dataset.o)
 .data          0x480b5424        0x0 C:\Program Files (x86)\ETAS\INTECRIO4.7\Target\Etarget\ES910\libtarget.a(a_crc32.o)
                0x480b5434                . = (. + 0x10)
 *fill*         0x480b5424       0x10 00

.os_pir         0x480b5434        0x0
 .os_pir        0x480b5434        0x0 OSC/osgen.o

.os_pur         0x480b5434        0x0
 .os_pur        0x480b5434        0x0 OSC/osgen.o

.os_pnir        0x480b5434       0x54
 .os_pnir       0x480b5434       0x54 OSC/osgen.o
                0x480b5434                OS_L0001
                0x480b5460                OS_L0004
                0x480b5488                OS_L000B
                0x480b545c                OS_L0002
                0x480b5434                OS_L000A

.os_intvec      0x480b5488       0x64
 .os_intvec     0x480b5488       0x64 OSC/osgen.o
                0x480b548c                os_int_id
                0x480b5488                os_sivt_count
                0x480b54a4                os_sivt

.data1
 *(.data1)

.got            0x480b54ec       0x44
 *(.got)
 .got           0x480b54ec       0x44 C:/ETAS/Compiler/INTECRIO4.7/QNXCompiler-V6.5\target\qnx6/ppcbe-spe/lib/crt1.o
                0x480b5524                _GLOBAL_OFFSET_TABLE_

.sdata          0x480b5530       0x18
                0x480bd530                PROVIDE (_SDA_BASE_, 0x8000)
 *(.sdata .sdata.* .gnu.linkonce.s.*)
 .sdata         0x480b5530        0x8 C:\Program Files (x86)\ETAS\INTECRIO4.7\Target\Etarget\ES910\libes910.a(t_main.o)
                0x480b5534                etasvermagic_PLEASE_DEFINE_MACRO_PROGRAM_VERSION
                0x480b5530                etasversion_PLEASE_DEFINE_MACRO_PROGRAM_VERSION
 .sdata         0x480b5538        0x9 C:\Program Files (x86)\ETAS\INTECRIO4.7\Target\Etarget\ES910\rta_osek\librtk_s.a(osxglobs.o)
                0x480b5538                os_oilcfg_rev
                0x480b5540                os_target_rev
                0x480b553c                os_rtkcfg_rev
 *fill*         0x480b5541        0x3 00
 .sdata         0x480b5544        0x4 C:\Program Files (x86)\ETAS\INTECRIO4.7\Target\Etarget\ES910\libcommon.a(p_stdeb.o)
                0x480b5544                debugMethods
                0x480b5548                _edata = .
                0x480b5548                PROVIDE (edata, .)
                0x480b5548                __bss_start = .

.sbss           0x480b5548      0x174
                0x480b5548                PROVIDE (__sbss_start, .)
                0x480b5548                PROVIDE (___sbss_start, .)
 *(.dynsbss)
 .dynsbss       0x00000000        0x0 C:/ETAS/Compiler/INTECRIO4.7/QNXCompiler-V6.5\target\qnx6/ppcbe-spe/lib/crt1.o
 *(.sbss .sbss.* .gnu.linkonce.sb.*)
 .sbss          0x00000000        0x0 C:/ETAS/Compiler/INTECRIO4.7/QNXCompiler-V6.5\target\qnx6/ppcbe-spe/lib/crt1.o
 .sbss          0x480b5548        0x8 Car_State_ETR071/Car_State_ETR071.a(Car_State_ETR07.o)
                0x480b5548                Car_State_ETR07_B
 .sbss          0x480b5550        0xc inverters_action_ETR071/inverters_action_ETR071.a(inverters_action_ETR07.o)
                0x480b5550                inverters_action_ETR07_B
                0x480b5555                inverters_action_ETR07_Y
 *fill*         0x480b555c        0x4 00
 .sbss          0x480b5560       0x10 LVD_Data_ETR071/LVD_Data_ETR071.a(LVD_Data_ETR07.o)
                0x480b5560                LVD_Data_ETR07_U
                0x480b5568                LVD_Data_ETR07_Y
 .sbss          0x480b5570        0x8 Synchronism_ETR071/Synchronism_ETR071.a(Synchronism_ETR07.o)
                0x480b5570                Synchronism_ETR07_DW
 .sbss          0x480b5578        0x8 Torque_Control_ETR071/Torque_Control_ETR071.a(Torque_Control_ETR07.o)
                0x480b5578                Torque_Control_ETR07_X
 .sbss          0x480b5580       0x2c matlabsharedR2017b/matlabsharedR2017b.a(rt_nonfinite.o)
                0x480b5580                rtInfF
                0x480b5588                rtNaN
                0x480b5590                rtNaNF
                0x480b5598                rtMinusInf
                0x480b55a0                rtInf
                0x480b55a8                rtMinusInfF
 .sbss          0x480b55ac        0x4 OSC/osekdefs.o
                0x480b55ac                os_serviceId
 .sbss          0x480b55b0       0x98 OSC/DriverThreads.o
                0x480b55b0                ptrthread6Dtm
                0x480b55b4                ptrthread17Dtm
                0x480b55b8                ptrthread12Dtm
                0x480b55bc                ptrthread24Dtm
                0x480b55c0                ptrthread30Dtm
                0x480b55c4                ptrthread32Dtm
                0x480b55c8                ptrthread19Dtm
                0x480b55cc                ptrthread4Dtm
                0x480b55d0                ptrthread10Dtm
                0x480b55d4                ptrthreadEtasL1TaskDtm
                0x480b55d8                ptrthread9Dtm
                0x480b55dc                ptrthread15Dtm
                0x480b55e0                ptrthread7Dtm
                0x480b55e4                ptrthread29Dtm
                0x480b55e8                ptrthread1Dtm
                0x480b55ec                ptrthread13Dtm
                0x480b55f0                ptrthread22Dtm
                0x480b55f4                ptrthread20Dtm
                0x480b55f8                ptrthread34Dtm
                0x480b55fc                ptrthread18Dtm
                0x480b5600                ptrthreadEtasConfigTaskDtm
                0x480b5604                ptrthread27Dtm
                0x480b5608                ptrthread25Dtm
                0x480b560c                ptrthread11Dtm
                0x480b5610                ptrthread3Dtm
                0x480b5614                ptrthread5Dtm
                0x480b5618                ptrthread31Dtm
                0x480b561c                ptrthread33Dtm
                0x480b5620                ptrthreadEtasIsrDtm
                0x480b5624                ptrthread8Dtm
                0x480b5628                ptrthread0Dtm
                0x480b562c                ptrthread2Dtm
                0x480b5630                ptrthread28Dtm
                0x480b5634                ptrthread16Dtm
                0x480b5638                ptrthread23Dtm
                0x480b563c                ptrthread14Dtm
                0x480b5640                ptrthread21Dtm
                0x480b5644                ptrthread26Dtm
 .sbss          0x480b5648        0x8 C:\Program Files (x86)\ETAS\INTECRIO4.7\Target\Etarget\ES910\libes910.a(i_rtautil.o)
                0x480b5648                os_atomic_count
                0x480b564c                os_dT
 .sbss          0x480b5650        0x4 C:\Program Files (x86)\ETAS\INTECRIO4.7\Target\Etarget\ES910\libes910.a(t_idle.o)
                0x480b5650                etasIdleCycleCnt
 .sbss          0x480b5654        0x8 C:\Program Files (x86)\ETAS\INTECRIO4.7\Target\Etarget\ES910\libes910.a(t_l1com.o)
                0x480b5658                etasResMgrIdT
                0x480b5654                gotL1
 .sbss          0x480b565c        0x8 C:\Program Files (x86)\ETAS\INTECRIO4.7\Target\Etarget\ES910\libes910.a(t_main.o)
                0x480b5660                rtaOsekThreadPrio
                0x480b565c                etascopyright_PLEASE_DEFINE_MACRO_PROGRAM_VERSION
 .sbss          0x480b5664        0x4 C:\Program Files (x86)\ETAS\INTECRIO4.7\Target\Etarget\ES910\libes910.a(t_targetutil.o)
                0x480b5664                ccsr_base
 .sbss          0x480b5668        0x8 C:\Program Files (x86)\ETAS\INTECRIO4.7\Target\Etarget\ES910\libtarget.a(a_dacqui.o)
                0x480b566c                logGroupEnable
                0x480b5668                isUserDefinedTime
 .sbss          0x480b5670        0x4 C:\Program Files (x86)\ETAS\INTECRIO4.7\Target\Etarget\ES910\libtarget.a(i_osman.o)
                0x480b5670                onLineSimulation
 .sbss          0x480b5674        0x1 C:\Program Files (x86)\ETAS\INTECRIO4.7\Target\Etarget\rtio\global\es910\librtio_gnu.a(p_rtio.o)
                0x480b5674                rtioErrFlg
 *fill*         0x480b5675        0x3 00
 .sbss          0x480b5678       0x20 C:\Program Files (x86)\ETAS\INTECRIO4.7\Target\Etarget\ES910\rta_osek\librtk_s.a(ostarget.o)
                0x480b5678                os_stack_base
                0x480b567c                os_highest_sigmask
                0x480b5684                os_os_sigmask
                0x480b568c                os_user_sigmask
                0x480b5694                os_current_ipl
 .sbss          0x480b5698        0x4 C:\Program Files (x86)\ETAS\INTECRIO4.7\Target\Etarget\ES910\rta_osek\librtk_s.a(osidai.o)
                0x480b5698                osek_all_prev
 .sbss          0x480b569c        0x8 C:\Program Files (x86)\ETAS\INTECRIO4.7\Target\Etarget\ES910\rta_osek\librtk_s.a(osisoi.o)
                0x480b56a0                osek_suspend_prev
                0x480b569c                osek_suspend_nesting
 .sbss          0x480b56a4        0x8 C:\Program Files (x86)\ETAS\INTECRIO4.7\Target\Etarget\ES910\rta_osek\librtk_s.a(osisai.o)
                0x480b56a8                osek_suspend_all_prev
                0x480b56a4                osek_suspend_all_nesting
 .sbss          0x480b56ac       0x10 C:\Program Files (x86)\ETAS\INTECRIO4.7\Target\Etarget\ES910\rta_osek\librtk_s.a(osxglobs.o)
                0x480b56b4                osek_cur_mode
                0x480b56ac                osek_in_error_hook
                0x480b56b0                osOptions
                0x480b56b8                osek_running_task
 *(.scommon)
                0x480b56bc                PROVIDE (__sbss_end, .)
                0x480b56bc                PROVIDE (___sbss_end, .)

.plt            0x480b56bc      0x948
 *(.plt)
 .plt           0x480b56bc      0x948 C:/ETAS/Compiler/INTECRIO4.7/QNXCompiler-V6.5\target\qnx6/ppcbe-spe/lib/crt1.o
                0x480b5704                MsgWrite
                0x480b570c                _setjmp
                0x480b5714                sendto@@libsocket.so.2
                0x480b571c                __register_frame_info
                0x480b5724                etasLogCoreFeedRecordToBackends
                0x480b572c                pthread_attr_setschedparam
                0x480b5734                sqrt
                0x480b573c                tempMgrGetAlarmState
                0x480b5744                calloc
                0x480b574c                dispatch_context_free
                0x480b5754                __sigjmp_prolog
                0x480b575c                clock_nanosleep
                0x480b5764                etasMapCCSR85xx
                0x480b576c                pthread_attr_setinheritsched
                0x480b5774                cJSON_Parse
                0x480b577c                clock_gettime
                0x480b5784                open
                0x480b578c                pthread_attr_setdetachstate
                0x480b5794                fwrite
                0x480b579c                system
                0x480b57a4                floor
                0x480b57ac                cmsHighSpeedSendAlloc
                0x480b57b4                memcpy
                0x480b57bc                sigfillset
                0x480b57c4                sleep
                0x480b57cc                realloc
                0x480b57d4                hwInfoGetBoardId
                0x480b57dc                SignalProcmask
                0x480b57e4                sigdelset
                0x480b57ec                pthread_mutex_init
                0x480b57f4                vfprintf
                0x480b57fc                etasShmemUnmap
                0x480b5804                resmgr_attach
                0x480b580c                tmpnam
                0x480b5814                MsgRead
                0x480b581c                pthread_attr_init
                0x480b5824                strcat
                0x480b582c                feof
                0x480b5834                trunc
                0x480b583c                etasLogInit
                0x480b5844                remove
                0x480b584c                __fixdfdi
                0x480b5854                __cxa_finalize
                0x480b585c                sched_get_priority_max
                0x480b5864                __udivdi3
                0x480b586c                malloc
                0x480b5874                _init_array
                0x480b587c                __get_errno_ptr
                0x480b5884                strncmp
                0x480b588c                dispatch_block
                0x480b5894                dlsym
                0x480b589c                strlen
                0x480b58a4                devctl
                0x480b58ac                pthread_mutex_lock
                0x480b58b4                pause
                0x480b58bc                pthread_sigmask
                0x480b58c4                sched_get_priority_min
                0x480b58cc                delay
                0x480b58d4                lseek
                0x480b58dc                InterruptDetach
                0x480b58e4                snprintf
                0x480b58ec                iofunc_attr_lock
                0x480b58f4                cmsReceiveMessage
                0x480b58fc                atomic_clr_value
                0x480b5904                read
                0x480b590c                tripleBufInit
                0x480b5914                atexit
                0x480b591c                fmin
                0x480b5924                MsgReceive
                0x480b592c                mmap_device_memory
                0x480b5934                getpid
                0x480b593c                etasParseOptions
                0x480b5944                InterruptUnmask
                0x480b594c                sigprocmask
                0x480b5954                vetasDebugLog
                0x480b595c                userWdConnect
                0x480b5964                mmap
                0x480b596c                fclose
                0x480b5974                cJSON_GetErrorPtr
                0x480b597c                send@@libsocket.so.2
                0x480b5984                SignalKill
                0x480b598c                etasLogCreateDebugChannel
                0x480b5994                bsearch
                0x480b599c                fopen
                0x480b59a4                resmgr_msgread
                0x480b59ac                chmod
                0x480b59b4                ThreadCtl
                0x480b59bc                etasLogBackendSetMinSev
                0x480b59c4                dispatch_create
                0x480b59cc                fileno
                0x480b59d4                pthread_create
                0x480b59dc                write
                0x480b59e4                cmsReceiveMessageEx
                0x480b59ec                _init_libc
                0x480b59f4                pthread_cond_signal
                0x480b59fc                SignalAction
                0x480b5a04                close
                0x480b5a0c                cmsSendMessageEx
                0x480b5a14                dispatch_handler
                0x480b5a1c                dispatch_context_alloc
                0x480b5a24                atomic_set_value
                0x480b5a2c                cmsStartAcquisition
                0x480b5a34                fgets
                0x480b5a3c                sigaction
                0x480b5a44                iofunc_attr_unlock
                0x480b5a4c                pthread_self
                0x480b5a54                sscanf
                0x480b5a5c                msync
                0x480b5a64                strncpy
                0x480b5a6c                pthread_cond_timedwait
                0x480b5a74                iofunc_devctl_default
                0x480b5a7c                tempMgrDeregisterEvent
                0x480b5a84                etasShmemMap
                0x480b5a8c                etasSetLed
                0x480b5a94                cmsStopAcquisition
                0x480b5a9c                sigaddset
                0x480b5aa4                pthread_cond_init
                0x480b5aac                cJSON_Delete
                0x480b5ab4                MsgReply
                0x480b5abc                pthread_attr_setschedpolicy
                0x480b5ac4                MsgSend
                0x480b5acc                unlink
                0x480b5ad4                fflush
                0x480b5adc                memset
                0x480b5ae4                es910GetPcbCode
                0x480b5aec                _Sin
                0x480b5af4                recvfrom@@libsocket.so.2
                0x480b5afc                qsort
                0x480b5b04                perror
                0x480b5b0c                munmap
                0x480b5b14                ftruncate
                0x480b5b1c                fmax
                0x480b5b24                fprintf
                0x480b5b2c                sigtimedwait
                0x480b5b34                fmod
                0x480b5b3c                memcmp
                0x480b5b44                vsnprintf
                0x480b5b4c                sigemptyset
                0x480b5b54                SchedCtl
                0x480b5b5c                _fini_array
                0x480b5b64                iofunc_attr_init
                0x480b5b6c                iofunc_func_init
                0x480b5b74                etasLogBackendActivate
                0x480b5b7c                pthread_exit
                0x480b5b84                _preinit_array
                0x480b5b8c                cmsCloseSession
                0x480b5b94                pthread_cancel
                0x480b5b9c                siglongjmp
                0x480b5ba4                cmsRegisterCanRcvId
                0x480b5bac                __signalstub
                0x480b5bb4                rand
                0x480b5bbc                pthread_setname_np
                0x480b5bc4                pthread_setschedparam
                0x480b5bcc                nsec2timespec
                0x480b5bd4                MsgError
                0x480b5bdc                pthread_getschedparam
                0x480b5be4                exit
                0x480b5bec                pthread_mutex_unlock
                0x480b5bf4                cmsOpenSessionEx
                0x480b5bfc                mallinfo
                0x480b5c04                hwInfoGetPcbRevision
                0x480b5c0c                pow
                0x480b5c14                strstr
                0x480b5c1c                fstat
                0x480b5c24                strcmp
                0x480b5c2c                getopt
                0x480b5c34                cJSON_GetObjectItem
                0x480b5c3c                tempMgrRegisterEvent
                0x480b5c44                etasLogSetDebugChannelSeverityFilter
                0x480b5c4c                free
                0x480b5c54                etasLogSetDestination
                0x480b5c5c                atoi
                0x480b5c64                errLog
                0x480b5c6c                hwInfoGetSerialNumber
                0x480b5c74                fsync
                0x480b5c7c                userWdDisconnect
                0x480b5c84                vslogf
                0x480b5c8c                strerror
                0x480b5c94                thread_pool_create
                0x480b5c9c                srand
                0x480b5ca4                userWdService
                0x480b5cac                pthread_cond_wait
                0x480b5cb4                cmsErrorState
                0x480b5cbc                dispatch_unblock
                0x480b5cc4                es910GetCoreClockFreq
                0x480b5ccc                cmsSendMessage
                0x480b5cd4                cmsAllocBuffer
                0x480b5cdc                recv@@libsocket.so.2
                0x480b5ce4                strcpy
                0x480b5cec                InterruptAttachEvent
                0x480b5cf4                __deregister_frame_info
                0x480b5cfc                thread_pool_start

.bss            0x480b6008    0x29e9c
 *(.dynbss)
 .dynbss        0x480b6008      0x100 C:/ETAS/Compiler/INTECRIO4.7/QNXCompiler-V6.5\target\qnx6/ppcbe-spe/lib/crt1.o
                0x480b6008                errno
                0x480b600c                _Stdout
                0x480b6060                _Dbl
                0x480b60a8                __cpu_flags
                0x480b60ac                _Stderr
                0x480b60fc                optv
                0x480b6100                _syspage_ptr
                0x480b6104                optarg
 *(.bss .bss.* .gnu.linkonce.b.*)
 .bss           0x480b6108        0x0 C:/ETAS/Compiler/INTECRIO4.7/QNXCompiler-V6.5\target\qnx6/ppcbe-spe/lib/crt1.o
 .bss           0x480b6108        0x0 C:/ETAS/Compiler/INTECRIO4.7/QNXCompiler-V6.5\target\qnx6/ppcbe-spe/lib/crti.o
 .bss           0x480b6108       0x20 C:/ETAS/Compiler/INTECRIO4.7/QNXCompiler-V6.5\host\win32\x86/usr/lib/gcc/powerpc-unknown-nto-qnx6.5.0/4.4.2/spe/crtbegin.o
 .bss           0x480b6128        0x8 ROOT_instances.o
 .bss           0x480b6130        0x0 _INT_pid.pi.o
 .bss           0x480b6130        0x0 userFuncProcessCanPayload.o
 .bss           0x480b6130        0x0 userFuncProcessFlexRayPayload.o
 .bss           0x480b6130        0x0 OSC/i_rtawrapper.o
 .bss           0x480b6130        0x0 Accel_Data_ETR070/Accel_Data_ETR07_instances.o
 .bss           0x480b6130        0x0 Accel_Data_ETR071/Accel_Data_ETR071.a(Accel_Data_ETR07.o)
 .bss           0x480b6130        0x0 Accel_Data_ETR071/Accel_Data_ETR071.a(Accel_Data_ETR07_data.o)
 .bss           0x480b6130        0x0 Car_State_ETR070/Car_State_ETR07_instances.o
 .bss           0x480b6130        0x0 Car_State_ETR071/Car_State_ETR071.a(Car_State_ETR07.o)
 .bss           0x480b6130        0x0 Car_State_ETR071/Car_State_ETR071.a(Car_State_ETR07_data.o)
 .bss           0x480b6130        0x0 Disconnections_ETR070/Disconnections_ETR07_instances.o
 .bss           0x480b6130        0x0 Disconnections_ETR071/Disconnections_ETR071.a(Disconnections_ETR07.o)
 .bss           0x480b6130        0x0 Disconnections_ETR071/Disconnections_ETR071.a(Disconnections_ETR07_data.o)
 .bss           0x480b6130        0x0 inverters_action_ETR070/inverters_action_ETR07_instances.o
 .bss           0x480b6130        0x0 inverters_action_ETR071/inverters_action_ETR071.a(inverters_action_ETR07.o)
 .bss           0x480b6130        0x0 inverters_action_ETR071/inverters_action_ETR071.a(inverters_action_ETR07_data.o)
 .bss           0x480b6130        0x0 Inverters_Data_ETR070/Inverters_Data_ETR07_instances.o
 .bss           0x480b6130        0x0 Inverters_Data_ETR071/Inverters_Data_ETR071.a(Inverters_Data_ETR07.o)
 .bss           0x480b6130        0x0 Inverters_Data_ETR071/Inverters_Data_ETR071.a(Inverters_Data_ETR07_data.o)
 .bss           0x480b6130        0x0 LVD_Data_ETR070/LVD_Data_ETR07_instances.o
 .bss           0x480b6130        0x0 LVD_Data_ETR071/LVD_Data_ETR071.a(LVD_Data_ETR07.o)
 .bss           0x480b6130        0x0 LVD_Data_ETR071/LVD_Data_ETR071.a(LVD_Data_ETR07_data.o)
 .bss           0x480b6130        0x0 Pedals_Susp_Sensors_ETR070/Pedals_Susp_Sensors_ETR07_instances.o
 .bss           0x480b6130        0x0 Pedals_Susp_Sensors_ETR071/Pedals_Susp_Sensors_ETR071.a(Pedals_Susp_Sensors_ETR07.o)
 .bss           0x480b6130        0x0 Pedals_Susp_Sensors_ETR071/Pedals_Susp_Sensors_ETR071.a(Pedals_Susp_Sensors_ETR07_data.o)
 .bss           0x480b6130        0x0 Racing_Mode_ETR070/Racing_Mode_ETR07_instances.o
 .bss           0x480b6130        0x0 Racing_Mode_ETR071/Racing_Mode_ETR071.a(Racing_Mode_ETR07.o)
 .bss           0x480b6130        0x0 Racing_Mode_ETR071/Racing_Mode_ETR071.a(Racing_Mode_ETR07_data.o)
 .bss           0x480b6130        0x0 Synchronism_ETR070/Synchronism_ETR07_instances.o
 .bss           0x480b6130        0x0 Synchronism_ETR071/Synchronism_ETR071.a(Synchronism_ETR07.o)
 .bss           0x480b6130        0x0 Synchronism_ETR071/Synchronism_ETR071.a(Synchronism_ETR07_data.o)
 .bss           0x480b6130        0x0 Torque_Control_ETR070/Torque_Control_ETR07_instances.o
 .bss           0x480b6130        0x0 Torque_Control_ETR071/Torque_Control_ETR071.a(Torque_Control_ETR07.o)
 .bss           0x480b6130        0x0 Torque_Control_ETR071/Torque_Control_ETR071.a(Torque_Control_ETR07_data.o)
 .bss           0x480b6130        0x0 matlabsharedR2017b/matlabsharedR2017b.a(rt_nonfinite.o)
 .bss           0x480b6130        0x0 matlabsharedR2017b/matlabsharedR2017b.a(mldivide_u4svsr16.o)
 .bss           0x480b6130        0x0 matlabsharedR2017b/matlabsharedR2017b.a(polyfit_vylrx3xp.o)
 .bss           0x480b6130        0x0 matlabsharedR2017b/matlabsharedR2017b.a(rt_powd_snf.o)
 .bss           0x480b6130        0x0 matlabsharedR2017b/matlabsharedR2017b.a(xgeqp3_bpnhoopt.o)
 .bss           0x480b6130        0x0 matlabsharedR2017b/matlabsharedR2017b.a(xgeqp3_wlxeyd7k.o)
 .bss           0x480b6130        0x0 matlabsharedR2017b/matlabsharedR2017b.a(xnrm2_5mghfn4r.o)
 .bss           0x480b6130        0x0 matlabsharedR2017b/matlabsharedR2017b.a(xnrm2_ecih3nop.o)
 .bss           0x480b6130        0x0 matlabsharedR2017b/matlabsharedR2017b.a(xnrm2_kgimahi2.o)
 .bss           0x480b6130        0x0 matlabsharedR2017b/matlabsharedR2017b.a(xnrm2_uobmrgas.o)
 .bss           0x480b6130        0x0 matlabsharedR2017b/matlabsharedR2017b.a(rtgetinf.o)
 .bss           0x480b6130        0x0 matlabsharedR2017b/matlabsharedR2017b.a(rtgetnan.o)
 .bss           0x480b6130        0x0 matlabsharedR2017b/matlabsharedR2017b.a(rt_hypotd_snf.o)
 .bss           0x480b6130      0x168 OSC/osekdefs.o
 .bss           0x480b6298        0x0 OSC/osgen.o
 .bss           0x480b6298        0x0 OSC/TaskISRArchive.a(etasConfigTask.o)
 .bss           0x480b6298        0x0 OSC/TaskISRArchive.a(Sync_25ms.o)
 .bss           0x480b6298        0x0 OSC/TaskISRArchive.a(Timer_1000ms.o)
 .bss           0x480b6298        0x0 OSC/TaskISRArchive.a(Timer_100ms.o)
 .bss           0x480b6298        0x0 OSC/TaskISRArchive.a(Timer_25ms.o)
 .bss           0x480b6298        0x0 OSC/TaskISRArchive.a(Timer_Inv.o)
 .bss           0x480b6298        0x0 OSC/TaskISRArchive.a(SWT_CAN1_AP_BMS_ChargerParameters.o)
 .bss           0x480b6298        0x0 OSC/TaskISRArchive.a(SWT_CAN1_AP_BMS_BatteryTemperatures.o)
 .bss           0x480b6298        0x0 OSC/TaskISRArchive.a(SWT_CAN1_AP_BMS_AIRs_State.o)
 .bss           0x480b6298        0x0 OSC/TaskISRArchive.a(SWT_CAN1_AP_BMS_Current_SOC_SOH.o)
 .bss           0x480b6298        0x0 OSC/TaskISRArchive.a(SWT_CAN1_AP_BMS_StateAndFailReport.o)
 .bss           0x480b6298        0x0 OSC/TaskISRArchive.a(SWT_CAN1_AP_BMS_Voltages.o)
 .bss           0x480b6298        0x0 OSC/TaskISRArchive.a(SWT_CAN1_AP_BMS_OnBoardTemperatures.o)
 .bss           0x480b6298        0x0 OSC/TaskISRArchive.a(SWT_CAN1_AP_Inverter_R_Tx.o)
 .bss           0x480b6298        0x0 OSC/TaskISRArchive.a(SWT_CAN1_AP_Inverter_L_Tx.o)
 .bss           0x480b6298        0x0 OSC/TaskISRArchive.a(SWT_CAN1_AP_DASH_CustomMode.o)
 .bss           0x480b6298        0x0 OSC/TaskISRArchive.a(SWT_CAN1_AP_DASH_Mode.o)
 .bss           0x480b6298        0x0 OSC/TaskISRArchive.a(SWT_CAN1_NM_BMS_Keep_Alive.o)
 .bss           0x480b6298        0x0 OSC/TaskISRArchive.a(SWT_CAN1_NM_DASH_Keep_Alive.o)
 .bss           0x480b6298        0x0 OSC/TaskISRArchive.a(SWT_CAN1_AP_DASH_TorqueLockOn.o)
 .bss           0x480b6298        0x0 OSC/TaskISRArchive.a(SWT_CAN1_AP_DASH_PrechargeRequest.o)
 .bss           0x480b6298        0x0 OSC/TaskISRArchive.a(SWT_CAN1_AP_DASH_EnableDrive.o)
 .bss           0x480b6298        0x0 OSC/TaskISRArchive.a(SWT_CAN1_AP_SHUTDOWN_State.o)
 .bss           0x480b6298        0x0 OSC/TaskISRArchive.a(SWT_CAN1_NM_SHUTDOWN_Keep_Alive.o)
 .bss           0x480b6298        0x0 OSC/TaskISRArchive.a(SWT_CAN2_AP_LV_Derivation_LVData.o)
 .bss           0x480b6298        0x0 OSC/TaskISRArchive.a(SWT_CAN2_AP_ACCEL_R_Data2.o)
 .bss           0x480b6298        0x0 OSC/TaskISRArchive.a(SWT_CAN2_NM_LV_Derivation_Keep_Alive.o)
 .bss           0x480b6298        0x0 OSC/TaskISRArchive.a(SWT_CAN2_AP_ACCEL_F_Data.o)
 .bss           0x480b6298        0x0 OSC/TaskISRArchive.a(SWT_CAN2_NM_ACCEL_F_Keep_Alive.o)
 .bss           0x480b6298        0x0 OSC/TaskISRArchive.a(SWT_CAN2_NM_ACCEL_R_Keep_Alive.o)
 .bss           0x480b6298        0x0 OSC/TaskISRArchive.a(SWT_CAN2_AP_ACCEL_R_Data.o)
 .bss           0x480b6298        0x0 OSC/TaskISRArchive.a(SWT_CAN2_AP_ADCAN_Data2.o)
 .bss           0x480b6298        0x0 OSC/TaskISRArchive.a(SWT_CAN2_AP_ADCAN_Data1.o)
 .bss           0x480b6298        0x0 OSC/TaskISRArchive.a(SWT_CAN2_NM_ADCAN_Keep_Alive.o)
 .bss           0x480b6298        0x0 OSC/TaskISRArchive.a(SWT_CAN2_AP_ELIPSE_VelAngular.o)
 .bss           0x480b6298        0x0 OSC/TaskISRArchive.a(SWT_CAN2_AP_ELIPSE_VelBody.o)
 .bss           0x480b6298        0x0 OSC/TaskISRArchive.a(SWT_CAN1_AP_BMS_Current_SOC.o)
 .bss           0x480b6298        0x0 OSC/TaskISRArchive.a(SWT_CAN1_AP_BMS_Current_SOC_SOH1.o)
 .bss           0x480b6298        0x0 OSC/TaskISRArchive.a(SWT_CAN1_AP_BMS_OnBoardTemperatures1.o)
 .bss           0x480b6298        0x0 OSC/TaskISRArchive.a(NewISR.o)
 .bss           0x480b6298        0x0 OSC/TaskISRArchive.a(NewISR1.o)
 .bss           0x480b6298        0x0 OSC/etasActivateTaskIsr.o
 .bss           0x480b6298        0x0 OSC/etasL1Isr.o
 .bss           0x480b6298        0x0 OSC/etasL1Task.o
 .bss           0x480b6298        0x0 OSC/etasTimerIsr.o
 .bss           0x480b6298        0x0 OSC/etasStopOsIsr.o
 .bss           0x480b6298        0x0 OSC/DriverThreads.o
 .bss           0x480b6298        0x0 OSC/ISRFunctions.o
                0x480b6298                rtioIsrFuncTable
 .bss           0x480b6298       0xa4 OSC/osc_dyn.o
                0x480b6298                sgTaskTable
 .bss           0x480b633c        0x0 OSC/rtaInterface.o
 .bss           0x480b633c       0x98 OSC/ETCHooks.o
                0x480b63c4                rtioHookTable39
                0x480b6354                rtioHookTable9
                0x480b6340                rtioHookTable1
                0x480b6364                rtioHookTable13
                0x480b6374                rtioHookTable17
                0x480b6380                rtioHookTable20
                0x480b6390                rtioHookTable24
                0x480b63a8                rtioHookTable34
                0x480b633c                rtioHookTable0
                0x480b63c0                rtioHookTable38
                0x480b6350                rtioHookTable8
                0x480b6370                rtioHookTable16
                0x480b6360                rtioHookTable12
                0x480b638c                rtioHookTable23
                0x480b63b8                rtioHookTable37
                0x480b6348                rtioHookTable3
                0x480b635c                rtioHookTable11
                0x480b63d0                rtioHookTable42
                0x480b636c                rtioHookTable15
                0x480b637c                rtioHookTable19
                0x480b6388                rtioHookTable22
                0x480b6398                rtioHookTable26
                0x480b63a0                rtioHookTable31
                0x480b63c8                rtioHookTable40
                0x480b63a4                rtioHookTable32
                0x480b63b4                rtioHookTable36
                0x480b634c                rtioHookTable6
                0x480b6344                rtioHookTable2
                0x480b63cc                rtioHookTable41
                0x480b6358                rtioHookTable10
                0x480b6368                rtioHookTable14
                0x480b6378                rtioHookTable18
                0x480b6384                rtioHookTable21
                0x480b6394                rtioHookTable25
                0x480b639c                rtioHookTable30
                0x480b63b0                rtioHookTable35
 .bss           0x480b63d4      0x194 OSC/XbarHooks.o
                0x480b6454                crossbarHookTable33
                0x480b63dc                crossbarHookTable3
                0x480b6428                crossbarHookTable22
                0x480b6438                crossbarHookTable26
                0x480b6404                crossbarHookTable13
                0x480b6414                crossbarHookTable17
                0x480b63ec                crossbarHookTable7
                0x480b64d8                crossbarHookTable41
                0x480b64b8                crossbarHookTable38
                0x480b63e0                crossbarHookTable4
                0x480b6458                crossbarHookTable34
                0x480b6448                crossbarHookTable30
                0x480b643c                crossbarHookTable27
                0x480b642c                crossbarHookTable23
                0x480b6418                crossbarHookTable18
                0x480b6408                crossbarHookTable14
                0x480b63f8                crossbarHookTable10
                0x480b6520                crossbarHookTable42
                0x480b63f0                crossbarHookTable8
                0x480b644c                crossbarHookTable31
                0x480b646c                crossbarHookTable35
                0x480b64d0                crossbarHookTable39
                0x480b63d4                crossbarHookTable1
                0x480b6430                crossbarHookTable24
                0x480b63e4                crossbarHookTable5
                0x480b6440                crossbarHookTable28
                0x480b6420                crossbarHookTable20
                0x480b640c                crossbarHookTable15
                0x480b641c                crossbarHookTable19
                0x480b63fc                crossbarHookTable11
                0x480b63f4                crossbarHookTable9
                0x480b6474                crossbarHookTable36
                0x480b6450                crossbarHookTable32
                0x480b6434                crossbarHookTable25
                0x480b63d8                crossbarHookTable2
                0x480b6444                crossbarHookTable29
                0x480b6424                crossbarHookTable21
                0x480b63e8                crossbarHookTable6
                0x480b6410                crossbarHookTable16
                0x480b6400                crossbarHookTable12
                0x480b64d4                crossbarHookTable40
                0x480b647c                crossbarHookTable37
 .bss           0x480b6568        0x0 ETC/FormulaTable.o
 .bss           0x480b6568        0x0 ETC/DriverTable.o
 .bss           0x480b6568        0x0 ETC/MappingFunctionTable.o
 .bss           0x480b6568        0x0 ETC/RtioL1RecordTable.o
 .bss           0x480b6568       0x40 ETC/XCPTransportLayerFunctionsTable.o
                0x480b6568                transportLayerFunctionsTable
 .bss           0x480b65a8        0x8 ETC/ChecksumAlgoTables.o
                0x480b65ac                rtioRxChecksumAlgoTable
                0x480b65a8                rtioTxChecksumAlgoTable
 .bss           0x480b65b0        0x0 CBC/CopyFunctionTable.o
 .bss           0x480b65b0        0x0 CBC/CrossbarL1RecordTable.o
 .bss           0x480b65b0        0x0 C:/ETAS/Compiler/INTECRIO4.7/QNXCompiler-V6.5\host\win32\x86/usr/lib/gcc/powerpc-unknown-nto-qnx6.5.0/4.4.2/spe/libgcc.a(_fixunsdfdi.o)
 .bss           0x480b65b0        0x0 C:/ETAS/Compiler/INTECRIO4.7/QNXCompiler-V6.5\host\win32\x86/usr/lib/gcc/powerpc-unknown-nto-qnx6.5.0/4.4.2/spe/libgcc.a(_floatundidf.o)
 .bss           0x480b65b0        0x0 C:/ETAS/Compiler/INTECRIO4.7/QNXCompiler-V6.5\host\win32\x86/usr/lib/gcc/powerpc-unknown-nto-qnx6.5.0/4.4.2/spe/crtend.o
 .bss           0x480b65b0        0x0 C:/ETAS/Compiler/INTECRIO4.7/QNXCompiler-V6.5\target\qnx6/ppcbe-spe/lib/crtn.o
 .bss           0x480b65b0      0x1b8 C:\Program Files (x86)\ETAS\INTECRIO4.7\Target\Etarget\ES910\libes910.a(i_rtautil.o)
 .bss           0x480b6768        0x8 C:\Program Files (x86)\ETAS\INTECRIO4.7\Target\Etarget\ES910\libes910.a(t_driverThreads.o)
 .bss           0x480b6770       0x3c C:\Program Files (x86)\ETAS\INTECRIO4.7\Target\Etarget\ES910\libes910.a(t_idle.o)
 *fill*         0x480b67ac        0x4 00
 .bss           0x480b67b0      0x100 C:\Program Files (x86)\ETAS\INTECRIO4.7\Target\Etarget\ES910\libes910.a(t_l1com.o)
 .bss           0x480b68b0        0x0 C:\Program Files (x86)\ETAS\INTECRIO4.7\Target\Etarget\ES910\libes910.a(t_main.o)
 .bss           0x480b68b0       0x10 C:\Program Files (x86)\ETAS\INTECRIO4.7\Target\Etarget\ES910\libes910.a(t_mlog.o)
 .bss           0x480b68c0      0x104 C:\Program Files (x86)\ETAS\INTECRIO4.7\Target\Etarget\ES910\libes910.a(t_qnxtargetutil.o)
 .bss           0x480b69c4        0x4 C:\Program Files (x86)\ETAS\INTECRIO4.7\Target\Etarget\ES910\libes910.a(t_targetutil.o)
 .bss           0x480b69c8       0x48 C:\Program Files (x86)\ETAS\INTECRIO4.7\Target\Etarget\ES910\libes910.a(t_watchdog.o)
 .bss           0x480b6a10        0xc C:\Program Files (x86)\ETAS\INTECRIO4.7\Target\Etarget\ES910\libes910.a(p_chario.o)
 .bss           0x480b6a1c       0x30 C:\Program Files (x86)\ETAS\INTECRIO4.7\Target\Etarget\ES910\libes910.a(t_hwTimeSync.o)
 .bss           0x480b6a4c        0x2 C:\Program Files (x86)\ETAS\INTECRIO4.7\Target\Etarget\ES910\libes910.a(t_led.o)
 *fill*         0x480b6a4e        0x2 00
 .bss           0x480b6a50     0x2b4c C:\Program Files (x86)\ETAS\INTECRIO4.7\Target\Etarget\ES910\libtarget.a(a_dacqui.o)
 .bss           0x480b959c        0x0 C:\Program Files (x86)\ETAS\INTECRIO4.7\Target\Etarget\ES910\libtarget.a(a_l1pro.o)
 .bss           0x480b959c        0x0 C:\Program Files (x86)\ETAS\INTECRIO4.7\Target\Etarget\ES910\libtarget.a(a_primit.o)
 .bss           0x480b959c        0x0 C:\Program Files (x86)\ETAS\INTECRIO4.7\Target\Etarget\ES910\libtarget.a(a_sysver.o)
 .bss           0x480b959c     0x9054 C:\Program Files (x86)\ETAS\INTECRIO4.7\Target\Etarget\ES910\libtarget.a(a_targma.o)
 .bss           0x480c25f0        0x0 C:\Program Files (x86)\ETAS\INTECRIO4.7\Target\Etarget\ES910\libtarget.a(i_cpyfnc.o)
 .bss           0x480c25f0        0x0 C:\Program Files (x86)\ETAS\INTECRIO4.7\Target\Etarget\ES910\libtarget.a(i_mapfnc.o)
 .bss           0x480c25f0      0x405 C:\Program Files (x86)\ETAS\INTECRIO4.7\Target\Etarget\ES910\libtarget.a(i_osman.o)
 *fill*         0x480c29f5        0x3 00
 .bss           0x480c29f8      0x33c C:\Program Files (x86)\ETAS\INTECRIO4.7\Target\Etarget\ES910\libtarget.a(i_rtioma.o)
 .bss           0x480c2d34     0x8008 C:\Program Files (x86)\ETAS\INTECRIO4.7\Target\Etarget\ES910\libtarget.a(i_salone.o)
 .bss           0x480cad3c        0xc C:\Program Files (x86)\ETAS\INTECRIO4.7\Target\Etarget\ES910\libtarget.a(t_croman.o)
 .bss           0x480cad48    0x100cf C:\Program Files (x86)\ETAS\INTECRIO4.7\Target\Etarget\ES910\libtarget.a(t_nvram.o)
 *fill*         0x480dae17        0x1 00
 .bss           0x480dae18      0x100 C:\Program Files (x86)\ETAS\INTECRIO4.7\Target\Etarget\ES910\libtarget.a(t_objlis.o)
 .bss           0x480daf18       0x20 C:\Program Files (x86)\ETAS\INTECRIO4.7\Target\Etarget\ES910\libtarget.a(t_rtcros.o)
 .bss           0x480daf38       0x54 C:\Program Files (x86)\ETAS\INTECRIO4.7\Target\Etarget\ES910\libtarget.a(t_sgman.o)
 .bss           0x480daf8c        0x0 C:\Program Files (x86)\ETAS\INTECRIO4.7\Target\Etarget\ES910\libtarget.a(y_primit.o)
 .bss           0x480daf8c      0x404 C:\Program Files (x86)\ETAS\INTECRIO4.7\Target\Etarget\ES910\libtarget.a(a1b_dacq.o)
                0x480daf8c                a1bDacqGroups
 .bss           0x480db390        0x0 C:\Program Files (x86)\ETAS\INTECRIO4.7\Target\Etarget\ES910\libtarget.a(a_contai.o)
 .bss           0x480db390        0x0 C:\Program Files (x86)\ETAS\INTECRIO4.7\Target\Etarget\ES910\libtarget.a(t_sglow.o)
 .bss           0x480db390        0x0 C:\Program Files (x86)\ETAS\INTECRIO4.7\Target\Etarget\rtio\global\es910\librtio_gnu.a(comm_err.o)
 .bss           0x480db390        0x4 C:\Program Files (x86)\ETAS\INTECRIO4.7\Target\Etarget\rtio\global\es910\librtio_gnu.a(p_rtio.o)
 .bss           0x480db394      0x50c C:\Program Files (x86)\ETAS\INTECRIO4.7\Target\Etarget\rtio\global\es910\librtio_gnu.a(p_rtio_s.o)
 .bss           0x480db8a0      0x528 C:\Program Files (x86)\ETAS\INTECRIO4.7\Target\Etarget\rtio\global\es910\librtio_gnu.a(rtio_err.o)
 .bss           0x480dbdc8       0x10 C:\Program Files (x86)\ETAS\INTECRIO4.7\Target\Etarget\ES910\rta_osek\librtk_s.a(ostarget.o)
 .bss           0x480dbdd8        0x0 C:\Program Files (x86)\ETAS\INTECRIO4.7\Target\Etarget\ES910\rta_osek\librtk_s.a(osfptgt.o)
 .bss           0x480dbdd8        0x0 C:\Program Files (x86)\ETAS\INTECRIO4.7\Target\Etarget\ES910\rta_osek\librtk_s.a(osiwrap1.o)
 .bss           0x480dbdd8        0x0 C:\Program Files (x86)\ETAS\INTECRIO4.7\Target\Etarget\ES910\rta_osek\librtk_s.a(osxdspnf.o)
 .bss           0x480dbdd8        0x0 C:\Program Files (x86)\ETAS\INTECRIO4.7\Target\Etarget\ES910\rta_osek\librtk_s.a(osysd1hf.o)
 .bss           0x480dbdd8        0x0 C:\Program Files (x86)\ETAS\INTECRIO4.7\Target\Etarget\ES910\rta_osek\librtk_s.a(osysdfhf.o)
 .bss           0x480dbdd8        0x0 C:\Program Files (x86)\ETAS\INTECRIO4.7\Target\Etarget\ES910\rta_osek\librtk_s.a(osysdfhi.o)
 .bss           0x480dbdd8        0x0 C:\Program Files (x86)\ETAS\INTECRIO4.7\Target\Etarget\ES910\rta_osek\librtk_s.a(ostgid.o)
 .bss           0x480dbdd8        0x0 C:\Program Files (x86)\ETAS\INTECRIO4.7\Target\Etarget\ES910\rta_osek\librtk_s.a(ostschf.o)
 .bss           0x480dbdd8        0x0 C:\Program Files (x86)\ETAS\INTECRIO4.7\Target\Etarget\ES910\rta_osek\librtk_s.a(osieai.o)
 .bss           0x480dbdd8        0x0 C:\Program Files (x86)\ETAS\INTECRIO4.7\Target\Etarget\ES910\rta_osek\librtk_s.a(osidai.o)
 .bss           0x480dbdd8        0x0 C:\Program Files (x86)\ETAS\INTECRIO4.7\Target\Etarget\ES910\rta_osek\librtk_s.a(osisoi.o)
 .bss           0x480dbdd8        0x0 C:\Program Files (x86)\ETAS\INTECRIO4.7\Target\Etarget\ES910\rta_osek\librtk_s.a(osirai.o)
 .bss           0x480dbdd8        0x0 C:\Program Files (x86)\ETAS\INTECRIO4.7\Target\Etarget\ES910\rta_osek\librtk_s.a(osisai.o)
 .bss           0x480dbdd8        0x0 C:\Program Files (x86)\ETAS\INTECRIO4.7\Target\Etarget\ES910\rta_osek\librtk_s.a(osxperr2.o)
 .bss           0x480dbdd8        0x0 C:\Program Files (x86)\ETAS\INTECRIO4.7\Target\Etarget\ES910\rta_osek\librtk_s.a(osxglobs.o)
 .bss           0x480dbdd8        0x0 C:\Program Files (x86)\ETAS\INTECRIO4.7\Target\Etarget\ES910\rta_osek\librtk_s.a(osostart.o)
 .bss           0x480dbdd8        0x0 C:\Program Files (x86)\ETAS\INTECRIO4.7\Target\Etarget\ES910\rta_osek\librtk_s.a(ososhuth.o)
 .bss           0x480dbdd8        0x0 C:\Program Files (x86)\ETAS\INTECRIO4.7\Target\Etarget\ES910\rta_osek\librtk_s.a(osttermh.o)
 .bss           0x480dbdd8        0x0 C:\Program Files (x86)\ETAS\INTECRIO4.7\Target\Etarget\ES910\rta_osek\librtk_s.a(ostactsf.o)
 .bss           0x480dbdd8        0x0 C:\Program Files (x86)\ETAS\INTECRIO4.7\Target\Etarget\ES910\rta_osek\librtk_s.a(ostactnf.o)
 .bss           0x480dbdd8        0x0 C:\Program Files (x86)\ETAS\INTECRIO4.7\Target\Etarget\ES910\rta_osek\librtk_s.a(osatickn.o)
 .bss           0x480dbdd8        0x0 C:\Program Files (x86)\ETAS\INTECRIO4.7\Target\Etarget\ES910\rta_osek\librtk_s.a(osacallb.o)
 .bss           0x480dbdd8        0x0 C:\Program Files (x86)\ETAS\INTECRIO4.7\Target\Etarget\ES910\rta_osek\librtk_s.a(osxdpsho.o)
 .bss           0x480dbdd8        0x0 C:\Program Files (x86)\ETAS\INTECRIO4.7\Target\Etarget\ES910\rta_osek\librtk_s.a(osiwrap.o)
 .bss           0x480dbdd8        0x0 C:\Program Files (x86)\ETAS\INTECRIO4.7\Target\Etarget\ES910\rta_osek\librtk_s.a(osxjmp.o)
 .bss           0x480dbdd8        0x0 C:\Program Files (x86)\ETAS\INTECRIO4.7\Target\Etarget\ES910\rta_osek\librtk_s.a(ososhutn.o)
 .bss           0x480dbdd8        0x0 C:\Program Files (x86)\ETAS\INTECRIO4.7\Target\Etarget\ES910\libcommon.a(p_execl1.o)
 .bss           0x480dbdd8        0x2 C:\Program Files (x86)\ETAS\INTECRIO4.7\Target\Etarget\ES910\libcommon.a(p_protl1.o)
 .bss           0x480dbdda        0x0 C:\Program Files (x86)\ETAS\INTECRIO4.7\Target\Etarget\ES910\libcommon.a(p_stdeb.o)
 *fill*         0x480dbdda        0x2 00
 .bss           0x480dbddc       0x18 Accel_Data_ETR071/Accel_Data_ETR071.a(Accel_Data_ETR07_main.o)
 .bss           0x480dbdf4        0x0 Accel_Data_ETR071/Accel_Data_ETR071.a(rt_sim.o)
 .bss           0x480dbdf4       0x18 Car_State_ETR071/Car_State_ETR071.a(Car_State_ETR07_main.o)
 .bss           0x480dbe0c        0x0 Car_State_ETR071/Car_State_ETR071.a(rt_sim.o)
 .bss           0x480dbe0c       0x18 Disconnections_ETR071/Disconnections_ETR071.a(Disconnections_ETR07_main.o)
 .bss           0x480dbe24        0x0 Disconnections_ETR071/Disconnections_ETR071.a(rt_sim.o)
 .bss           0x480dbe24       0x18 inverters_action_ETR071/inverters_action_ETR071.a(inverters_action_ETR07_main.o)
 .bss           0x480dbe3c        0x0 inverters_action_ETR071/inverters_action_ETR071.a(rt_sim.o)
 .bss           0x480dbe3c       0x18 Inverters_Data_ETR071/Inverters_Data_ETR071.a(Inverters_Data_ETR07_main.o)
 .bss           0x480dbe54        0x0 Inverters_Data_ETR071/Inverters_Data_ETR071.a(rt_sim.o)
 .bss           0x480dbe54       0x18 Pedals_Susp_Sensors_ETR071/Pedals_Susp_Sensors_ETR071.a(Pedals_Susp_Sensors_ETR07_main.o)
 .bss           0x480dbe6c        0x0 Pedals_Susp_Sensors_ETR071/Pedals_Susp_Sensors_ETR071.a(rt_sim.o)
 .bss           0x480dbe6c       0x18 Racing_Mode_ETR071/Racing_Mode_ETR071.a(Racing_Mode_ETR07_main.o)
 .bss           0x480dbe84        0x0 Racing_Mode_ETR071/Racing_Mode_ETR071.a(rt_sim.o)
 .bss           0x480dbe84       0x18 Synchronism_ETR071/Synchronism_ETR071.a(Synchronism_ETR07_main.o)
 .bss           0x480dbe9c        0x0 Synchronism_ETR071/Synchronism_ETR071.a(rt_sim.o)
 .bss           0x480dbe9c       0x1c Torque_Control_ETR071/Torque_Control_ETR071.a(Torque_Control_ETR07_main.o)
 .bss           0x480dbeb8        0x0 Torque_Control_ETR071/Torque_Control_ETR071.a(rt_sim.o)
 .bss           0x480dbeb8        0x0 C:/Program Files (x86)/ETAS/INTECRIO4.7/Target/ETarget/rtio/es9xxcan/ES910/es9xxCan_gnu.lib(es9xxCan.o)
 .bss           0x480dbeb8        0x0 C:/Program Files (x86)/ETAS/INTECRIO4.7/Target/ETarget/rtio/es9xxcan/ES910/es9xxCan_gnu.lib(es9xxCanCanio.o)
 .bss           0x480dbeb8        0x0 C:/Program Files (x86)/ETAS/INTECRIO4.7/Target/ETarget/rtio/es9xxcan/ES910/es9xxCan_gnu.lib(es9xxCanErr.o)
 .bss           0x480dbeb8      0x40c C:/Program Files (x86)/ETAS/INTECRIO4.7/Target/ETarget/rtio/es9xxcan/ES910/es9xxCan_gnu.lib(es9xxCanHalBuf.o)
 .bss           0x480dc2c4       0x30 C:/Program Files (x86)/ETAS/INTECRIO4.7/Target/ETarget/rtio/es9xxcan/ES910/es9xxCan_gnu.lib(es9xxCanHalIfi.o)
 .bss           0x480dc2f4        0x0 C:/ETAS/Compiler/INTECRIO4.7/QNXCompiler-V6.5\host\win32\x86/usr/lib/gcc/powerpc-unknown-nto-qnx6.5.0/4.4.2/spe/libgcc.a(_floatdidf.o)
 .bss           0x480dc2f4      0x36c C:\Program Files (x86)\ETAS\INTECRIO4.7\Target\Etarget\ES910\libes910.a(t_dataset.o)
                0x480dc318                variableObjList
                0x480dc300                parameterObjList
 .bss           0x480dc660        0x0 C:\Program Files (x86)\ETAS\INTECRIO4.7\Target\Etarget\ES910\libtarget.a(a_crc32.o)
 *(COMMON)
 COMMON         0x480dc660      0x348 Accel_Data_ETR071/Accel_Data_ETR071.a(Accel_Data_ETR07.o)
                0x480dc660                Accel_Data_ETR07_B
                0x480dc6a8                Accel_Data_ETR07_M_
                0x480dc8d8                Accel_Data_ETR07_Y
                0x480dc928                Accel_Data_ETR07_U
                0x480dc968                Accel_Data_ETR07_DW
 COMMON         0x480dc9a8      0x380 Car_State_ETR071/Car_State_ETR071.a(Car_State_ETR07.o)
                0x480dc9a8                Car_State_ETR07_M_
                0x480dcbd8                Car_State_ETR07_Y
                0x480dcc30                Car_State_ETR07_U
                0x480dcd18                Car_State_ETR07_DW
 COMMON         0x480dcd28      0x410 Disconnections_ETR071/Disconnections_ETR071.a(Disconnections_ETR07.o)
                0x480dcd28                Disconnections_ETR07_B
                0x480dcd60                Disconnections_ETR07_M_
                0x480dcf90                Disconnections_ETR07_U
                0x480dd018                Disconnections_ETR07_Y
                0x480dd0a8                Disconnections_ETR07_DW
 COMMON         0x480dd138      0x278 inverters_action_ETR071/inverters_action_ETR071.a(inverters_action_ETR07.o)
                0x480dd138                inverters_action_ETR07_DW
                0x480dd168                inverters_action_ETR07_M_
                0x480dd398                inverters_action_ETR07_U
 COMMON         0x480dd3b0      0x368 Inverters_Data_ETR071/Inverters_Data_ETR071.a(Inverters_Data_ETR07.o)
                0x480dd3b0                Inverters_Data_ETR07_Y
                0x480dd468                Inverters_Data_ETR07_U
                0x480dd4e8                Inverters_Data_ETR07_M_
 COMMON         0x480dd718      0x240 LVD_Data_ETR071/LVD_Data_ETR071.a(LVD_Data_ETR07.o)
                0x480dd718                LVD_Data_ETR07_DW
                0x480dd728                LVD_Data_ETR07_M_
 COMMON         0x480dd958      0x2a8 Pedals_Susp_Sensors_ETR071/Pedals_Susp_Sensors_ETR071.a(Pedals_Susp_Sensors_ETR07.o)
                0x480dd958                Pedals_Susp_Sensors_ETR07_Y
                0x480dd998                Pedals_Susp_Sensors_ETR07_M_
                0x480ddbc8                Pedals_Susp_Sensors_ETR07_U
 COMMON         0x480ddc00      0x340 Racing_Mode_ETR071/Racing_Mode_ETR071.a(Racing_Mode_ETR07.o)
                0x480ddc00                Racing_Mode_ETR07_M_
                0x480dde30                Racing_Mode_ETR07_B
                0x480dded0                Racing_Mode_ETR07_Y
                0x480ddf28                Racing_Mode_ETR07_U
 COMMON         0x480ddf40      0x240 Synchronism_ETR071/Synchronism_ETR071.a(Synchronism_ETR07.o)
                0x480ddf40                Synchronism_ETR07_M_
                0x480de170                Synchronism_ETR07_Y
 COMMON         0x480de180     0x1b90 Torque_Control_ETR071/Torque_Control_ETR071.a(Torque_Control_ETR07.o)
                0x480de180                Torque_Control_ETR07_U
                0x480de2b8                Torque_Control_ETR07_Y
                0x480de3b8                Torque_Control_ETR07_DW
                0x480de488                Torque_Control_ETR07_M_
                0x480de720                Torque_Control_ETR07_B
 COMMON         0x480dfd10        0xc OSC/osekdefs.o
                0x480dfd10                os_serviceArgs
 COMMON         0x480dfd1c      0x100 C:\Program Files (x86)\ETAS\INTECRIO4.7\Target\Etarget\ES910\libtarget.a(a_primit.o)
                0x480dfd1c                userS
 COMMON         0x480dfe1c       0x88 C:\Program Files (x86)\ETAS\INTECRIO4.7\Target\Etarget\ES910\rta_osek\librtk_s.a(ostarget.o)
                0x480dfe1c                os_sigmasks
                0x480dfea4                . = ALIGN ((. != 0x0)?0x4:0x1)
                0x480dfea4                . = ALIGN (0x4)
                0x480dfea4                . = ALIGN (0x4)
                0x480dfea4                __end = .
                0x480dfea4                _end = .
                0x480dfea4                PROVIDE (end, .)
                0x480dfea4                . = DATA_SEGMENT_END (.)

.stab
 *(.stab)

.stabstr
 *(.stabstr)

.stab.excl
 *(.stab.excl)

.stab.exclstr
 *(.stab.exclstr)

.stab.index
 *(.stab.index)

.stab.indexstr
 *(.stab.indexstr)

.comment        0x00000000      0xe46
 *(.comment)
 .comment       0x00000000       0x12 C:/ETAS/Compiler/INTECRIO4.7/QNXCompiler-V6.5\host\win32\x86/usr/lib/gcc/powerpc-unknown-nto-qnx6.5.0/4.4.2/spe/crtbegin.o
 .comment       0x00000012       0x12 ROOT_instances.o
 .comment       0x00000024       0x12 _INT_pid.pi.o
 .comment       0x00000036       0x12 userFuncProcessCanPayload.o
 .comment       0x00000048       0x12 userFuncProcessFlexRayPayload.o
 .comment       0x0000005a       0x12 OSC/i_rtawrapper.o
 .comment       0x0000006c       0x12 Accel_Data_ETR070/Accel_Data_ETR07_instances.o
 .comment       0x0000007e       0x12 Accel_Data_ETR071/Accel_Data_ETR071.a(Accel_Data_ETR07.o)
 .comment       0x00000090       0x12 Accel_Data_ETR071/Accel_Data_ETR071.a(Accel_Data_ETR07_data.o)
 .comment       0x000000a2       0x12 Car_State_ETR070/Car_State_ETR07_instances.o
 .comment       0x000000b4       0x12 Car_State_ETR071/Car_State_ETR071.a(Car_State_ETR07.o)
 .comment       0x000000c6       0x12 Car_State_ETR071/Car_State_ETR071.a(Car_State_ETR07_data.o)
 .comment       0x000000d8       0x12 Disconnections_ETR070/Disconnections_ETR07_instances.o
 .comment       0x000000ea       0x12 Disconnections_ETR071/Disconnections_ETR071.a(Disconnections_ETR07.o)
 .comment       0x000000fc       0x12 Disconnections_ETR071/Disconnections_ETR071.a(Disconnections_ETR07_data.o)
 .comment       0x0000010e       0x12 inverters_action_ETR070/inverters_action_ETR07_instances.o
 .comment       0x00000120       0x12 inverters_action_ETR071/inverters_action_ETR071.a(inverters_action_ETR07.o)
 .comment       0x00000132       0x12 inverters_action_ETR071/inverters_action_ETR071.a(inverters_action_ETR07_data.o)
 .comment       0x00000144       0x12 Inverters_Data_ETR070/Inverters_Data_ETR07_instances.o
 .comment       0x00000156       0x12 Inverters_Data_ETR071/Inverters_Data_ETR071.a(Inverters_Data_ETR07.o)
 .comment       0x00000168       0x12 Inverters_Data_ETR071/Inverters_Data_ETR071.a(Inverters_Data_ETR07_data.o)
 .comment       0x0000017a       0x12 LVD_Data_ETR070/LVD_Data_ETR07_instances.o
 .comment       0x0000018c       0x12 LVD_Data_ETR071/LVD_Data_ETR071.a(LVD_Data_ETR07.o)
 .comment       0x0000019e       0x12 LVD_Data_ETR071/LVD_Data_ETR071.a(LVD_Data_ETR07_data.o)
 .comment       0x000001b0       0x12 Pedals_Susp_Sensors_ETR070/Pedals_Susp_Sensors_ETR07_instances.o
 .comment       0x000001c2       0x12 Pedals_Susp_Sensors_ETR071/Pedals_Susp_Sensors_ETR071.a(Pedals_Susp_Sensors_ETR07.o)
 .comment       0x000001d4       0x12 Pedals_Susp_Sensors_ETR071/Pedals_Susp_Sensors_ETR071.a(Pedals_Susp_Sensors_ETR07_data.o)
 .comment       0x000001e6       0x12 Racing_Mode_ETR070/Racing_Mode_ETR07_instances.o
 .comment       0x000001f8       0x12 Racing_Mode_ETR071/Racing_Mode_ETR071.a(Racing_Mode_ETR07.o)
 .comment       0x0000020a       0x12 Racing_Mode_ETR071/Racing_Mode_ETR071.a(Racing_Mode_ETR07_data.o)
 .comment       0x0000021c       0x12 Synchronism_ETR070/Synchronism_ETR07_instances.o
 .comment       0x0000022e       0x12 Synchronism_ETR071/Synchronism_ETR071.a(Synchronism_ETR07.o)
 .comment       0x00000240       0x12 Synchronism_ETR071/Synchronism_ETR071.a(Synchronism_ETR07_data.o)
 .comment       0x00000252       0x12 Torque_Control_ETR070/Torque_Control_ETR07_instances.o
 .comment       0x00000264       0x12 Torque_Control_ETR071/Torque_Control_ETR071.a(Torque_Control_ETR07.o)
 .comment       0x00000276       0x12 Torque_Control_ETR071/Torque_Control_ETR071.a(Torque_Control_ETR07_data.o)
 .comment       0x00000288       0x12 matlabsharedR2017b/matlabsharedR2017b.a(rt_nonfinite.o)
 .comment       0x0000029a       0x12 matlabsharedR2017b/matlabsharedR2017b.a(mldivide_u4svsr16.o)
 .comment       0x000002ac       0x12 matlabsharedR2017b/matlabsharedR2017b.a(polyfit_vylrx3xp.o)
 .comment       0x000002be       0x12 matlabsharedR2017b/matlabsharedR2017b.a(rt_powd_snf.o)
 .comment       0x000002d0       0x12 matlabsharedR2017b/matlabsharedR2017b.a(xgeqp3_bpnhoopt.o)
 .comment       0x000002e2       0x12 matlabsharedR2017b/matlabsharedR2017b.a(xgeqp3_wlxeyd7k.o)
 .comment       0x000002f4       0x12 matlabsharedR2017b/matlabsharedR2017b.a(xnrm2_5mghfn4r.o)
 .comment       0x00000306       0x12 matlabsharedR2017b/matlabsharedR2017b.a(xnrm2_ecih3nop.o)
 .comment       0x00000318       0x12 matlabsharedR2017b/matlabsharedR2017b.a(xnrm2_kgimahi2.o)
 .comment       0x0000032a       0x12 matlabsharedR2017b/matlabsharedR2017b.a(xnrm2_uobmrgas.o)
 .comment       0x0000033c       0x12 matlabsharedR2017b/matlabsharedR2017b.a(rtgetinf.o)
 .comment       0x0000034e       0x12 matlabsharedR2017b/matlabsharedR2017b.a(rtgetnan.o)
 .comment       0x00000360       0x12 matlabsharedR2017b/matlabsharedR2017b.a(rt_hypotd_snf.o)
 .comment       0x00000372       0x12 OSC/osekdefs.o
 .comment       0x00000384       0x12 OSC/TaskISRArchive.a(etasConfigTask.o)
 .comment       0x00000396       0x12 OSC/TaskISRArchive.a(Sync_25ms.o)
 .comment       0x000003a8       0x12 OSC/TaskISRArchive.a(Timer_1000ms.o)
 .comment       0x000003ba       0x12 OSC/TaskISRArchive.a(Timer_100ms.o)
 .comment       0x000003cc       0x12 OSC/TaskISRArchive.a(Timer_25ms.o)
 .comment       0x000003de       0x12 OSC/TaskISRArchive.a(Timer_Inv.o)
 .comment       0x000003f0       0x12 OSC/TaskISRArchive.a(SWT_CAN1_AP_BMS_ChargerParameters.o)
 .comment       0x00000402       0x12 OSC/TaskISRArchive.a(SWT_CAN1_AP_BMS_BatteryTemperatures.o)
 .comment       0x00000414       0x12 OSC/TaskISRArchive.a(SWT_CAN1_AP_BMS_AIRs_State.o)
 .comment       0x00000426       0x12 OSC/TaskISRArchive.a(SWT_CAN1_AP_BMS_Current_SOC_SOH.o)
 .comment       0x00000438       0x12 OSC/TaskISRArchive.a(SWT_CAN1_AP_BMS_StateAndFailReport.o)
 .comment       0x0000044a       0x12 OSC/TaskISRArchive.a(SWT_CAN1_AP_BMS_Voltages.o)
 .comment       0x0000045c       0x12 OSC/TaskISRArchive.a(SWT_CAN1_AP_BMS_OnBoardTemperatures.o)
 .comment       0x0000046e       0x12 OSC/TaskISRArchive.a(SWT_CAN1_AP_Inverter_R_Tx.o)
 .comment       0x00000480       0x12 OSC/TaskISRArchive.a(SWT_CAN1_AP_Inverter_L_Tx.o)
 .comment       0x00000492       0x12 OSC/TaskISRArchive.a(SWT_CAN1_AP_DASH_CustomMode.o)
 .comment       0x000004a4       0x12 OSC/TaskISRArchive.a(SWT_CAN1_AP_DASH_Mode.o)
 .comment       0x000004b6       0x12 OSC/TaskISRArchive.a(SWT_CAN1_NM_BMS_Keep_Alive.o)
 .comment       0x000004c8       0x12 OSC/TaskISRArchive.a(SWT_CAN1_NM_DASH_Keep_Alive.o)
 .comment       0x000004da       0x12 OSC/TaskISRArchive.a(SWT_CAN1_AP_DASH_TorqueLockOn.o)
 .comment       0x000004ec       0x12 OSC/TaskISRArchive.a(SWT_CAN1_AP_DASH_PrechargeRequest.o)
 .comment       0x000004fe       0x12 OSC/TaskISRArchive.a(SWT_CAN1_AP_DASH_EnableDrive.o)
 .comment       0x00000510       0x12 OSC/TaskISRArchive.a(SWT_CAN1_AP_SHUTDOWN_State.o)
 .comment       0x00000522       0x12 OSC/TaskISRArchive.a(SWT_CAN1_NM_SHUTDOWN_Keep_Alive.o)
 .comment       0x00000534       0x12 OSC/TaskISRArchive.a(SWT_CAN2_AP_LV_Derivation_LVData.o)
 .comment       0x00000546       0x12 OSC/TaskISRArchive.a(SWT_CAN2_AP_ACCEL_R_Data2.o)
 .comment       0x00000558       0x12 OSC/TaskISRArchive.a(SWT_CAN2_NM_LV_Derivation_Keep_Alive.o)
 .comment       0x0000056a       0x12 OSC/TaskISRArchive.a(SWT_CAN2_AP_ACCEL_F_Data.o)
 .comment       0x0000057c       0x12 OSC/TaskISRArchive.a(SWT_CAN2_NM_ACCEL_F_Keep_Alive.o)
 .comment       0x0000058e       0x12 OSC/TaskISRArchive.a(SWT_CAN2_NM_ACCEL_R_Keep_Alive.o)
 .comment       0x000005a0       0x12 OSC/TaskISRArchive.a(SWT_CAN2_AP_ACCEL_R_Data.o)
 .comment       0x000005b2       0x12 OSC/TaskISRArchive.a(SWT_CAN2_AP_ADCAN_Data2.o)
 .comment       0x000005c4       0x12 OSC/TaskISRArchive.a(SWT_CAN2_AP_ADCAN_Data1.o)
 .comment       0x000005d6       0x12 OSC/TaskISRArchive.a(SWT_CAN2_NM_ADCAN_Keep_Alive.o)
 .comment       0x000005e8       0x12 OSC/TaskISRArchive.a(SWT_CAN2_AP_ELIPSE_VelAngular.o)
 .comment       0x000005fa       0x12 OSC/TaskISRArchive.a(SWT_CAN2_AP_ELIPSE_VelBody.o)
 .comment       0x0000060c       0x12 OSC/TaskISRArchive.a(SWT_CAN1_AP_BMS_Current_SOC.o)
 .comment       0x0000061e       0x12 OSC/TaskISRArchive.a(SWT_CAN1_AP_BMS_Current_SOC_SOH1.o)
 .comment       0x00000630       0x12 OSC/TaskISRArchive.a(SWT_CAN1_AP_BMS_OnBoardTemperatures1.o)
 .comment       0x00000642       0x12 OSC/TaskISRArchive.a(NewISR.o)
 .comment       0x00000654       0x12 OSC/TaskISRArchive.a(NewISR1.o)
 .comment       0x00000666       0x12 OSC/etasActivateTaskIsr.o
 .comment       0x00000678       0x12 OSC/etasL1Isr.o
 .comment       0x0000068a       0x12 OSC/etasL1Task.o
 .comment       0x0000069c       0x12 OSC/etasTimerIsr.o
 .comment       0x000006ae       0x12 OSC/etasStopOsIsr.o
 .comment       0x000006c0       0x12 OSC/DriverThreads.o
 .comment       0x000006d2       0x12 OSC/ISRFunctions.o
 .comment       0x000006e4       0x12 OSC/osc_dyn.o
 .comment       0x000006f6       0x12 OSC/rtaInterface.o
 .comment       0x00000708       0x12 OSC/ETCHooks.o
 .comment       0x0000071a       0x12 OSC/XbarHooks.o
 .comment       0x0000072c       0x12 ETC/FormulaTable.o
 .comment       0x0000073e       0x12 ETC/DriverTable.o
 .comment       0x00000750       0x12 ETC/MappingFunctionTable.o
 .comment       0x00000762       0x12 ETC/RtioL1RecordTable.o
 .comment       0x00000774       0x12 ETC/XCPTransportLayerFunctionsTable.o
 .comment       0x00000786       0x12 ETC/ChecksumAlgoTables.o
 .comment       0x00000798       0x12 CBC/CopyFunctionTable.o
 .comment       0x000007aa       0x12 CBC/CrossbarL1RecordTable.o
 .comment       0x000007bc       0x12 C:/ETAS/Compiler/INTECRIO4.7/QNXCompiler-V6.5\host\win32\x86/usr/lib/gcc/powerpc-unknown-nto-qnx6.5.0/4.4.2/spe/libgcc.a(_fixunsdfdi.o)
 .comment       0x000007ce       0x12 C:/ETAS/Compiler/INTECRIO4.7/QNXCompiler-V6.5\host\win32\x86/usr/lib/gcc/powerpc-unknown-nto-qnx6.5.0/4.4.2/spe/libgcc.a(_floatundidf.o)
 .comment       0x000007e0       0x12 C:/ETAS/Compiler/INTECRIO4.7/QNXCompiler-V6.5\host\win32\x86/usr/lib/gcc/powerpc-unknown-nto-qnx6.5.0/4.4.2/spe/crtend.o
 .comment       0x000007f2       0x12 C:\Program Files (x86)\ETAS\INTECRIO4.7\Target\Etarget\ES910\libes910.a(i_rtautil.o)
 .comment       0x00000804       0x12 C:\Program Files (x86)\ETAS\INTECRIO4.7\Target\Etarget\ES910\libes910.a(t_driverThreads.o)
 .comment       0x00000816       0x12 C:\Program Files (x86)\ETAS\INTECRIO4.7\Target\Etarget\ES910\libes910.a(t_idle.o)
 .comment       0x00000828       0x12 C:\Program Files (x86)\ETAS\INTECRIO4.7\Target\Etarget\ES910\libes910.a(t_l1com.o)
 .comment       0x0000083a       0x12 C:\Program Files (x86)\ETAS\INTECRIO4.7\Target\Etarget\ES910\libes910.a(t_main.o)
 .comment       0x0000084c       0x12 C:\Program Files (x86)\ETAS\INTECRIO4.7\Target\Etarget\ES910\libes910.a(t_mlog.o)
 .comment       0x0000085e       0x12 C:\Program Files (x86)\ETAS\INTECRIO4.7\Target\Etarget\ES910\libes910.a(t_qnxtargetutil.o)
 .comment       0x00000870       0x12 C:\Program Files (x86)\ETAS\INTECRIO4.7\Target\Etarget\ES910\libes910.a(t_targetutil.o)
 .comment       0x00000882       0x12 C:\Program Files (x86)\ETAS\INTECRIO4.7\Target\Etarget\ES910\libes910.a(t_watchdog.o)
 .comment       0x00000894       0x12 C:\Program Files (x86)\ETAS\INTECRIO4.7\Target\Etarget\ES910\libes910.a(p_chario.o)
 .comment       0x000008a6       0x12 C:\Program Files (x86)\ETAS\INTECRIO4.7\Target\Etarget\ES910\libes910.a(t_hwTimeSync.o)
 .comment       0x000008b8       0x12 C:\Program Files (x86)\ETAS\INTECRIO4.7\Target\Etarget\ES910\libes910.a(t_led.o)
 .comment       0x000008ca       0x12 C:\Program Files (x86)\ETAS\INTECRIO4.7\Target\Etarget\ES910\libtarget.a(a_dacqui.o)
 .comment       0x000008dc       0x12 C:\Program Files (x86)\ETAS\INTECRIO4.7\Target\Etarget\ES910\libtarget.a(a_l1pro.o)
 .comment       0x000008ee       0x12 C:\Program Files (x86)\ETAS\INTECRIO4.7\Target\Etarget\ES910\libtarget.a(a_primit.o)
 .comment       0x00000900       0x12 C:\Program Files (x86)\ETAS\INTECRIO4.7\Target\Etarget\ES910\libtarget.a(a_sysver.o)
 .comment       0x00000912       0x12 C:\Program Files (x86)\ETAS\INTECRIO4.7\Target\Etarget\ES910\libtarget.a(a_targma.o)
 .comment       0x00000924       0x12 C:\Program Files (x86)\ETAS\INTECRIO4.7\Target\Etarget\ES910\libtarget.a(i_cpyfnc.o)
 .comment       0x00000936       0x12 C:\Program Files (x86)\ETAS\INTECRIO4.7\Target\Etarget\ES910\libtarget.a(i_mapfnc.o)
 .comment       0x00000948       0x12 C:\Program Files (x86)\ETAS\INTECRIO4.7\Target\Etarget\ES910\libtarget.a(i_osman.o)
 .comment       0x0000095a       0x12 C:\Program Files (x86)\ETAS\INTECRIO4.7\Target\Etarget\ES910\libtarget.a(i_rtioma.o)
 .comment       0x0000096c       0x12 C:\Program Files (x86)\ETAS\INTECRIO4.7\Target\Etarget\ES910\libtarget.a(i_salone.o)
 .comment       0x0000097e       0x12 C:\Program Files (x86)\ETAS\INTECRIO4.7\Target\Etarget\ES910\libtarget.a(t_croman.o)
 .comment       0x00000990       0x12 C:\Program Files (x86)\ETAS\INTECRIO4.7\Target\Etarget\ES910\libtarget.a(t_nvram.o)
 .comment       0x000009a2       0x12 C:\Program Files (x86)\ETAS\INTECRIO4.7\Target\Etarget\ES910\libtarget.a(t_objlis.o)
 .comment       0x000009b4       0x12 C:\Program Files (x86)\ETAS\INTECRIO4.7\Target\Etarget\ES910\libtarget.a(t_rtcros.o)
 .comment       0x000009c6       0x12 C:\Program Files (x86)\ETAS\INTECRIO4.7\Target\Etarget\ES910\libtarget.a(t_sgman.o)
 .comment       0x000009d8       0x12 C:\Program Files (x86)\ETAS\INTECRIO4.7\Target\Etarget\ES910\libtarget.a(y_primit.o)
 .comment       0x000009ea       0x12 C:\Program Files (x86)\ETAS\INTECRIO4.7\Target\Etarget\ES910\libtarget.a(a1b_dacq.o)
 .comment       0x000009fc       0x12 C:\Program Files (x86)\ETAS\INTECRIO4.7\Target\Etarget\ES910\libtarget.a(a_contai.o)
 .comment       0x00000a0e       0x12 C:\Program Files (x86)\ETAS\INTECRIO4.7\Target\Etarget\ES910\libtarget.a(t_sglow.o)
 .comment       0x00000a20       0x12 C:\Program Files (x86)\ETAS\INTECRIO4.7\Target\Etarget\rtio\global\es910\librtio_gnu.a(comm_err.o)
 .comment       0x00000a32       0x12 C:\Program Files (x86)\ETAS\INTECRIO4.7\Target\Etarget\rtio\global\es910\librtio_gnu.a(p_rtio.o)
 .comment       0x00000a44       0x12 C:\Program Files (x86)\ETAS\INTECRIO4.7\Target\Etarget\rtio\global\es910\librtio_gnu.a(p_rtio_s.o)
 .comment       0x00000a56       0x12 C:\Program Files (x86)\ETAS\INTECRIO4.7\Target\Etarget\rtio\global\es910\librtio_gnu.a(rtio_err.o)
 .comment       0x00000a68       0x12 C:\Program Files (x86)\ETAS\INTECRIO4.7\Target\Etarget\ES910\rta_osek\librtk_s.a(ostarget.o)
 .comment       0x00000a7a       0x12 C:\Program Files (x86)\ETAS\INTECRIO4.7\Target\Etarget\ES910\rta_osek\librtk_s.a(osfptgt.o)
 .comment       0x00000a8c       0x12 C:\Program Files (x86)\ETAS\INTECRIO4.7\Target\Etarget\ES910\rta_osek\librtk_s.a(osiwrap1.o)
 .comment       0x00000a9e       0x12 C:\Program Files (x86)\ETAS\INTECRIO4.7\Target\Etarget\ES910\rta_osek\librtk_s.a(osxdspnf.o)
 .comment       0x00000ab0       0x12 C:\Program Files (x86)\ETAS\INTECRIO4.7\Target\Etarget\ES910\rta_osek\librtk_s.a(osysd1hf.o)
 .comment       0x00000ac2       0x12 C:\Program Files (x86)\ETAS\INTECRIO4.7\Target\Etarget\ES910\rta_osek\librtk_s.a(osysdfhf.o)
 .comment       0x00000ad4       0x12 C:\Program Files (x86)\ETAS\INTECRIO4.7\Target\Etarget\ES910\rta_osek\librtk_s.a(osysdfhi.o)
 .comment       0x00000ae6       0x12 C:\Program Files (x86)\ETAS\INTECRIO4.7\Target\Etarget\ES910\rta_osek\librtk_s.a(ostgid.o)
 .comment       0x00000af8       0x12 C:\Program Files (x86)\ETAS\INTECRIO4.7\Target\Etarget\ES910\rta_osek\librtk_s.a(ostschf.o)
 .comment       0x00000b0a       0x12 C:\Program Files (x86)\ETAS\INTECRIO4.7\Target\Etarget\ES910\rta_osek\librtk_s.a(osieai.o)
 .comment       0x00000b1c       0x12 C:\Program Files (x86)\ETAS\INTECRIO4.7\Target\Etarget\ES910\rta_osek\librtk_s.a(osidai.o)
 .comment       0x00000b2e       0x12 C:\Program Files (x86)\ETAS\INTECRIO4.7\Target\Etarget\ES910\rta_osek\librtk_s.a(osisoi.o)
 .comment       0x00000b40       0x12 C:\Program Files (x86)\ETAS\INTECRIO4.7\Target\Etarget\ES910\rta_osek\librtk_s.a(osirai.o)
 .comment       0x00000b52       0x12 C:\Program Files (x86)\ETAS\INTECRIO4.7\Target\Etarget\ES910\rta_osek\librtk_s.a(osisai.o)
 .comment       0x00000b64       0x12 C:\Program Files (x86)\ETAS\INTECRIO4.7\Target\Etarget\ES910\rta_osek\librtk_s.a(osxperr2.o)
 .comment       0x00000b76       0x12 C:\Program Files (x86)\ETAS\INTECRIO4.7\Target\Etarget\ES910\rta_osek\librtk_s.a(osxglobs.o)
 .comment       0x00000b88       0x12 C:\Program Files (x86)\ETAS\INTECRIO4.7\Target\Etarget\ES910\rta_osek\librtk_s.a(osostart.o)
 .comment       0x00000b9a       0x12 C:\Program Files (x86)\ETAS\INTECRIO4.7\Target\Etarget\ES910\rta_osek\librtk_s.a(ososhuth.o)
 .comment       0x00000bac       0x12 C:\Program Files (x86)\ETAS\INTECRIO4.7\Target\Etarget\ES910\rta_osek\librtk_s.a(osttermh.o)
 .comment       0x00000bbe       0x12 C:\Program Files (x86)\ETAS\INTECRIO4.7\Target\Etarget\ES910\rta_osek\librtk_s.a(ostactsf.o)
 .comment       0x00000bd0       0x12 C:\Program Files (x86)\ETAS\INTECRIO4.7\Target\Etarget\ES910\rta_osek\librtk_s.a(ostactnf.o)
 .comment       0x00000be2       0x12 C:\Program Files (x86)\ETAS\INTECRIO4.7\Target\Etarget\ES910\rta_osek\librtk_s.a(osatickn.o)
 .comment       0x00000bf4       0x12 C:\Program Files (x86)\ETAS\INTECRIO4.7\Target\Etarget\ES910\rta_osek\librtk_s.a(osacallb.o)
 .comment       0x00000c06       0x12 C:\Program Files (x86)\ETAS\INTECRIO4.7\Target\Etarget\ES910\rta_osek\librtk_s.a(osxdpsho.o)
 .comment       0x00000c18       0x12 C:\Program Files (x86)\ETAS\INTECRIO4.7\Target\Etarget\ES910\rta_osek\librtk_s.a(osiwrap.o)
 .comment       0x00000c2a       0x12 C:\Program Files (x86)\ETAS\INTECRIO4.7\Target\Etarget\ES910\rta_osek\librtk_s.a(ososhutn.o)
 .comment       0x00000c3c       0x12 C:\Program Files (x86)\ETAS\INTECRIO4.7\Target\Etarget\ES910\libcommon.a(p_execl1.o)
 .comment       0x00000c4e       0x12 C:\Program Files (x86)\ETAS\INTECRIO4.7\Target\Etarget\ES910\libcommon.a(p_protl1.o)
 .comment       0x00000c60       0x12 C:\Program Files (x86)\ETAS\INTECRIO4.7\Target\Etarget\ES910\libcommon.a(p_stdeb.o)
 .comment       0x00000c72       0x12 Accel_Data_ETR071/Accel_Data_ETR071.a(Accel_Data_ETR07_main.o)
 .comment       0x00000c84       0x12 Accel_Data_ETR071/Accel_Data_ETR071.a(rt_sim.o)
 .comment       0x00000c96       0x12 Car_State_ETR071/Car_State_ETR071.a(Car_State_ETR07_main.o)
 .comment       0x00000ca8       0x12 Car_State_ETR071/Car_State_ETR071.a(rt_sim.o)
 .comment       0x00000cba       0x12 Disconnections_ETR071/Disconnections_ETR071.a(Disconnections_ETR07_main.o)
 .comment       0x00000ccc       0x12 Disconnections_ETR071/Disconnections_ETR071.a(rt_sim.o)
 .comment       0x00000cde       0x12 inverters_action_ETR071/inverters_action_ETR071.a(inverters_action_ETR07_main.o)
 .comment       0x00000cf0       0x12 inverters_action_ETR071/inverters_action_ETR071.a(rt_sim.o)
 .comment       0x00000d02       0x12 Inverters_Data_ETR071/Inverters_Data_ETR071.a(Inverters_Data_ETR07_main.o)
 .comment       0x00000d14       0x12 Inverters_Data_ETR071/Inverters_Data_ETR071.a(rt_sim.o)
 .comment       0x00000d26       0x12 Pedals_Susp_Sensors_ETR071/Pedals_Susp_Sensors_ETR071.a(Pedals_Susp_Sensors_ETR07_main.o)
 .comment       0x00000d38       0x12 Pedals_Susp_Sensors_ETR071/Pedals_Susp_Sensors_ETR071.a(rt_sim.o)
 .comment       0x00000d4a       0x12 Racing_Mode_ETR071/Racing_Mode_ETR071.a(Racing_Mode_ETR07_main.o)
 .comment       0x00000d5c       0x12 Racing_Mode_ETR071/Racing_Mode_ETR071.a(rt_sim.o)
 .comment       0x00000d6e       0x12 Synchronism_ETR071/Synchronism_ETR071.a(Synchronism_ETR07_main.o)
 .comment       0x00000d80       0x12 Synchronism_ETR071/Synchronism_ETR071.a(rt_sim.o)
 .comment       0x00000d92       0x12 Torque_Control_ETR071/Torque_Control_ETR071.a(Torque_Control_ETR07_main.o)
 .comment       0x00000da4       0x12 Torque_Control_ETR071/Torque_Control_ETR071.a(rt_sim.o)
 .comment       0x00000db6       0x12 C:/Program Files (x86)/ETAS/INTECRIO4.7/Target/ETarget/rtio/es9xxcan/ES910/es9xxCan_gnu.lib(es9xxCan.o)
 .comment       0x00000dc8       0x12 C:/Program Files (x86)/ETAS/INTECRIO4.7/Target/ETarget/rtio/es9xxcan/ES910/es9xxCan_gnu.lib(es9xxCanCanio.o)
 .comment       0x00000dda       0x12 C:/Program Files (x86)/ETAS/INTECRIO4.7/Target/ETarget/rtio/es9xxcan/ES910/es9xxCan_gnu.lib(es9xxCanErr.o)
 .comment       0x00000dec       0x12 C:/Program Files (x86)/ETAS/INTECRIO4.7/Target/ETarget/rtio/es9xxcan/ES910/es9xxCan_gnu.lib(es9xxCanHalBuf.o)
 .comment       0x00000dfe       0x12 C:/Program Files (x86)/ETAS/INTECRIO4.7/Target/ETarget/rtio/es9xxcan/ES910/es9xxCan_gnu.lib(es9xxCanHalIfi.o)
 .comment       0x00000e10       0x12 C:/ETAS/Compiler/INTECRIO4.7/QNXCompiler-V6.5\host\win32\x86/usr/lib/gcc/powerpc-unknown-nto-qnx6.5.0/4.4.2/spe/libgcc.a(_floatdidf.o)
 .comment       0x00000e22       0x12 C:\Program Files (x86)\ETAS\INTECRIO4.7\Target\Etarget\ES910\libes910.a(t_dataset.o)
 .comment       0x00000e34       0x12 C:\Program Files (x86)\ETAS\INTECRIO4.7\Target\Etarget\ES910\libtarget.a(a_crc32.o)

.debug
 *(.debug)

.line
 *(.line)

.debug_srcinfo
 *(.debug_srcinfo)

.debug_sfnames
 *(.debug_sfnames)

.debug_aranges  0x00000000       0x60
 *(.debug_aranges)
 .debug_aranges
                0x00000000       0x20 C:/ETAS/Compiler/INTECRIO4.7/QNXCompiler-V6.5\host\win32\x86/usr/lib/gcc/powerpc-unknown-nto-qnx6.5.0/4.4.2/spe/libgcc.a(_fixunsdfdi.o)
 .debug_aranges
                0x00000020       0x20 C:/ETAS/Compiler/INTECRIO4.7/QNXCompiler-V6.5\host\win32\x86/usr/lib/gcc/powerpc-unknown-nto-qnx6.5.0/4.4.2/spe/libgcc.a(_floatundidf.o)
 .debug_aranges
                0x00000040       0x20 C:/ETAS/Compiler/INTECRIO4.7/QNXCompiler-V6.5\host\win32\x86/usr/lib/gcc/powerpc-unknown-nto-qnx6.5.0/4.4.2/spe/libgcc.a(_floatdidf.o)

.debug_pubnames
                0x00000000       0x69
 *(.debug_pubnames)
 .debug_pubnames
                0x00000000       0x23 C:/ETAS/Compiler/INTECRIO4.7/QNXCompiler-V6.5\host\win32\x86/usr/lib/gcc/powerpc-unknown-nto-qnx6.5.0/4.4.2/spe/libgcc.a(_fixunsdfdi.o)
 .debug_pubnames
                0x00000023       0x24 C:/ETAS/Compiler/INTECRIO4.7/QNXCompiler-V6.5\host\win32\x86/usr/lib/gcc/powerpc-unknown-nto-qnx6.5.0/4.4.2/spe/libgcc.a(_floatundidf.o)
 .debug_pubnames
                0x00000047       0x22 C:/ETAS/Compiler/INTECRIO4.7/QNXCompiler-V6.5\host\win32\x86/usr/lib/gcc/powerpc-unknown-nto-qnx6.5.0/4.4.2/spe/libgcc.a(_floatdidf.o)

.debug_info     0x00000000      0x2c0
 *(.debug_info .gnu.linkonce.wi.*)
 .debug_info    0x00000000      0x102 C:/ETAS/Compiler/INTECRIO4.7/QNXCompiler-V6.5\host\win32\x86/usr/lib/gcc/powerpc-unknown-nto-qnx6.5.0/4.4.2/spe/libgcc.a(_fixunsdfdi.o)
 .debug_info    0x00000102       0xdf C:/ETAS/Compiler/INTECRIO4.7/QNXCompiler-V6.5\host\win32\x86/usr/lib/gcc/powerpc-unknown-nto-qnx6.5.0/4.4.2/spe/libgcc.a(_floatundidf.o)
 .debug_info    0x000001e1       0xdf C:/ETAS/Compiler/INTECRIO4.7/QNXCompiler-V6.5\host\win32\x86/usr/lib/gcc/powerpc-unknown-nto-qnx6.5.0/4.4.2/spe/libgcc.a(_floatdidf.o)

.debug_abbrev   0x00000000      0x175
 *(.debug_abbrev)
 .debug_abbrev  0x00000000       0x8b C:/ETAS/Compiler/INTECRIO4.7/QNXCompiler-V6.5\host\win32\x86/usr/lib/gcc/powerpc-unknown-nto-qnx6.5.0/4.4.2/spe/libgcc.a(_fixunsdfdi.o)
 .debug_abbrev  0x0000008b       0x75 C:/ETAS/Compiler/INTECRIO4.7/QNXCompiler-V6.5\host\win32\x86/usr/lib/gcc/powerpc-unknown-nto-qnx6.5.0/4.4.2/spe/libgcc.a(_floatundidf.o)
 .debug_abbrev  0x00000100       0x75 C:/ETAS/Compiler/INTECRIO4.7/QNXCompiler-V6.5\host\win32\x86/usr/lib/gcc/powerpc-unknown-nto-qnx6.5.0/4.4.2/spe/libgcc.a(_floatdidf.o)

.debug_line     0x00000000      0x143
 *(.debug_line)
 .debug_line    0x00000000       0x6f C:/ETAS/Compiler/INTECRIO4.7/QNXCompiler-V6.5\host\win32\x86/usr/lib/gcc/powerpc-unknown-nto-qnx6.5.0/4.4.2/spe/libgcc.a(_fixunsdfdi.o)
 .debug_line    0x0000006f       0x6a C:/ETAS/Compiler/INTECRIO4.7/QNXCompiler-V6.5\host\win32\x86/usr/lib/gcc/powerpc-unknown-nto-qnx6.5.0/4.4.2/spe/libgcc.a(_floatundidf.o)
 .debug_line    0x000000d9       0x6a C:/ETAS/Compiler/INTECRIO4.7/QNXCompiler-V6.5\host\win32\x86/usr/lib/gcc/powerpc-unknown-nto-qnx6.5.0/4.4.2/spe/libgcc.a(_floatdidf.o)

.debug_frame
 *(.debug_frame)

.debug_str      0x00000000      0x13b
 *(.debug_str)
 .debug_str     0x00000000      0x121 C:/ETAS/Compiler/INTECRIO4.7/QNXCompiler-V6.5\host\win32\x86/usr/lib/gcc/powerpc-unknown-nto-qnx6.5.0/4.4.2/spe/libgcc.a(_fixunsdfdi.o)
                                0x167 (size before relaxing)
 .debug_str     0x00000121        0xe C:/ETAS/Compiler/INTECRIO4.7/QNXCompiler-V6.5\host\win32\x86/usr/lib/gcc/powerpc-unknown-nto-qnx6.5.0/4.4.2/spe/libgcc.a(_floatundidf.o)
                                0x160 (size before relaxing)
 .debug_str     0x0000012f        0xc C:/ETAS/Compiler/INTECRIO4.7/QNXCompiler-V6.5\host\win32\x86/usr/lib/gcc/powerpc-unknown-nto-qnx6.5.0/4.4.2/spe/libgcc.a(_floatdidf.o)
                                0x15d (size before relaxing)

.debug_loc      0x00000000       0xd4
 *(.debug_loc)
 .debug_loc     0x00000000       0x32 C:/ETAS/Compiler/INTECRIO4.7/QNXCompiler-V6.5\host\win32\x86/usr/lib/gcc/powerpc-unknown-nto-qnx6.5.0/4.4.2/spe/libgcc.a(_fixunsdfdi.o)
 .debug_loc     0x00000032       0x51 C:/ETAS/Compiler/INTECRIO4.7/QNXCompiler-V6.5\host\win32\x86/usr/lib/gcc/powerpc-unknown-nto-qnx6.5.0/4.4.2/spe/libgcc.a(_floatundidf.o)
 .debug_loc     0x00000083       0x51 C:/ETAS/Compiler/INTECRIO4.7/QNXCompiler-V6.5\host\win32\x86/usr/lib/gcc/powerpc-unknown-nto-qnx6.5.0/4.4.2/spe/libgcc.a(_floatdidf.o)

.debug_macinfo
 *(.debug_macinfo)

.debug_weaknames
 *(.debug_weaknames)

.debug_funcnames
 *(.debug_funcnames)

.debug_typenames
 *(.debug_typenames)

.debug_varnames
 *(.debug_varnames)

.debug_pubtypes
 *(.debug_pubtypes)

.debug_ranges
 *(.debug_ranges)

.gnu.attributes
                0x00000000       0x12
 *(.gnu.attributes)
 .gnu.attributes
                0x00000000       0x14 C:/ETAS/Compiler/INTECRIO4.7/QNXCompiler-V6.5\host\win32\x86/usr/lib/gcc/powerpc-unknown-nto-qnx6.5.0/4.4.2/spe/crtbegin.o
 .gnu.attributes
                0x00000014       0x14 ROOT_instances.o
 .gnu.attributes
                0x00000028       0x14 _INT_pid.pi.o
 .gnu.attributes
                0x0000003c       0x14 userFuncProcessCanPayload.o
 .gnu.attributes
                0x00000050       0x14 userFuncProcessFlexRayPayload.o
 .gnu.attributes
                0x00000064       0x14 OSC/i_rtawrapper.o
 .gnu.attributes
                0x00000078       0x14 Accel_Data_ETR070/Accel_Data_ETR07_instances.o
 .gnu.attributes
                0x0000008c       0x14 Accel_Data_ETR071/Accel_Data_ETR071.a(Accel_Data_ETR07.o)
 .gnu.attributes
                0x000000a0       0x14 Accel_Data_ETR071/Accel_Data_ETR071.a(Accel_Data_ETR07_data.o)
 .gnu.attributes
                0x000000b4       0x14 Car_State_ETR070/Car_State_ETR07_instances.o
 .gnu.attributes
                0x000000c8       0x14 Car_State_ETR071/Car_State_ETR071.a(Car_State_ETR07.o)
 .gnu.attributes
                0x000000dc       0x14 Car_State_ETR071/Car_State_ETR071.a(Car_State_ETR07_data.o)
 .gnu.attributes
                0x000000f0       0x14 Disconnections_ETR070/Disconnections_ETR07_instances.o
 .gnu.attributes
                0x00000104       0x14 Disconnections_ETR071/Disconnections_ETR071.a(Disconnections_ETR07.o)
 .gnu.attributes
                0x00000118       0x14 Disconnections_ETR071/Disconnections_ETR071.a(Disconnections_ETR07_data.o)
 .gnu.attributes
                0x0000012c       0x14 inverters_action_ETR070/inverters_action_ETR07_instances.o
 .gnu.attributes
                0x00000140       0x14 inverters_action_ETR071/inverters_action_ETR071.a(inverters_action_ETR07.o)
 .gnu.attributes
                0x00000154       0x14 inverters_action_ETR071/inverters_action_ETR071.a(inverters_action_ETR07_data.o)
 .gnu.attributes
                0x00000168       0x14 Inverters_Data_ETR070/Inverters_Data_ETR07_instances.o
 .gnu.attributes
                0x0000017c       0x14 Inverters_Data_ETR071/Inverters_Data_ETR071.a(Inverters_Data_ETR07.o)
 .gnu.attributes
                0x00000190       0x14 Inverters_Data_ETR071/Inverters_Data_ETR071.a(Inverters_Data_ETR07_data.o)
 .gnu.attributes
                0x000001a4       0x14 LVD_Data_ETR070/LVD_Data_ETR07_instances.o
 .gnu.attributes
                0x000001b8       0x14 LVD_Data_ETR071/LVD_Data_ETR071.a(LVD_Data_ETR07.o)
 .gnu.attributes
                0x000001cc       0x14 LVD_Data_ETR071/LVD_Data_ETR071.a(LVD_Data_ETR07_data.o)
 .gnu.attributes
                0x000001e0       0x14 Pedals_Susp_Sensors_ETR070/Pedals_Susp_Sensors_ETR07_instances.o
 .gnu.attributes
                0x000001f4       0x14 Pedals_Susp_Sensors_ETR071/Pedals_Susp_Sensors_ETR071.a(Pedals_Susp_Sensors_ETR07.o)
 .gnu.attributes
                0x00000208       0x14 Pedals_Susp_Sensors_ETR071/Pedals_Susp_Sensors_ETR071.a(Pedals_Susp_Sensors_ETR07_data.o)
 .gnu.attributes
                0x0000021c       0x14 Racing_Mode_ETR070/Racing_Mode_ETR07_instances.o
 .gnu.attributes
                0x00000230       0x14 Racing_Mode_ETR071/Racing_Mode_ETR071.a(Racing_Mode_ETR07.o)
 .gnu.attributes
                0x00000244       0x14 Racing_Mode_ETR071/Racing_Mode_ETR071.a(Racing_Mode_ETR07_data.o)
 .gnu.attributes
                0x00000258       0x14 Synchronism_ETR070/Synchronism_ETR07_instances.o
 .gnu.attributes
                0x0000026c       0x14 Synchronism_ETR071/Synchronism_ETR071.a(Synchronism_ETR07.o)
 .gnu.attributes
                0x00000280       0x14 Synchronism_ETR071/Synchronism_ETR071.a(Synchronism_ETR07_data.o)
 .gnu.attributes
                0x00000294       0x14 Torque_Control_ETR070/Torque_Control_ETR07_instances.o
 .gnu.attributes
                0x000002a8       0x14 Torque_Control_ETR071/Torque_Control_ETR071.a(Torque_Control_ETR07.o)
 .gnu.attributes
                0x000002bc       0x14 Torque_Control_ETR071/Torque_Control_ETR071.a(Torque_Control_ETR07_data.o)
 .gnu.attributes
                0x000002d0       0x14 matlabsharedR2017b/matlabsharedR2017b.a(rt_nonfinite.o)
 .gnu.attributes
                0x000002e4       0x14 matlabsharedR2017b/matlabsharedR2017b.a(mldivide_u4svsr16.o)
 .gnu.attributes
                0x000002f8       0x14 matlabsharedR2017b/matlabsharedR2017b.a(polyfit_vylrx3xp.o)
 .gnu.attributes
                0x0000030c       0x14 matlabsharedR2017b/matlabsharedR2017b.a(rt_powd_snf.o)
 .gnu.attributes
                0x00000320       0x14 matlabsharedR2017b/matlabsharedR2017b.a(xgeqp3_bpnhoopt.o)
 .gnu.attributes
                0x00000334       0x14 matlabsharedR2017b/matlabsharedR2017b.a(xgeqp3_wlxeyd7k.o)
 .gnu.attributes
                0x00000348       0x14 matlabsharedR2017b/matlabsharedR2017b.a(xnrm2_5mghfn4r.o)
 .gnu.attributes
                0x0000035c       0x14 matlabsharedR2017b/matlabsharedR2017b.a(xnrm2_ecih3nop.o)
 .gnu.attributes
                0x00000370       0x14 matlabsharedR2017b/matlabsharedR2017b.a(xnrm2_kgimahi2.o)
 .gnu.attributes
                0x00000384       0x14 matlabsharedR2017b/matlabsharedR2017b.a(xnrm2_uobmrgas.o)
 .gnu.attributes
                0x00000398       0x14 matlabsharedR2017b/matlabsharedR2017b.a(rtgetinf.o)
 .gnu.attributes
                0x000003ac       0x14 matlabsharedR2017b/matlabsharedR2017b.a(rtgetnan.o)
 .gnu.attributes
                0x000003c0       0x14 matlabsharedR2017b/matlabsharedR2017b.a(rt_hypotd_snf.o)
 .gnu.attributes
                0x000003d4       0x14 OSC/osekdefs.o
 .gnu.attributes
                0x000003e8       0x14 OSC/TaskISRArchive.a(etasConfigTask.o)
 .gnu.attributes
                0x000003fc       0x14 OSC/TaskISRArchive.a(Sync_25ms.o)
 .gnu.attributes
                0x00000410       0x14 OSC/TaskISRArchive.a(Timer_1000ms.o)
 .gnu.attributes
                0x00000424       0x14 OSC/TaskISRArchive.a(Timer_100ms.o)
 .gnu.attributes
                0x00000438       0x14 OSC/TaskISRArchive.a(Timer_25ms.o)
 .gnu.attributes
                0x0000044c       0x14 OSC/TaskISRArchive.a(Timer_Inv.o)
 .gnu.attributes
                0x00000460       0x14 OSC/TaskISRArchive.a(SWT_CAN1_AP_BMS_ChargerParameters.o)
 .gnu.attributes
                0x00000474       0x14 OSC/TaskISRArchive.a(SWT_CAN1_AP_BMS_BatteryTemperatures.o)
 .gnu.attributes
                0x00000488       0x14 OSC/TaskISRArchive.a(SWT_CAN1_AP_BMS_AIRs_State.o)
 .gnu.attributes
                0x0000049c       0x14 OSC/TaskISRArchive.a(SWT_CAN1_AP_BMS_Current_SOC_SOH.o)
 .gnu.attributes
                0x000004b0       0x14 OSC/TaskISRArchive.a(SWT_CAN1_AP_BMS_StateAndFailReport.o)
 .gnu.attributes
                0x000004c4       0x14 OSC/TaskISRArchive.a(SWT_CAN1_AP_BMS_Voltages.o)
 .gnu.attributes
                0x000004d8       0x14 OSC/TaskISRArchive.a(SWT_CAN1_AP_BMS_OnBoardTemperatures.o)
 .gnu.attributes
                0x000004ec       0x14 OSC/TaskISRArchive.a(SWT_CAN1_AP_Inverter_R_Tx.o)
 .gnu.attributes
                0x00000500       0x14 OSC/TaskISRArchive.a(SWT_CAN1_AP_Inverter_L_Tx.o)
 .gnu.attributes
                0x00000514       0x14 OSC/TaskISRArchive.a(SWT_CAN1_AP_DASH_CustomMode.o)
 .gnu.attributes
                0x00000528       0x14 OSC/TaskISRArchive.a(SWT_CAN1_AP_DASH_Mode.o)
 .gnu.attributes
                0x0000053c       0x14 OSC/TaskISRArchive.a(SWT_CAN1_NM_BMS_Keep_Alive.o)
 .gnu.attributes
                0x00000550       0x14 OSC/TaskISRArchive.a(SWT_CAN1_NM_DASH_Keep_Alive.o)
 .gnu.attributes
                0x00000564       0x14 OSC/TaskISRArchive.a(SWT_CAN1_AP_DASH_TorqueLockOn.o)
 .gnu.attributes
                0x00000578       0x14 OSC/TaskISRArchive.a(SWT_CAN1_AP_DASH_PrechargeRequest.o)
 .gnu.attributes
                0x0000058c       0x14 OSC/TaskISRArchive.a(SWT_CAN1_AP_DASH_EnableDrive.o)
 .gnu.attributes
                0x000005a0       0x14 OSC/TaskISRArchive.a(SWT_CAN1_AP_SHUTDOWN_State.o)
 .gnu.attributes
                0x000005b4       0x14 OSC/TaskISRArchive.a(SWT_CAN1_NM_SHUTDOWN_Keep_Alive.o)
 .gnu.attributes
                0x000005c8       0x14 OSC/TaskISRArchive.a(SWT_CAN2_AP_LV_Derivation_LVData.o)
 .gnu.attributes
                0x000005dc       0x14 OSC/TaskISRArchive.a(SWT_CAN2_AP_ACCEL_R_Data2.o)
 .gnu.attributes
                0x000005f0       0x14 OSC/TaskISRArchive.a(SWT_CAN2_NM_LV_Derivation_Keep_Alive.o)
 .gnu.attributes
                0x00000604       0x14 OSC/TaskISRArchive.a(SWT_CAN2_AP_ACCEL_F_Data.o)
 .gnu.attributes
                0x00000618       0x14 OSC/TaskISRArchive.a(SWT_CAN2_NM_ACCEL_F_Keep_Alive.o)
 .gnu.attributes
                0x0000062c       0x14 OSC/TaskISRArchive.a(SWT_CAN2_NM_ACCEL_R_Keep_Alive.o)
 .gnu.attributes
                0x00000640       0x14 OSC/TaskISRArchive.a(SWT_CAN2_AP_ACCEL_R_Data.o)
 .gnu.attributes
                0x00000654       0x14 OSC/TaskISRArchive.a(SWT_CAN2_AP_ADCAN_Data2.o)
 .gnu.attributes
                0x00000668       0x14 OSC/TaskISRArchive.a(SWT_CAN2_AP_ADCAN_Data1.o)
 .gnu.attributes
                0x0000067c       0x14 OSC/TaskISRArchive.a(SWT_CAN2_NM_ADCAN_Keep_Alive.o)
 .gnu.attributes
                0x00000690       0x14 OSC/TaskISRArchive.a(SWT_CAN2_AP_ELIPSE_VelAngular.o)
 .gnu.attributes
                0x000006a4       0x14 OSC/TaskISRArchive.a(SWT_CAN2_AP_ELIPSE_VelBody.o)
 .gnu.attributes
                0x000006b8       0x14 OSC/TaskISRArchive.a(SWT_CAN1_AP_BMS_Current_SOC.o)
 .gnu.attributes
                0x000006cc       0x14 OSC/TaskISRArchive.a(SWT_CAN1_AP_BMS_Current_SOC_SOH1.o)
 .gnu.attributes
                0x000006e0       0x14 OSC/TaskISRArchive.a(SWT_CAN1_AP_BMS_OnBoardTemperatures1.o)
 .gnu.attributes
                0x000006f4       0x14 OSC/TaskISRArchive.a(NewISR.o)
 .gnu.attributes
                0x00000708       0x14 OSC/TaskISRArchive.a(NewISR1.o)
 .gnu.attributes
                0x0000071c       0x14 OSC/etasActivateTaskIsr.o
 .gnu.attributes
                0x00000730       0x14 OSC/etasL1Isr.o
 .gnu.attributes
                0x00000744       0x14 OSC/etasL1Task.o
 .gnu.attributes
                0x00000758       0x14 OSC/etasTimerIsr.o
 .gnu.attributes
                0x0000076c       0x14 OSC/etasStopOsIsr.o
 .gnu.attributes
                0x00000780       0x14 OSC/DriverThreads.o
 .gnu.attributes
                0x00000794       0x14 OSC/ISRFunctions.o
 .gnu.attributes
                0x000007a8       0x14 OSC/osc_dyn.o
 .gnu.attributes
                0x000007bc       0x14 OSC/rtaInterface.o
 .gnu.attributes
                0x000007d0       0x14 OSC/ETCHooks.o
 .gnu.attributes
                0x000007e4       0x14 OSC/XbarHooks.o
 .gnu.attributes
                0x000007f8       0x14 ETC/FormulaTable.o
 .gnu.attributes
                0x0000080c       0x14 ETC/DriverTable.o
 .gnu.attributes
                0x00000820       0x14 ETC/MappingFunctionTable.o
 .gnu.attributes
                0x00000834       0x14 ETC/RtioL1RecordTable.o
 .gnu.attributes
                0x00000848       0x14 ETC/XCPTransportLayerFunctionsTable.o
 .gnu.attributes
                0x0000085c       0x14 ETC/ChecksumAlgoTables.o
 .gnu.attributes
                0x00000870       0x14 CBC/CopyFunctionTable.o
 .gnu.attributes
                0x00000884       0x14 CBC/CrossbarL1RecordTable.o
 .gnu.attributes
                0x00000898       0x14 C:/ETAS/Compiler/INTECRIO4.7/QNXCompiler-V6.5\host\win32\x86/usr/lib/gcc/powerpc-unknown-nto-qnx6.5.0/4.4.2/spe/libgcc.a(_fixunsdfdi.o)
 .gnu.attributes
                0x000008ac       0x14 C:/ETAS/Compiler/INTECRIO4.7/QNXCompiler-V6.5\host\win32\x86/usr/lib/gcc/powerpc-unknown-nto-qnx6.5.0/4.4.2/spe/libgcc.a(_floatundidf.o)
 .gnu.attributes
                0x000008c0       0x14 C:/ETAS/Compiler/INTECRIO4.7/QNXCompiler-V6.5\host\win32\x86/usr/lib/gcc/powerpc-unknown-nto-qnx6.5.0/4.4.2/spe/crtend.o
 .gnu.attributes
                0x000008d4       0x14 C:\Program Files (x86)\ETAS\INTECRIO4.7\Target\Etarget\ES910\libes910.a(i_rtautil.o)
 .gnu.attributes
                0x000008e8       0x14 C:\Program Files (x86)\ETAS\INTECRIO4.7\Target\Etarget\ES910\libes910.a(t_driverThreads.o)
 .gnu.attributes
                0x000008fc       0x14 C:\Program Files (x86)\ETAS\INTECRIO4.7\Target\Etarget\ES910\libes910.a(t_idle.o)
 .gnu.attributes
                0x00000910       0x14 C:\Program Files (x86)\ETAS\INTECRIO4.7\Target\Etarget\ES910\libes910.a(t_l1com.o)
 .gnu.attributes
                0x00000924       0x14 C:\Program Files (x86)\ETAS\INTECRIO4.7\Target\Etarget\ES910\libes910.a(t_main.o)
 .gnu.attributes
                0x00000938       0x14 C:\Program Files (x86)\ETAS\INTECRIO4.7\Target\Etarget\ES910\libes910.a(t_mlog.o)
 .gnu.attributes
                0x0000094c       0x14 C:\Program Files (x86)\ETAS\INTECRIO4.7\Target\Etarget\ES910\libes910.a(t_qnxtargetutil.o)
 .gnu.attributes
                0x00000960       0x14 C:\Program Files (x86)\ETAS\INTECRIO4.7\Target\Etarget\ES910\libes910.a(t_targetutil.o)
 .gnu.attributes
                0x00000974       0x14 C:\Program Files (x86)\ETAS\INTECRIO4.7\Target\Etarget\ES910\libes910.a(t_watchdog.o)
 .gnu.attributes
                0x00000988       0x14 C:\Program Files (x86)\ETAS\INTECRIO4.7\Target\Etarget\ES910\libes910.a(p_chario.o)
 .gnu.attributes
                0x0000099c       0x14 C:\Program Files (x86)\ETAS\INTECRIO4.7\Target\Etarget\ES910\libes910.a(t_hwTimeSync.o)
 .gnu.attributes
                0x000009b0       0x14 C:\Program Files (x86)\ETAS\INTECRIO4.7\Target\Etarget\ES910\libes910.a(t_led.o)
 .gnu.attributes
                0x000009c4       0x14 C:\Program Files (x86)\ETAS\INTECRIO4.7\Target\Etarget\ES910\libtarget.a(a_dacqui.o)
 .gnu.attributes
                0x000009d8       0x14 C:\Program Files (x86)\ETAS\INTECRIO4.7\Target\Etarget\ES910\libtarget.a(a_l1pro.o)
 .gnu.attributes
                0x000009ec       0x14 C:\Program Files (x86)\ETAS\INTECRIO4.7\Target\Etarget\ES910\libtarget.a(a_primit.o)
 .gnu.attributes
                0x00000a00       0x14 C:\Program Files (x86)\ETAS\INTECRIO4.7\Target\Etarget\ES910\libtarget.a(a_sysver.o)
 .gnu.attributes
                0x00000a14       0x14 C:\Program Files (x86)\ETAS\INTECRIO4.7\Target\Etarget\ES910\libtarget.a(a_targma.o)
 .gnu.attributes
                0x00000a28       0x14 C:\Program Files (x86)\ETAS\INTECRIO4.7\Target\Etarget\ES910\libtarget.a(i_cpyfnc.o)
 .gnu.attributes
                0x00000a3c       0x14 C:\Program Files (x86)\ETAS\INTECRIO4.7\Target\Etarget\ES910\libtarget.a(i_mapfnc.o)
 .gnu.attributes
                0x00000a50       0x14 C:\Program Files (x86)\ETAS\INTECRIO4.7\Target\Etarget\ES910\libtarget.a(i_osman.o)
 .gnu.attributes
                0x00000a64       0x14 C:\Program Files (x86)\ETAS\INTECRIO4.7\Target\Etarget\ES910\libtarget.a(i_rtioma.o)
 .gnu.attributes
                0x00000a78       0x14 C:\Program Files (x86)\ETAS\INTECRIO4.7\Target\Etarget\ES910\libtarget.a(i_salone.o)
 .gnu.attributes
                0x00000a8c       0x14 C:\Program Files (x86)\ETAS\INTECRIO4.7\Target\Etarget\ES910\libtarget.a(t_croman.o)
 .gnu.attributes
                0x00000aa0       0x14 C:\Program Files (x86)\ETAS\INTECRIO4.7\Target\Etarget\ES910\libtarget.a(t_nvram.o)
 .gnu.attributes
                0x00000ab4       0x14 C:\Program Files (x86)\ETAS\INTECRIO4.7\Target\Etarget\ES910\libtarget.a(t_objlis.o)
 .gnu.attributes
                0x00000ac8       0x14 C:\Program Files (x86)\ETAS\INTECRIO4.7\Target\Etarget\ES910\libtarget.a(t_rtcros.o)
 .gnu.attributes
                0x00000adc       0x14 C:\Program Files (x86)\ETAS\INTECRIO4.7\Target\Etarget\ES910\libtarget.a(t_sgman.o)
 .gnu.attributes
                0x00000af0       0x14 C:\Program Files (x86)\ETAS\INTECRIO4.7\Target\Etarget\ES910\libtarget.a(y_primit.o)
 .gnu.attributes
                0x00000b04       0x14 C:\Program Files (x86)\ETAS\INTECRIO4.7\Target\Etarget\ES910\libtarget.a(a1b_dacq.o)
 .gnu.attributes
                0x00000b18       0x14 C:\Program Files (x86)\ETAS\INTECRIO4.7\Target\Etarget\ES910\libtarget.a(a_contai.o)
 .gnu.attributes
                0x00000b2c       0x14 C:\Program Files (x86)\ETAS\INTECRIO4.7\Target\Etarget\ES910\libtarget.a(t_sglow.o)
 .gnu.attributes
                0x00000b40       0x14 C:\Program Files (x86)\ETAS\INTECRIO4.7\Target\Etarget\rtio\global\es910\librtio_gnu.a(comm_err.o)
 .gnu.attributes
                0x00000b54       0x14 C:\Program Files (x86)\ETAS\INTECRIO4.7\Target\Etarget\rtio\global\es910\librtio_gnu.a(p_rtio.o)
 .gnu.attributes
                0x00000b68       0x14 C:\Program Files (x86)\ETAS\INTECRIO4.7\Target\Etarget\rtio\global\es910\librtio_gnu.a(p_rtio_s.o)
 .gnu.attributes
                0x00000b7c       0x14 C:\Program Files (x86)\ETAS\INTECRIO4.7\Target\Etarget\rtio\global\es910\librtio_gnu.a(rtio_err.o)
 .gnu.attributes
                0x00000b90       0x14 C:\Program Files (x86)\ETAS\INTECRIO4.7\Target\Etarget\ES910\rta_osek\librtk_s.a(ostarget.o)
 .gnu.attributes
                0x00000ba4       0x14 C:\Program Files (x86)\ETAS\INTECRIO4.7\Target\Etarget\ES910\rta_osek\librtk_s.a(osfptgt.o)
 .gnu.attributes
                0x00000bb8       0x14 C:\Program Files (x86)\ETAS\INTECRIO4.7\Target\Etarget\ES910\rta_osek\librtk_s.a(osiwrap1.o)
 .gnu.attributes
                0x00000bcc       0x14 C:\Program Files (x86)\ETAS\INTECRIO4.7\Target\Etarget\ES910\rta_osek\librtk_s.a(osxdspnf.o)
 .gnu.attributes
                0x00000be0       0x14 C:\Program Files (x86)\ETAS\INTECRIO4.7\Target\Etarget\ES910\rta_osek\librtk_s.a(osysd1hf.o)
 .gnu.attributes
                0x00000bf4       0x14 C:\Program Files (x86)\ETAS\INTECRIO4.7\Target\Etarget\ES910\rta_osek\librtk_s.a(osysdfhf.o)
 .gnu.attributes
                0x00000c08       0x14 C:\Program Files (x86)\ETAS\INTECRIO4.7\Target\Etarget\ES910\rta_osek\librtk_s.a(osysdfhi.o)
 .gnu.attributes
                0x00000c1c       0x14 C:\Program Files (x86)\ETAS\INTECRIO4.7\Target\Etarget\ES910\rta_osek\librtk_s.a(ostgid.o)
 .gnu.attributes
                0x00000c30       0x14 C:\Program Files (x86)\ETAS\INTECRIO4.7\Target\Etarget\ES910\rta_osek\librtk_s.a(ostschf.o)
 .gnu.attributes
                0x00000c44       0x14 C:\Program Files (x86)\ETAS\INTECRIO4.7\Target\Etarget\ES910\rta_osek\librtk_s.a(osieai.o)
 .gnu.attributes
                0x00000c58       0x14 C:\Program Files (x86)\ETAS\INTECRIO4.7\Target\Etarget\ES910\rta_osek\librtk_s.a(osidai.o)
 .gnu.attributes
                0x00000c6c       0x14 C:\Program Files (x86)\ETAS\INTECRIO4.7\Target\Etarget\ES910\rta_osek\librtk_s.a(osisoi.o)
 .gnu.attributes
                0x00000c80       0x14 C:\Program Files (x86)\ETAS\INTECRIO4.7\Target\Etarget\ES910\rta_osek\librtk_s.a(osirai.o)
 .gnu.attributes
                0x00000c94       0x14 C:\Program Files (x86)\ETAS\INTECRIO4.7\Target\Etarget\ES910\rta_osek\librtk_s.a(osisai.o)
 .gnu.attributes
                0x00000ca8       0x14 C:\Program Files (x86)\ETAS\INTECRIO4.7\Target\Etarget\ES910\rta_osek\librtk_s.a(osxperr2.o)
 .gnu.attributes
                0x00000cbc       0x14 C:\Program Files (x86)\ETAS\INTECRIO4.7\Target\Etarget\ES910\rta_osek\librtk_s.a(osxglobs.o)
 .gnu.attributes
                0x00000cd0       0x14 C:\Program Files (x86)\ETAS\INTECRIO4.7\Target\Etarget\ES910\rta_osek\librtk_s.a(osostart.o)
 .gnu.attributes
                0x00000ce4       0x14 C:\Program Files (x86)\ETAS\INTECRIO4.7\Target\Etarget\ES910\rta_osek\librtk_s.a(ososhuth.o)
 .gnu.attributes
                0x00000cf8       0x14 C:\Program Files (x86)\ETAS\INTECRIO4.7\Target\Etarget\ES910\rta_osek\librtk_s.a(osttermh.o)
 .gnu.attributes
                0x00000d0c       0x14 C:\Program Files (x86)\ETAS\INTECRIO4.7\Target\Etarget\ES910\rta_osek\librtk_s.a(ostactsf.o)
 .gnu.attributes
                0x00000d20       0x14 C:\Program Files (x86)\ETAS\INTECRIO4.7\Target\Etarget\ES910\rta_osek\librtk_s.a(ostactnf.o)
 .gnu.attributes
                0x00000d34       0x14 C:\Program Files (x86)\ETAS\INTECRIO4.7\Target\Etarget\ES910\rta_osek\librtk_s.a(osatickn.o)
 .gnu.attributes
                0x00000d48       0x14 C:\Program Files (x86)\ETAS\INTECRIO4.7\Target\Etarget\ES910\rta_osek\librtk_s.a(osacallb.o)
 .gnu.attributes
                0x00000d5c       0x14 C:\Program Files (x86)\ETAS\INTECRIO4.7\Target\Etarget\ES910\rta_osek\librtk_s.a(osxdpsho.o)
 .gnu.attributes
                0x00000d70       0x14 C:\Program Files (x86)\ETAS\INTECRIO4.7\Target\Etarget\ES910\rta_osek\librtk_s.a(osiwrap.o)
 .gnu.attributes
                0x00000d84       0x14 C:\Program Files (x86)\ETAS\INTECRIO4.7\Target\Etarget\ES910\rta_osek\librtk_s.a(ososhutn.o)
 .gnu.attributes
                0x00000d98       0x14 C:\Program Files (x86)\ETAS\INTECRIO4.7\Target\Etarget\ES910\libcommon.a(p_execl1.o)
 .gnu.attributes
                0x00000dac       0x14 C:\Program Files (x86)\ETAS\INTECRIO4.7\Target\Etarget\ES910\libcommon.a(p_protl1.o)
 .gnu.attributes
                0x00000dc0       0x14 C:\Program Files (x86)\ETAS\INTECRIO4.7\Target\Etarget\ES910\libcommon.a(p_stdeb.o)
 .gnu.attributes
                0x00000dd4       0x14 Accel_Data_ETR071/Accel_Data_ETR071.a(Accel_Data_ETR07_main.o)
 .gnu.attributes
                0x00000de8       0x14 Accel_Data_ETR071/Accel_Data_ETR071.a(rt_sim.o)
 .gnu.attributes
                0x00000dfc       0x14 Car_State_ETR071/Car_State_ETR071.a(Car_State_ETR07_main.o)
 .gnu.attributes
                0x00000e10       0x14 Car_State_ETR071/Car_State_ETR071.a(rt_sim.o)
 .gnu.attributes
                0x00000e24       0x14 Disconnections_ETR071/Disconnections_ETR071.a(Disconnections_ETR07_main.o)
 .gnu.attributes
                0x00000e38       0x14 Disconnections_ETR071/Disconnections_ETR071.a(rt_sim.o)
 .gnu.attributes
                0x00000e4c       0x14 inverters_action_ETR071/inverters_action_ETR071.a(inverters_action_ETR07_main.o)
 .gnu.attributes
                0x00000e60       0x14 inverters_action_ETR071/inverters_action_ETR071.a(rt_sim.o)
 .gnu.attributes
                0x00000e74       0x14 Inverters_Data_ETR071/Inverters_Data_ETR071.a(Inverters_Data_ETR07_main.o)
 .gnu.attributes
                0x00000e88       0x14 Inverters_Data_ETR071/Inverters_Data_ETR071.a(rt_sim.o)
 .gnu.attributes
                0x00000e9c       0x14 Pedals_Susp_Sensors_ETR071/Pedals_Susp_Sensors_ETR071.a(Pedals_Susp_Sensors_ETR07_main.o)
 .gnu.attributes
                0x00000eb0       0x14 Pedals_Susp_Sensors_ETR071/Pedals_Susp_Sensors_ETR071.a(rt_sim.o)
 .gnu.attributes
                0x00000ec4       0x14 Racing_Mode_ETR071/Racing_Mode_ETR071.a(Racing_Mode_ETR07_main.o)
 .gnu.attributes
                0x00000ed8       0x14 Racing_Mode_ETR071/Racing_Mode_ETR071.a(rt_sim.o)
 .gnu.attributes
                0x00000eec       0x14 Synchronism_ETR071/Synchronism_ETR071.a(Synchronism_ETR07_main.o)
 .gnu.attributes
                0x00000f00       0x14 Synchronism_ETR071/Synchronism_ETR071.a(rt_sim.o)
 .gnu.attributes
                0x00000f14       0x14 Torque_Control_ETR071/Torque_Control_ETR071.a(Torque_Control_ETR07_main.o)
 .gnu.attributes
                0x00000f28       0x14 Torque_Control_ETR071/Torque_Control_ETR071.a(rt_sim.o)
 .gnu.attributes
                0x00000f3c       0x14 C:/Program Files (x86)/ETAS/INTECRIO4.7/Target/ETarget/rtio/es9xxcan/ES910/es9xxCan_gnu.lib(es9xxCan.o)
 .gnu.attributes
                0x00000f50       0x14 C:/Program Files (x86)/ETAS/INTECRIO4.7/Target/ETarget/rtio/es9xxcan/ES910/es9xxCan_gnu.lib(es9xxCanCanio.o)
 .gnu.attributes
                0x00000f64       0x14 C:/Program Files (x86)/ETAS/INTECRIO4.7/Target/ETarget/rtio/es9xxcan/ES910/es9xxCan_gnu.lib(es9xxCanErr.o)
 .gnu.attributes
                0x00000f78       0x14 C:/Program Files (x86)/ETAS/INTECRIO4.7/Target/ETarget/rtio/es9xxcan/ES910/es9xxCan_gnu.lib(es9xxCanHalBuf.o)
 .gnu.attributes
                0x00000f8c       0x14 C:/Program Files (x86)/ETAS/INTECRIO4.7/Target/ETarget/rtio/es9xxcan/ES910/es9xxCan_gnu.lib(es9xxCanHalIfi.o)
 .gnu.attributes
                0x00000fa0       0x14 C:/ETAS/Compiler/INTECRIO4.7/QNXCompiler-V6.5\host\win32\x86/usr/lib/gcc/powerpc-unknown-nto-qnx6.5.0/4.4.2/spe/libgcc.a(_floatdidf.o)
 .gnu.attributes
                0x00000fb4       0x14 C:\Program Files (x86)\ETAS\INTECRIO4.7\Target\Etarget\ES910\libes910.a(t_dataset.o)
 .gnu.attributes
                0x00000fc8       0x14 C:\Program Files (x86)\ETAS\INTECRIO4.7\Target\Etarget\ES910\libtarget.a(a_crc32.o)

/DISCARD/
 *(.note.GNU-stack)
 *(.gnu_debuglink)
                0x00000000                enableLogFlg = 0x0
                0x00000000                rtioCrossbarEnableLogFlg = 0x0
                0x00000000                disableNvramAutoUpdateFlg = 0x0
                0x00000000                etkNumWriteRetries = 0x0
                0x00000000                etkWriteRetryInterval = 0x0
START GROUP
LOAD ROOT_instances.o
LOAD _INT_pid.pi.o
LOAD userFuncProcessCanPayload.o
LOAD userFuncProcessFlexRayPayload.o
LOAD OSC/i_rtawrapper.o
LOAD Accel_Data_ETR070/Accel_Data_ETR07_instances.o
LOAD Accel_Data_ETR071/Accel_Data_ETR071.a
LOAD Car_State_ETR070/Car_State_ETR07_instances.o
LOAD Car_State_ETR071/Car_State_ETR071.a
LOAD Disconnections_ETR070/Disconnections_ETR07_instances.o
LOAD Disconnections_ETR071/Disconnections_ETR071.a
LOAD inverters_action_ETR070/inverters_action_ETR07_instances.o
LOAD inverters_action_ETR071/inverters_action_ETR071.a
LOAD Inverters_Data_ETR070/Inverters_Data_ETR07_instances.o
LOAD Inverters_Data_ETR071/Inverters_Data_ETR071.a
LOAD LVD_Data_ETR070/LVD_Data_ETR07_instances.o
LOAD LVD_Data_ETR071/LVD_Data_ETR071.a
LOAD Pedals_Susp_Sensors_ETR070/Pedals_Susp_Sensors_ETR07_instances.o
LOAD Pedals_Susp_Sensors_ETR071/Pedals_Susp_Sensors_ETR071.a
LOAD Racing_Mode_ETR070/Racing_Mode_ETR07_instances.o
LOAD Racing_Mode_ETR071/Racing_Mode_ETR071.a
LOAD Synchronism_ETR070/Synchronism_ETR07_instances.o
LOAD Synchronism_ETR071/Synchronism_ETR071.a
LOAD Torque_Control_ETR070/Torque_Control_ETR07_instances.o
LOAD Torque_Control_ETR071/Torque_Control_ETR071.a
LOAD matlabsharedR2017b/matlabsharedR2017b.a
LOAD OSC/osekdefs.o
LOAD OSC/osgen.o
LOAD OSC/TaskISRArchive.a
LOAD OSC/etasActivateTaskIsr.o
LOAD OSC/etasL1Isr.o
LOAD OSC/etasL1Task.o
LOAD OSC/etasTimerIsr.o
LOAD OSC/etasStopOsIsr.o
LOAD OSC/DriverThreads.o
LOAD OSC/ISRFunctions.o
LOAD OSC/osc_dyn.o
LOAD OSC/rtaInterface.o
LOAD OSC/ETCHooks.o
LOAD OSC/XbarHooks.o
LOAD C:/Program Files (x86)/ETAS/INTECRIO4.7/Target/ETarget/rtio/es9xxcan/ES910/es9xxCan_gnu.lib
LOAD ETC/FormulaTable.o
LOAD ETC/DriverTable.o
LOAD ETC/MappingFunctionTable.o
LOAD ETC/RtioL1RecordTable.o
LOAD ETC/XCPTransportLayerFunctionsTable.o
LOAD ETC/ChecksumAlgoTables.o
LOAD CBC/CopyFunctionTable.o
LOAD CBC/CrossbarL1RecordTable.o
LOAD C:\ETAS\Compiler\INTECRIO4.7\QNXCompiler-V6.5\target\qnx6\ppcbe-spe\lib/libc.so
LOAD C:\ETAS\Compiler\INTECRIO4.7\QNXCompiler-V6.5\target\qnx6\ppcbe-spe\lib\libc.a
LOAD C:/ETAS/Compiler/INTECRIO4.7/QNXCompiler-V6.5\host\win32\x86/usr/lib/gcc/powerpc-unknown-nto-qnx6.5.0/4.4.2/spe/libgcc.a
LOAD C:/ETAS/Compiler/INTECRIO4.7/QNXCompiler-V6.5\host\win32\x86/usr/lib/gcc/powerpc-unknown-nto-qnx6.5.0/4.4.2/spe/crtend.o
LOAD C:/ETAS/Compiler/INTECRIO4.7/QNXCompiler-V6.5\target\qnx6/ppcbe-spe/lib/crtn.o
LOAD C:\Program Files (x86)\ETAS\INTECRIO4.7\Target\Etarget\ES910\libes910.a
LOAD C:\Program Files (x86)\ETAS\INTECRIO4.7\Target\Etarget\ES910\libtarget.a
LOAD C:\Program Files (x86)\ETAS\INTECRIO4.7\Target\Etarget\rtio\global\es910\librtio_gnu.a
LOAD C:\Program Files (x86)\ETAS\INTECRIO4.7\Target\Etarget\ES910\rta_osek\librtk_s.a
LOAD C:\Program Files (x86)\ETAS\INTECRIO4.7\Target\Etarget\ES910\libcommon.a
LOAD C:\Program Files (x86)\ETAS\INTECRIO4.7\Target\Etarget\ES910\libintpol.a
LOAD C:\Program Files (x86)\ETAS\INTECRIO4.7\Target\Etarget\ES910\libintpolascetse.a
LOAD C:\Program Files (x86)\ETAS\INTECRIO4.7\Target\Etarget\ES910/liblin.so
LOAD C:\Program Files (x86)\ETAS\INTECRIO4.7\Target\Etarget\ES910/libcan.so
LOAD C:\Program Files (x86)\ETAS\INTECRIO4.7\Target\Etarget\ES910/libtriplebuf.so
LOAD C:\Program Files (x86)\ETAS\INTECRIO4.7\Target\Etarget\ES910/libudpServer.so
LOAD C:\Program Files (x86)\ETAS\INTECRIO4.7\Target\Etarget\ES910/libosekwd.so
LOAD C:\Program Files (x86)\ETAS\INTECRIO4.7\Target\Etarget\ES910/libuserwd.so
LOAD C:\Program Files (x86)\ETAS\INTECRIO4.7\Target\Etarget\ES910/libhwinfo.so
LOAD C:\Program Files (x86)\ETAS\INTECRIO4.7\Target\Etarget\ES910/libincarequest.so
LOAD C:\Program Files (x86)\ETAS\INTECRIO4.7\Target\Etarget\ES910/libclktime.so
LOAD C:\Program Files (x86)\ETAS\INTECRIO4.7\Target\Etarget\ES910/libetas.so
LOAD C:\Program Files (x86)\ETAS\INTECRIO4.7\Target\Etarget\ES910/libcJSON.so
LOAD C:\Users\GERARD\AppData\Roaming\ETAS\INTECRIO4.7\ETARGET\ES910\libmatlabstaticR2017b_gnu.a
LOAD C:\ETAS\Compiler\INTECRIO4.7\QNXCompiler-V6.5\target\qnx6\ppcbe-spe\lib/libsocket.so
LOAD C:\ETAS\Compiler\INTECRIO4.7\QNXCompiler-V6.5\target\qnx6\ppcbe-spe\lib/libm.so
LOAD C:\ETAS\Compiler\INTECRIO4.7\QNXCompiler-V6.5\target\qnx6\ppcbe-spe\lib/libc.so
END GROUP
OUTPUT(System_ram.l elf32-powerpc)

.PPC.EMB.apuinfo
                0x00000000       0x20
 .PPC.EMB.apuinfo
                0x00000000       0x1c ROOT_instances.o
 .PPC.EMB.apuinfo
                0x0000001c       0x1c Accel_Data_ETR071/Accel_Data_ETR071.a(Accel_Data_ETR07.o)
 .PPC.EMB.apuinfo
                0x00000038       0x1c Car_State_ETR071/Car_State_ETR071.a(Car_State_ETR07.o)
 .PPC.EMB.apuinfo
                0x00000054       0x1c Disconnections_ETR071/Disconnections_ETR071.a(Disconnections_ETR07.o)
 .PPC.EMB.apuinfo
                0x00000070       0x1c inverters_action_ETR071/inverters_action_ETR071.a(inverters_action_ETR07.o)
 .PPC.EMB.apuinfo
                0x0000008c       0x1c Inverters_Data_ETR071/Inverters_Data_ETR071.a(Inverters_Data_ETR07.o)
 .PPC.EMB.apuinfo
                0x000000a8       0x1c LVD_Data_ETR071/LVD_Data_ETR071.a(LVD_Data_ETR07.o)
 .PPC.EMB.apuinfo
                0x000000c4       0x1c Pedals_Susp_Sensors_ETR071/Pedals_Susp_Sensors_ETR071.a(Pedals_Susp_Sensors_ETR07.o)
 .PPC.EMB.apuinfo
                0x000000e0       0x1c Racing_Mode_ETR071/Racing_Mode_ETR071.a(Racing_Mode_ETR07.o)
 .PPC.EMB.apuinfo
                0x000000fc       0x1c Synchronism_ETR071/Synchronism_ETR071.a(Synchronism_ETR07.o)
 .PPC.EMB.apuinfo
                0x00000118       0x20 Torque_Control_ETR071/Torque_Control_ETR071.a(Torque_Control_ETR07.o)
 .PPC.EMB.apuinfo
                0x00000138       0x1c matlabsharedR2017b/matlabsharedR2017b.a(rt_nonfinite.o)
 .PPC.EMB.apuinfo
                0x00000154       0x1c matlabsharedR2017b/matlabsharedR2017b.a(mldivide_u4svsr16.o)
 .PPC.EMB.apuinfo
                0x00000170       0x1c matlabsharedR2017b/matlabsharedR2017b.a(polyfit_vylrx3xp.o)
 .PPC.EMB.apuinfo
                0x0000018c       0x1c matlabsharedR2017b/matlabsharedR2017b.a(rt_powd_snf.o)
 .PPC.EMB.apuinfo
                0x000001a8       0x1c matlabsharedR2017b/matlabsharedR2017b.a(xgeqp3_bpnhoopt.o)
 .PPC.EMB.apuinfo
                0x000001c4       0x1c matlabsharedR2017b/matlabsharedR2017b.a(xgeqp3_wlxeyd7k.o)
 .PPC.EMB.apuinfo
                0x000001e0       0x1c matlabsharedR2017b/matlabsharedR2017b.a(xnrm2_5mghfn4r.o)
 .PPC.EMB.apuinfo
                0x000001fc       0x1c matlabsharedR2017b/matlabsharedR2017b.a(xnrm2_ecih3nop.o)
 .PPC.EMB.apuinfo
                0x00000218       0x1c matlabsharedR2017b/matlabsharedR2017b.a(xnrm2_kgimahi2.o)
 .PPC.EMB.apuinfo
                0x00000234       0x1c matlabsharedR2017b/matlabsharedR2017b.a(xnrm2_uobmrgas.o)
 .PPC.EMB.apuinfo
                0x00000250       0x18 matlabsharedR2017b/matlabsharedR2017b.a(rtgetinf.o)
 .PPC.EMB.apuinfo
                0x00000268       0x1c matlabsharedR2017b/matlabsharedR2017b.a(rtgetnan.o)
 .PPC.EMB.apuinfo
                0x00000284       0x1c matlabsharedR2017b/matlabsharedR2017b.a(rt_hypotd_snf.o)
 .PPC.EMB.apuinfo
                0x000002a0       0x1c C:/ETAS/Compiler/INTECRIO4.7/QNXCompiler-V6.5\host\win32\x86/usr/lib/gcc/powerpc-unknown-nto-qnx6.5.0/4.4.2/spe/libgcc.a(_fixunsdfdi.o)
 .PPC.EMB.apuinfo
                0x000002bc       0x1c C:/ETAS/Compiler/INTECRIO4.7/QNXCompiler-V6.5\host\win32\x86/usr/lib/gcc/powerpc-unknown-nto-qnx6.5.0/4.4.2/spe/libgcc.a(_floatundidf.o)
 .PPC.EMB.apuinfo
                0x000002d8       0x1c C:\Program Files (x86)\ETAS\INTECRIO4.7\Target\Etarget\ES910\libes910.a(i_rtautil.o)
 .PPC.EMB.apuinfo
                0x000002f4       0x20 C:\Program Files (x86)\ETAS\INTECRIO4.7\Target\Etarget\ES910\libes910.a(t_idle.o)
 .PPC.EMB.apuinfo
                0x00000314       0x18 C:\Program Files (x86)\ETAS\INTECRIO4.7\Target\Etarget\ES910\libes910.a(t_mlog.o)
 .PPC.EMB.apuinfo
                0x0000032c       0x18 C:\Program Files (x86)\ETAS\INTECRIO4.7\Target\Etarget\ES910\libes910.a(t_qnxtargetutil.o)
 .PPC.EMB.apuinfo
                0x00000344       0x1c C:\Program Files (x86)\ETAS\INTECRIO4.7\Target\Etarget\ES910\libes910.a(t_targetutil.o)
 .PPC.EMB.apuinfo
                0x00000360       0x20 C:\Program Files (x86)\ETAS\INTECRIO4.7\Target\Etarget\ES910\libtarget.a(a_dacqui.o)
 .PPC.EMB.apuinfo
                0x00000380       0x20 C:\Program Files (x86)\ETAS\INTECRIO4.7\Target\Etarget\ES910\libtarget.a(a_primit.o)
 .PPC.EMB.apuinfo
                0x000003a0       0x20 C:\Program Files (x86)\ETAS\INTECRIO4.7\Target\Etarget\ES910\libtarget.a(a_targma.o)
 .PPC.EMB.apuinfo
                0x000003c0       0x1c C:\Program Files (x86)\ETAS\INTECRIO4.7\Target\Etarget\ES910\libtarget.a(i_cpyfnc.o)
 .PPC.EMB.apuinfo
                0x000003dc       0x20 C:\Program Files (x86)\ETAS\INTECRIO4.7\Target\Etarget\ES910\libtarget.a(i_mapfnc.o)
 .PPC.EMB.apuinfo
                0x000003fc       0x18 C:\Program Files (x86)\ETAS\INTECRIO4.7\Target\Etarget\ES910\libtarget.a(i_osman.o)
 .PPC.EMB.apuinfo
                0x00000414       0x20 C:\Program Files (x86)\ETAS\INTECRIO4.7\Target\Etarget\ES910\libtarget.a(i_rtioma.o)
 .PPC.EMB.apuinfo
                0x00000434       0x18 C:\Program Files (x86)\ETAS\INTECRIO4.7\Target\Etarget\ES910\libtarget.a(t_croman.o)
 .PPC.EMB.apuinfo
                0x0000044c       0x18 C:\Program Files (x86)\ETAS\INTECRIO4.7\Target\Etarget\ES910\libtarget.a(t_objlis.o)
 .PPC.EMB.apuinfo
                0x00000464       0x20 C:\Program Files (x86)\ETAS\INTECRIO4.7\Target\Etarget\ES910\libtarget.a(t_rtcros.o)
 .PPC.EMB.apuinfo
                0x00000484       0x20 C:\Program Files (x86)\ETAS\INTECRIO4.7\Target\Etarget\ES910\libtarget.a(t_sgman.o)
 .PPC.EMB.apuinfo
                0x000004a4       0x18 C:\Program Files (x86)\ETAS\INTECRIO4.7\Target\Etarget\ES910\libtarget.a(y_primit.o)
 .PPC.EMB.apuinfo
                0x000004bc       0x20 C:\Program Files (x86)\ETAS\INTECRIO4.7\Target\Etarget\ES910\libtarget.a(a1b_dacq.o)
 .PPC.EMB.apuinfo
                0x000004dc       0x18 C:\Program Files (x86)\ETAS\INTECRIO4.7\Target\Etarget\ES910\libtarget.a(a_contai.o)
 .PPC.EMB.apuinfo
                0x000004f4       0x1c C:\Program Files (x86)\ETAS\INTECRIO4.7\Target\Etarget\ES910\libtarget.a(t_sglow.o)
 .PPC.EMB.apuinfo
                0x00000510       0x18 C:\Program Files (x86)\ETAS\INTECRIO4.7\Target\Etarget\rtio\global\es910\librtio_gnu.a(p_rtio_s.o)
 .PPC.EMB.apuinfo
                0x00000528       0x18 C:\Program Files (x86)\ETAS\INTECRIO4.7\Target\Etarget\ES910\rta_osek\librtk_s.a(ostarget.o)
 .PPC.EMB.apuinfo
                0x00000540       0x18 C:\Program Files (x86)\ETAS\INTECRIO4.7\Target\Etarget\ES910\rta_osek\librtk_s.a(osysdfhf.o)
 .PPC.EMB.apuinfo
                0x00000558       0x18 C:\Program Files (x86)\ETAS\INTECRIO4.7\Target\Etarget\ES910\rta_osek\librtk_s.a(osysdfhi.o)
 .PPC.EMB.apuinfo
                0x00000570       0x18 C:\Program Files (x86)\ETAS\INTECRIO4.7\Target\Etarget\ES910\rta_osek\librtk_s.a(osxjmp.o)
 .PPC.EMB.apuinfo
                0x00000588       0x18 C:\Program Files (x86)\ETAS\INTECRIO4.7\Target\Etarget\ES910\libcommon.a(p_protl1.o)
 .PPC.EMB.apuinfo
                0x000005a0       0x18 Accel_Data_ETR071/Accel_Data_ETR071.a(Accel_Data_ETR07_main.o)
 .PPC.EMB.apuinfo
                0x000005b8       0x1c Accel_Data_ETR071/Accel_Data_ETR071.a(rt_sim.o)
 .PPC.EMB.apuinfo
                0x000005d4       0x18 Car_State_ETR071/Car_State_ETR071.a(Car_State_ETR07_main.o)
 .PPC.EMB.apuinfo
                0x000005ec       0x1c Car_State_ETR071/Car_State_ETR071.a(rt_sim.o)
 .PPC.EMB.apuinfo
                0x00000608       0x18 Disconnections_ETR071/Disconnections_ETR071.a(Disconnections_ETR07_main.o)
 .PPC.EMB.apuinfo
                0x00000620       0x1c Disconnections_ETR071/Disconnections_ETR071.a(rt_sim.o)
 .PPC.EMB.apuinfo
                0x0000063c       0x18 inverters_action_ETR071/inverters_action_ETR071.a(inverters_action_ETR07_main.o)
 .PPC.EMB.apuinfo
                0x00000654       0x1c inverters_action_ETR071/inverters_action_ETR071.a(rt_sim.o)
 .PPC.EMB.apuinfo
                0x00000670       0x18 Inverters_Data_ETR071/Inverters_Data_ETR071.a(Inverters_Data_ETR07_main.o)
 .PPC.EMB.apuinfo
                0x00000688       0x1c Inverters_Data_ETR071/Inverters_Data_ETR071.a(rt_sim.o)
 .PPC.EMB.apuinfo
                0x000006a4       0x18 Pedals_Susp_Sensors_ETR071/Pedals_Susp_Sensors_ETR071.a(Pedals_Susp_Sensors_ETR07_main.o)
 .PPC.EMB.apuinfo
                0x000006bc       0x1c Pedals_Susp_Sensors_ETR071/Pedals_Susp_Sensors_ETR071.a(rt_sim.o)
 .PPC.EMB.apuinfo
                0x000006d8       0x18 Racing_Mode_ETR071/Racing_Mode_ETR071.a(Racing_Mode_ETR07_main.o)
 .PPC.EMB.apuinfo
                0x000006f0       0x1c Racing_Mode_ETR071/Racing_Mode_ETR071.a(rt_sim.o)
 .PPC.EMB.apuinfo
                0x0000070c       0x18 Synchronism_ETR071/Synchronism_ETR071.a(Synchronism_ETR07_main.o)
 .PPC.EMB.apuinfo
                0x00000724       0x1c Synchronism_ETR071/Synchronism_ETR071.a(rt_sim.o)
 .PPC.EMB.apuinfo
                0x00000740       0x1c Torque_Control_ETR071/Torque_Control_ETR071.a(Torque_Control_ETR07_main.o)
 .PPC.EMB.apuinfo
                0x0000075c       0x1c Torque_Control_ETR071/Torque_Control_ETR071.a(rt_sim.o)
 .PPC.EMB.apuinfo
                0x00000778       0x18 C:/Program Files (x86)/ETAS/INTECRIO4.7/Target/ETarget/rtio/es9xxcan/ES910/es9xxCan_gnu.lib(es9xxCanCanio.o)
 .PPC.EMB.apuinfo
                0x00000790       0x18 C:/Program Files (x86)/ETAS/INTECRIO4.7/Target/ETarget/rtio/es9xxcan/ES910/es9xxCan_gnu.lib(es9xxCanHalBuf.o)
 .PPC.EMB.apuinfo
                0x000007a8       0x1c C:/ETAS/Compiler/INTECRIO4.7/QNXCompiler-V6.5\host\win32\x86/usr/lib/gcc/powerpc-unknown-nto-qnx6.5.0/4.4.2/spe/libgcc.a(_floatdidf.o)
 .PPC.EMB.apuinfo
                0x000007c4       0x18 C:\Program Files (x86)\ETAS\INTECRIO4.7\Target\Etarget\ES910\libes910.a(t_dataset.o)
